
dram_0x30000000.axf:     file format elf32-littlearm


Disassembly of section .text:

30000000 <__start>:
30000000:	ea000006 	b	30000020 <ResetHandler>
30000004:	eafffffe 	b	30000004 <__start+0x4>
30000008:	eafffffe 	b	30000008 <__start+0x8>
3000000c:	eafffffe 	b	3000000c <__start+0xc>
30000010:	eafffffe 	b	30000010 <__start+0x10>
30000014:	eafffffe 	b	30000014 <__start+0x14>
30000018:	eafffffe 	b	30000018 <__start+0x18>
3000001c:	eafffffe 	b	3000001c <__start+0x1c>

30000020 <ResetHandler>:
30000020:	e3a00453 	mov	r0, #1392508928	; 0x53000000
30000024:	e3a01000 	mov	r1, #0
30000028:	e5801000 	str	r1, [r0]
3000002c:	e59f00f0 	ldr	r0, [pc, #240]	; 30000124 <SMRDATA+0x34>
30000030:	e59f10f0 	ldr	r1, [pc, #240]	; 30000128 <SMRDATA+0x38>
30000034:	e5801000 	str	r1, [r0]
30000038:	e59f00ec 	ldr	r0, [pc, #236]	; 3000012c <SMRDATA+0x3c>
3000003c:	e3e01000 	mvn	r1, #0
30000040:	e5801000 	str	r1, [r0]
30000044:	e3a00313 	mov	r0, #1275068416	; 0x4c000000
30000048:	e3e01000 	mvn	r1, #0
3000004c:	e5801000 	str	r1, [r0]
30000050:	e59f00d8 	ldr	r0, [pc, #216]	; 30000130 <SMRDATA+0x40>
30000054:	e3a01000 	mov	r1, #0
30000058:	e5801000 	str	r1, [r0]
3000005c:	e59f00d0 	ldr	r0, [pc, #208]	; 30000134 <SMRDATA+0x44>
30000060:	e3a01005 	mov	r1, #5
30000064:	e5801000 	str	r1, [r0]
30000068:	e59f00c8 	ldr	r0, [pc, #200]	; 30000138 <SMRDATA+0x48>
3000006c:	e59f10c8 	ldr	r1, [pc, #200]	; 3000013c <SMRDATA+0x4c>
30000070:	e5801000 	str	r1, [r0]
30000074:	e59f00c4 	ldr	r0, [pc, #196]	; 30000140 <SMRDATA+0x50>
30000078:	ee010f10 	mcr	15, 0, r0, cr1, cr0, {0}
3000007c:	e59f00c0 	ldr	r0, [pc, #192]	; 30000144 <SMRDATA+0x54>
30000080:	e3a01312 	mov	r1, #1207959552	; 0x48000000
30000084:	e2802034 	add	r2, r0, #52	; 0x34
30000088:	e4903004 	ldr	r3, [r0], #4
3000008c:	e4813004 	str	r3, [r1], #4
30000090:	e1520000 	cmp	r2, r0
30000094:	1afffffb 	bne	30000088 <ResetHandler+0x68>
30000098:	e59f00a8 	ldr	r0, [pc, #168]	; 30000148 <SMRDATA+0x58>
3000009c:	e59f10a8 	ldr	r1, [pc, #168]	; 3000014c <SMRDATA+0x5c>
300000a0:	e3a02000 	mov	r2, #0
300000a4:	e1500001 	cmp	r0, r1
300000a8:	34802004 	strcc	r2, [r0], #4
300000ac:	3afffffc 	bcc	300000a4 <ResetHandler+0x84>
300000b0:	e321f0d2 	msr	CPSR_c, #210	; 0xd2
300000b4:	e59fd094 	ldr	sp, [pc, #148]	; 30000150 <SMRDATA+0x60>
300000b8:	e321f0d3 	msr	CPSR_c, #211	; 0xd3
300000bc:	e59fd090 	ldr	sp, [pc, #144]	; 30000154 <SMRDATA+0x64>
300000c0:	e321f0d1 	msr	CPSR_c, #209	; 0xd1
300000c4:	e59fd08c 	ldr	sp, [pc, #140]	; 30000158 <SMRDATA+0x68>
300000c8:	e321f0db 	msr	CPSR_c, #219	; 0xdb
300000cc:	e59fd088 	ldr	sp, [pc, #136]	; 3000015c <SMRDATA+0x6c>
300000d0:	e321f0d7 	msr	CPSR_c, #215	; 0xd7
300000d4:	e59fd084 	ldr	sp, [pc, #132]	; 30000160 <SMRDATA+0x70>
300000d8:	e321f01f 	msr	CPSR_c, #31
300000dc:	e59fd080 	ldr	sp, [pc, #128]	; 30000164 <SMRDATA+0x74>
300000e0:	eb000434 	bl	300011b8 <Run_Time_Config>
300000e4:	eb000281 	bl	30000af0 <MMU_Init>
300000e8:	eb0001c6 	bl	30000808 <Main>
300000ec:	eafffffe 	b	300000ec <ResetHandler+0xcc>

300000f0 <SMRDATA>:
300000f0:	02000000 	andeq	r0, r0, #0
	...
3000010c:	00018001 	andeq	r8, r1, r1
30000110:	00000000 	andeq	r0, r0, r0
30000114:	008401e7 	addeq	r0, r4, r7, ror #3
30000118:	00000090 	muleq	r0, r0, r0
3000011c:	00000020 	andeq	r0, r0, r0, lsr #32
30000120:	00000030 	andeq	r0, r0, r0, lsr r0
30000124:	4a00001c 	bmi	3000019c <Key_Get_Pressed+0x8>
30000128:	00007fff 	strdeq	r7, [r0], -pc
3000012c:	4a000008 	bmi	30000154 <SMRDATA+0x64>
30000130:	4c000018 	stcmi	0, cr0, [r0], {24}
30000134:	4c000014 	stcmi	0, cr0, [r0], {20}
30000138:	4c000004 	stcmi	0, cr0, [r0], {4}
3000013c:	0006e031 	andeq	lr, r6, r1, lsr r0
30000140:	c000107e 	andgt	r1, r0, lr, ror r0
30000144:	300000f0 	strdcc	r0, [r0], r0
30000148:	30009580 	andcc	r9, r0, r0, lsl #11
3000014c:	300095c0 	andcc	r9, r0, r0, asr #11
30000150:	317fc000 	cmncc	pc, r0
30000154:	317f8000 	cmncc	pc, r0
30000158:	317f7c00 	cmncc	pc, r0, lsl #24
3000015c:	317f7800 	cmncc	pc, r0, lsl #16
30000160:	317f7700 	cmncc	pc, r0, lsl #14
30000164:	317f7600 	cmncc	pc, r0, lsl #12

30000168 <Key_Poll_Init>:
30000168:	e3a03456 	mov	r3, #1442840576	; 0x56000000
3000016c:	e5930050 	ldr	r0, [r3, #80]	; 0x50
30000170:	e3c02cff 	bic	r2, r0, #65280	; 0xff00
30000174:	e5832050 	str	r2, [r3, #80]	; 0x50
30000178:	e593c050 	ldr	ip, [r3, #80]	; 0x50
3000017c:	e3cc1003 	bic	r1, ip, #3
30000180:	e5831050 	str	r1, [r3, #80]	; 0x50
30000184:	e5930020 	ldr	r0, [r3, #32]
30000188:	e3c0280f 	bic	r2, r0, #983040	; 0xf0000
3000018c:	e5832020 	str	r2, [r3, #32]
30000190:	e12fff1e 	bx	lr

30000194 <Key_Get_Pressed>:
30000194:	e3a0c456 	mov	ip, #1442840576	; 0x56000000
30000198:	e59c1020 	ldr	r1, [ip, #32]
3000019c:	e24dd008 	sub	sp, sp, #8
300001a0:	e3c1080f 	bic	r0, r1, #983040	; 0xf0000
300001a4:	e3802801 	orr	r2, r0, #65536	; 0x10000
300001a8:	e58c2020 	str	r2, [ip, #32]
300001ac:	e59c3024 	ldr	r3, [ip, #36]	; 0x24
300001b0:	e3a00000 	mov	r0, #0
300001b4:	e3c31c01 	bic	r1, r3, #256	; 0x100
300001b8:	e58c1024 	str	r1, [ip, #36]	; 0x24
300001bc:	e58d0004 	str	r0, [sp, #4]
300001c0:	e59f20bc 	ldr	r2, [pc, #188]	; 30000284 <Key_Get_Pressed+0xf0>
300001c4:	e59d3004 	ldr	r3, [sp, #4]
300001c8:	e1530002 	cmp	r3, r2
300001cc:	ca000005 	bgt	300001e8 <Key_Get_Pressed+0x54>
300001d0:	e59d0004 	ldr	r0, [sp, #4]
300001d4:	e2803001 	add	r3, r0, #1
300001d8:	e58d3004 	str	r3, [sp, #4]
300001dc:	e59dc004 	ldr	ip, [sp, #4]
300001e0:	e15c0002 	cmp	ip, r2
300001e4:	dafffff9 	ble	300001d0 <Key_Get_Pressed+0x3c>
300001e8:	e3a00456 	mov	r0, #1442840576	; 0x56000000
300001ec:	e5902054 	ldr	r2, [r0, #84]	; 0x54
300001f0:	e3120001 	tst	r2, #1
300001f4:	03a00009 	moveq	r0, #9
300001f8:	0a00001d 	beq	30000274 <Key_Get_Pressed+0xe0>
300001fc:	e590c054 	ldr	ip, [r0, #84]	; 0x54
30000200:	e1a0122c 	lsr	r1, ip, #4
30000204:	e201200f 	and	r2, r1, #15
30000208:	e352000f 	cmp	r2, #15
3000020c:	0a00001a 	beq	3000027c <Key_Get_Pressed+0xe8>
30000210:	e3a01000 	mov	r1, #0
30000214:	e58d1004 	str	r1, [sp, #4]
30000218:	e59d3004 	ldr	r3, [sp, #4]
3000021c:	e59f1064 	ldr	r1, [pc, #100]	; 30000288 <Key_Get_Pressed+0xf4>
30000220:	e1530001 	cmp	r3, r1
30000224:	ca000010 	bgt	3000026c <Key_Get_Pressed+0xd8>
30000228:	e590c054 	ldr	ip, [r0, #84]	; 0x54
3000022c:	e1a0322c 	lsr	r3, ip, #4
30000230:	e203c00f 	and	ip, r3, #15
30000234:	e152000c 	cmp	r2, ip
30000238:	0a000005 	beq	30000254 <Key_Get_Pressed+0xc0>
3000023c:	ea00000e 	b	3000027c <Key_Get_Pressed+0xe8>
30000240:	e5903054 	ldr	r3, [r0, #84]	; 0x54
30000244:	e1a0c223 	lsr	ip, r3, #4
30000248:	e20c300f 	and	r3, ip, #15
3000024c:	e1530002 	cmp	r3, r2
30000250:	1a000009 	bne	3000027c <Key_Get_Pressed+0xe8>
30000254:	e59dc004 	ldr	ip, [sp, #4]
30000258:	e28c3001 	add	r3, ip, #1
3000025c:	e58d3004 	str	r3, [sp, #4]
30000260:	e59dc004 	ldr	ip, [sp, #4]
30000264:	e15c0001 	cmp	ip, r1
30000268:	dafffff4 	ble	30000240 <Key_Get_Pressed+0xac>
3000026c:	e59f1018 	ldr	r1, [pc, #24]	; 3000028c <Key_Get_Pressed+0xf8>
30000270:	e7910102 	ldr	r0, [r1, r2, lsl #2]
30000274:	e28dd008 	add	sp, sp, #8
30000278:	e12fff1e 	bx	lr
3000027c:	e3a00000 	mov	r0, #0
30000280:	eafffffb 	b	30000274 <Key_Get_Pressed+0xe0>
30000284:	000fffff 	strdeq	pc, [pc], -pc
30000288:	000003e7 	andeq	r0, r0, r7, ror #7
3000028c:	30008ce8 	andcc	r8, r0, r8, ror #25

30000290 <Key_Get_Pressed_Multi>:
30000290:	e3a0c456 	mov	ip, #1442840576	; 0x56000000
30000294:	e59c1020 	ldr	r1, [ip, #32]
30000298:	e24dd008 	sub	sp, sp, #8
3000029c:	e3c1080f 	bic	r0, r1, #983040	; 0xf0000
300002a0:	e3802801 	orr	r2, r0, #65536	; 0x10000
300002a4:	e58c2020 	str	r2, [ip, #32]
300002a8:	e59c3024 	ldr	r3, [ip, #36]	; 0x24
300002ac:	e3a00000 	mov	r0, #0
300002b0:	e3c31c01 	bic	r1, r3, #256	; 0x100
300002b4:	e58c1024 	str	r1, [ip, #36]	; 0x24
300002b8:	e58d0004 	str	r0, [sp, #4]
300002bc:	e59f20e0 	ldr	r2, [pc, #224]	; 300003a4 <Key_Get_Pressed_Multi+0x114>
300002c0:	e59d3004 	ldr	r3, [sp, #4]
300002c4:	e1530002 	cmp	r3, r2
300002c8:	ca000005 	bgt	300002e4 <Key_Get_Pressed_Multi+0x54>
300002cc:	e59d0004 	ldr	r0, [sp, #4]
300002d0:	e2803001 	add	r3, r0, #1
300002d4:	e58d3004 	str	r3, [sp, #4]
300002d8:	e59dc004 	ldr	ip, [sp, #4]
300002dc:	e15c0002 	cmp	ip, r2
300002e0:	dafffff9 	ble	300002cc <Key_Get_Pressed_Multi+0x3c>
300002e4:	e3a02000 	mov	r2, #0
300002e8:	e3a03456 	mov	r3, #1442840576	; 0x56000000
300002ec:	e5931054 	ldr	r1, [r3, #84]	; 0x54
300002f0:	e58d2004 	str	r2, [sp, #4]
300002f4:	e59dc004 	ldr	ip, [sp, #4]
300002f8:	e59f20a4 	ldr	r2, [pc, #164]	; 300003a4 <Key_Get_Pressed_Multi+0x114>
300002fc:	e15c0002 	cmp	ip, r2
30000300:	ca000005 	bgt	3000031c <Key_Get_Pressed_Multi+0x8c>
30000304:	e59d3004 	ldr	r3, [sp, #4]
30000308:	e283c001 	add	ip, r3, #1
3000030c:	e58dc004 	str	ip, [sp, #4]
30000310:	e59d0004 	ldr	r0, [sp, #4]
30000314:	e1500002 	cmp	r0, r2
30000318:	dafffff9 	ble	30000304 <Key_Get_Pressed_Multi+0x74>
3000031c:	e3a02000 	mov	r2, #0
30000320:	e3a03456 	mov	r3, #1442840576	; 0x56000000
30000324:	e5930054 	ldr	r0, [r3, #84]	; 0x54
30000328:	e58d2004 	str	r2, [sp, #4]
3000032c:	e59dc004 	ldr	ip, [sp, #4]
30000330:	e59f206c 	ldr	r2, [pc, #108]	; 300003a4 <Key_Get_Pressed_Multi+0x114>
30000334:	e15c0002 	cmp	ip, r2
30000338:	ca000005 	bgt	30000354 <Key_Get_Pressed_Multi+0xc4>
3000033c:	e59dc004 	ldr	ip, [sp, #4]
30000340:	e28c3001 	add	r3, ip, #1
30000344:	e58d3004 	str	r3, [sp, #4]
30000348:	e59dc004 	ldr	ip, [sp, #4]
3000034c:	e15c0002 	cmp	ip, r2
30000350:	dafffff9 	ble	3000033c <Key_Get_Pressed_Multi+0xac>
30000354:	e3a0c456 	mov	ip, #1442840576	; 0x56000000
30000358:	e59c3020 	ldr	r3, [ip, #32]
3000035c:	e1a01221 	lsr	r1, r1, #4
30000360:	e3c3280f 	bic	r2, r3, #983040	; 0xf0000
30000364:	e3823701 	orr	r3, r2, #262144	; 0x40000
30000368:	e58c3020 	str	r3, [ip, #32]
3000036c:	e59c2024 	ldr	r2, [ip, #36]	; 0x24
30000370:	e201100f 	and	r1, r1, #15
30000374:	e3c23c02 	bic	r3, r2, #512	; 0x200
30000378:	e58c3024 	str	r3, [ip, #36]	; 0x24
3000037c:	e59c2054 	ldr	r2, [ip, #84]	; 0x54
30000380:	e2000001 	and	r0, r0, #1
30000384:	e181c400 	orr	ip, r1, r0, lsl #8
30000388:	e20230f0 	and	r3, r2, #240	; 0xf0
3000038c:	e18c2003 	orr	r2, ip, r3
30000390:	e1e00002 	mvn	r0, r2
30000394:	e1a01b80 	lsl	r1, r0, #23
30000398:	e1a00ba1 	lsr	r0, r1, #23
3000039c:	e28dd008 	add	sp, sp, #8
300003a0:	e12fff1e 	bx	lr
300003a4:	000fffff 	strdeq	pc, [pc], -pc

300003a8 <Key_Wait_Key_Pressed>:
300003a8:	e92d0030 	push	{r4, r5}
300003ac:	e59f20e8 	ldr	r2, [pc, #232]	; 3000049c <Key_Wait_Key_Pressed+0xf4>
300003b0:	e59fc0e8 	ldr	ip, [pc, #232]	; 300004a0 <Key_Wait_Key_Pressed+0xf8>
300003b4:	e59f50e8 	ldr	r5, [pc, #232]	; 300004a4 <Key_Wait_Key_Pressed+0xfc>
300003b8:	e24dd008 	sub	sp, sp, #8
300003bc:	e3a01456 	mov	r1, #1442840576	; 0x56000000
300003c0:	e3a04000 	mov	r4, #0
300003c4:	e5910020 	ldr	r0, [r1, #32]
300003c8:	e3c0380f 	bic	r3, r0, #983040	; 0xf0000
300003cc:	e3830801 	orr	r0, r3, #65536	; 0x10000
300003d0:	e5810020 	str	r0, [r1, #32]
300003d4:	e5913024 	ldr	r3, [r1, #36]	; 0x24
300003d8:	e3c30c01 	bic	r0, r3, #256	; 0x100
300003dc:	e5810024 	str	r0, [r1, #36]	; 0x24
300003e0:	e58d4004 	str	r4, [sp, #4]
300003e4:	e59d3004 	ldr	r3, [sp, #4]
300003e8:	e1530002 	cmp	r3, r2
300003ec:	ca000005 	bgt	30000408 <Key_Wait_Key_Pressed+0x60>
300003f0:	e59d3004 	ldr	r3, [sp, #4]
300003f4:	e2830001 	add	r0, r3, #1
300003f8:	e58d0004 	str	r0, [sp, #4]
300003fc:	e59d3004 	ldr	r3, [sp, #4]
30000400:	e1530002 	cmp	r3, r2
30000404:	dafffff9 	ble	300003f0 <Key_Wait_Key_Pressed+0x48>
30000408:	e5910054 	ldr	r0, [r1, #84]	; 0x54
3000040c:	e3100001 	tst	r0, #1
30000410:	0a00001d 	beq	3000048c <Key_Wait_Key_Pressed+0xe4>
30000414:	e5910054 	ldr	r0, [r1, #84]	; 0x54
30000418:	e1a03220 	lsr	r3, r0, #4
3000041c:	e203000f 	and	r0, r3, #15
30000420:	e350000f 	cmp	r0, #15
30000424:	0affffe6 	beq	300003c4 <Key_Wait_Key_Pressed+0x1c>
30000428:	e58d4004 	str	r4, [sp, #4]
3000042c:	e59d3004 	ldr	r3, [sp, #4]
30000430:	e153000c 	cmp	r3, ip
30000434:	ca000010 	bgt	3000047c <Key_Wait_Key_Pressed+0xd4>
30000438:	e5913054 	ldr	r3, [r1, #84]	; 0x54
3000043c:	e1a03223 	lsr	r3, r3, #4
30000440:	e203300f 	and	r3, r3, #15
30000444:	e1500003 	cmp	r0, r3
30000448:	0a000005 	beq	30000464 <Key_Wait_Key_Pressed+0xbc>
3000044c:	eaffffdc 	b	300003c4 <Key_Wait_Key_Pressed+0x1c>
30000450:	e5913054 	ldr	r3, [r1, #84]	; 0x54
30000454:	e1a03223 	lsr	r3, r3, #4
30000458:	e203300f 	and	r3, r3, #15
3000045c:	e1530000 	cmp	r3, r0
30000460:	1affffd7 	bne	300003c4 <Key_Wait_Key_Pressed+0x1c>
30000464:	e59d3004 	ldr	r3, [sp, #4]
30000468:	e2833001 	add	r3, r3, #1
3000046c:	e58d3004 	str	r3, [sp, #4]
30000470:	e59d3004 	ldr	r3, [sp, #4]
30000474:	e153000c 	cmp	r3, ip
30000478:	dafffff4 	ble	30000450 <Key_Wait_Key_Pressed+0xa8>
3000047c:	e7950100 	ldr	r0, [r5, r0, lsl #2]
30000480:	e3500000 	cmp	r0, #0
30000484:	0affffce 	beq	300003c4 <Key_Wait_Key_Pressed+0x1c>
30000488:	ea000000 	b	30000490 <Key_Wait_Key_Pressed+0xe8>
3000048c:	e3a00009 	mov	r0, #9
30000490:	e28dd008 	add	sp, sp, #8
30000494:	e8bd0030 	pop	{r4, r5}
30000498:	e12fff1e 	bx	lr
3000049c:	000fffff 	strdeq	pc, [pc], -pc
300004a0:	000003e7 	andeq	r0, r0, r7, ror #7
300004a4:	30008ce8 	andcc	r8, r0, r8, ror #25

300004a8 <Key_Wait_Key_Released>:
300004a8:	e92d0030 	push	{r4, r5}
300004ac:	e59f20d0 	ldr	r2, [pc, #208]	; 30000584 <Key_Wait_Key_Released+0xdc>
300004b0:	e59f00d0 	ldr	r0, [pc, #208]	; 30000588 <Key_Wait_Key_Released+0xe0>
300004b4:	e59f40d0 	ldr	r4, [pc, #208]	; 3000058c <Key_Wait_Key_Released+0xe4>
300004b8:	e24dd008 	sub	sp, sp, #8
300004bc:	e3a01456 	mov	r1, #1442840576	; 0x56000000
300004c0:	e3a0c000 	mov	ip, #0
300004c4:	e5915020 	ldr	r5, [r1, #32]
300004c8:	e3c5380f 	bic	r3, r5, #983040	; 0xf0000
300004cc:	e3835801 	orr	r5, r3, #65536	; 0x10000
300004d0:	e5815020 	str	r5, [r1, #32]
300004d4:	e5913024 	ldr	r3, [r1, #36]	; 0x24
300004d8:	e3c35c01 	bic	r5, r3, #256	; 0x100
300004dc:	e5815024 	str	r5, [r1, #36]	; 0x24
300004e0:	e58dc004 	str	ip, [sp, #4]
300004e4:	e59d3004 	ldr	r3, [sp, #4]
300004e8:	e1530002 	cmp	r3, r2
300004ec:	ca000005 	bgt	30000508 <Key_Wait_Key_Released+0x60>
300004f0:	e59d3004 	ldr	r3, [sp, #4]
300004f4:	e2835001 	add	r5, r3, #1
300004f8:	e58d5004 	str	r5, [sp, #4]
300004fc:	e59d3004 	ldr	r3, [sp, #4]
30000500:	e1530002 	cmp	r3, r2
30000504:	dafffff9 	ble	300004f0 <Key_Wait_Key_Released+0x48>
30000508:	e5915054 	ldr	r5, [r1, #84]	; 0x54
3000050c:	e3150001 	tst	r5, #1
30000510:	0affffeb 	beq	300004c4 <Key_Wait_Key_Released+0x1c>
30000514:	e5915054 	ldr	r5, [r1, #84]	; 0x54
30000518:	e1a03225 	lsr	r3, r5, #4
3000051c:	e203500f 	and	r5, r3, #15
30000520:	e355000f 	cmp	r5, #15
30000524:	0a00000f 	beq	30000568 <Key_Wait_Key_Released+0xc0>
30000528:	e58dc004 	str	ip, [sp, #4]
3000052c:	e59d3004 	ldr	r3, [sp, #4]
30000530:	e1530000 	cmp	r3, r0
30000534:	da000006 	ble	30000554 <Key_Wait_Key_Released+0xac>
30000538:	ea00000d 	b	30000574 <Key_Wait_Key_Released+0xcc>
3000053c:	e59d3004 	ldr	r3, [sp, #4]
30000540:	e2833001 	add	r3, r3, #1
30000544:	e58d3004 	str	r3, [sp, #4]
30000548:	e59d3004 	ldr	r3, [sp, #4]
3000054c:	e1530000 	cmp	r3, r0
30000550:	ca000007 	bgt	30000574 <Key_Wait_Key_Released+0xcc>
30000554:	e5913054 	ldr	r3, [r1, #84]	; 0x54
30000558:	e1a03223 	lsr	r3, r3, #4
3000055c:	e203300f 	and	r3, r3, #15
30000560:	e1550003 	cmp	r5, r3
30000564:	0afffff4 	beq	3000053c <Key_Wait_Key_Released+0x94>
30000568:	e28dd008 	add	sp, sp, #8
3000056c:	e8bd0030 	pop	{r4, r5}
30000570:	e12fff1e 	bx	lr
30000574:	e7943105 	ldr	r3, [r4, r5, lsl #2]
30000578:	e3530000 	cmp	r3, #0
3000057c:	1affffd0 	bne	300004c4 <Key_Wait_Key_Released+0x1c>
30000580:	eafffff8 	b	30000568 <Key_Wait_Key_Released+0xc0>
30000584:	000fffff 	strdeq	pc, [pc], -pc
30000588:	000003e7 	andeq	r0, r0, r7, ror #7
3000058c:	30008ce8 	andcc	r8, r0, r8, ror #25

30000590 <Key_Wait_Key_Released_Multi>:
30000590:	e92d0030 	push	{r4, r5}
30000594:	e59f30fc 	ldr	r3, [pc, #252]	; 30000698 <Key_Wait_Key_Released_Multi+0x108>
30000598:	e24dd008 	sub	sp, sp, #8
3000059c:	e3a01456 	mov	r1, #1442840576	; 0x56000000
300005a0:	e3a00000 	mov	r0, #0
300005a4:	e5914020 	ldr	r4, [r1, #32]
300005a8:	e3c4280f 	bic	r2, r4, #983040	; 0xf0000
300005ac:	e382c801 	orr	ip, r2, #65536	; 0x10000
300005b0:	e581c020 	str	ip, [r1, #32]
300005b4:	e5915024 	ldr	r5, [r1, #36]	; 0x24
300005b8:	e3c54c01 	bic	r4, r5, #256	; 0x100
300005bc:	e5814024 	str	r4, [r1, #36]	; 0x24
300005c0:	e58d0004 	str	r0, [sp, #4]
300005c4:	e59d2004 	ldr	r2, [sp, #4]
300005c8:	e1520003 	cmp	r2, r3
300005cc:	ca000005 	bgt	300005e8 <Key_Wait_Key_Released_Multi+0x58>
300005d0:	e59d2004 	ldr	r2, [sp, #4]
300005d4:	e282c001 	add	ip, r2, #1
300005d8:	e58dc004 	str	ip, [sp, #4]
300005dc:	e59d5004 	ldr	r5, [sp, #4]
300005e0:	e1550003 	cmp	r5, r3
300005e4:	dafffff9 	ble	300005d0 <Key_Wait_Key_Released_Multi+0x40>
300005e8:	e5915054 	ldr	r5, [r1, #84]	; 0x54
300005ec:	e58d0004 	str	r0, [sp, #4]
300005f0:	e59d4004 	ldr	r4, [sp, #4]
300005f4:	e1540003 	cmp	r4, r3
300005f8:	ca000005 	bgt	30000614 <Key_Wait_Key_Released_Multi+0x84>
300005fc:	e59d4004 	ldr	r4, [sp, #4]
30000600:	e2842001 	add	r2, r4, #1
30000604:	e58d2004 	str	r2, [sp, #4]
30000608:	e59dc004 	ldr	ip, [sp, #4]
3000060c:	e15c0003 	cmp	ip, r3
30000610:	dafffff9 	ble	300005fc <Key_Wait_Key_Released_Multi+0x6c>
30000614:	e5914054 	ldr	r4, [r1, #84]	; 0x54
30000618:	e58d0004 	str	r0, [sp, #4]
3000061c:	e59dc004 	ldr	ip, [sp, #4]
30000620:	e15c0003 	cmp	ip, r3
30000624:	ca000005 	bgt	30000640 <Key_Wait_Key_Released_Multi+0xb0>
30000628:	e59d2004 	ldr	r2, [sp, #4]
3000062c:	e282c001 	add	ip, r2, #1
30000630:	e58dc004 	str	ip, [sp, #4]
30000634:	e59d2004 	ldr	r2, [sp, #4]
30000638:	e1520003 	cmp	r2, r3
3000063c:	dafffff9 	ble	30000628 <Key_Wait_Key_Released_Multi+0x98>
30000640:	e591c020 	ldr	ip, [r1, #32]
30000644:	e1a02225 	lsr	r2, r5, #4
30000648:	e3ccc80f 	bic	ip, ip, #983040	; 0xf0000
3000064c:	e38cc701 	orr	ip, ip, #262144	; 0x40000
30000650:	e581c020 	str	ip, [r1, #32]
30000654:	e591c024 	ldr	ip, [r1, #36]	; 0x24
30000658:	e202200f 	and	r2, r2, #15
3000065c:	e3cccc02 	bic	ip, ip, #512	; 0x200
30000660:	e581c024 	str	ip, [r1, #36]	; 0x24
30000664:	e591c054 	ldr	ip, [r1, #84]	; 0x54
30000668:	e2044001 	and	r4, r4, #1
3000066c:	e20cc0f0 	and	ip, ip, #240	; 0xf0
30000670:	e1822404 	orr	r2, r2, r4, lsl #8
30000674:	e182200c 	orr	r2, r2, ip
30000678:	e1e0c002 	mvn	ip, r2
3000067c:	e1a02b8c 	lsl	r2, ip, #23
30000680:	e1a0cba2 	lsr	ip, r2, #23
30000684:	e35c0000 	cmp	ip, #0
30000688:	1affffc5 	bne	300005a4 <Key_Wait_Key_Released_Multi+0x14>
3000068c:	e28dd008 	add	sp, sp, #8
30000690:	e8bd0030 	pop	{r4, r5}
30000694:	e12fff1e 	bx	lr
30000698:	000fffff 	strdeq	pc, [pc], -pc

3000069c <Key_Wait_Key_Pressed_Multi>:
3000069c:	e52d4004 	push	{r4}		; (str r4, [sp, #-4]!)
300006a0:	e59f30fc 	ldr	r3, [pc, #252]	; 300007a4 <Key_Wait_Key_Pressed_Multi+0x108>
300006a4:	e24dd00c 	sub	sp, sp, #12
300006a8:	e3a01456 	mov	r1, #1442840576	; 0x56000000
300006ac:	e3a0c000 	mov	ip, #0
300006b0:	e5914020 	ldr	r4, [r1, #32]
300006b4:	e3c4080f 	bic	r0, r4, #983040	; 0xf0000
300006b8:	e3802801 	orr	r2, r0, #65536	; 0x10000
300006bc:	e5812020 	str	r2, [r1, #32]
300006c0:	e5914024 	ldr	r4, [r1, #36]	; 0x24
300006c4:	e3c40c01 	bic	r0, r4, #256	; 0x100
300006c8:	e5810024 	str	r0, [r1, #36]	; 0x24
300006cc:	e58dc004 	str	ip, [sp, #4]
300006d0:	e59d2004 	ldr	r2, [sp, #4]
300006d4:	e1520003 	cmp	r2, r3
300006d8:	ca000005 	bgt	300006f4 <Key_Wait_Key_Pressed_Multi+0x58>
300006dc:	e59d4004 	ldr	r4, [sp, #4]
300006e0:	e2840001 	add	r0, r4, #1
300006e4:	e58d0004 	str	r0, [sp, #4]
300006e8:	e59d2004 	ldr	r2, [sp, #4]
300006ec:	e1520003 	cmp	r2, r3
300006f0:	dafffff9 	ble	300006dc <Key_Wait_Key_Pressed_Multi+0x40>
300006f4:	e5910054 	ldr	r0, [r1, #84]	; 0x54
300006f8:	e58dc004 	str	ip, [sp, #4]
300006fc:	e59d2004 	ldr	r2, [sp, #4]
30000700:	e1520003 	cmp	r2, r3
30000704:	ca000005 	bgt	30000720 <Key_Wait_Key_Pressed_Multi+0x84>
30000708:	e59d4004 	ldr	r4, [sp, #4]
3000070c:	e2842001 	add	r2, r4, #1
30000710:	e58d2004 	str	r2, [sp, #4]
30000714:	e59d4004 	ldr	r4, [sp, #4]
30000718:	e1540003 	cmp	r4, r3
3000071c:	dafffff9 	ble	30000708 <Key_Wait_Key_Pressed_Multi+0x6c>
30000720:	e5914054 	ldr	r4, [r1, #84]	; 0x54
30000724:	e58dc004 	str	ip, [sp, #4]
30000728:	e59d2004 	ldr	r2, [sp, #4]
3000072c:	e1520003 	cmp	r2, r3
30000730:	ca000005 	bgt	3000074c <Key_Wait_Key_Pressed_Multi+0xb0>
30000734:	e59d2004 	ldr	r2, [sp, #4]
30000738:	e2822001 	add	r2, r2, #1
3000073c:	e58d2004 	str	r2, [sp, #4]
30000740:	e59d2004 	ldr	r2, [sp, #4]
30000744:	e1520003 	cmp	r2, r3
30000748:	dafffff9 	ble	30000734 <Key_Wait_Key_Pressed_Multi+0x98>
3000074c:	e5912020 	ldr	r2, [r1, #32]
30000750:	e1a00220 	lsr	r0, r0, #4
30000754:	e3c2280f 	bic	r2, r2, #983040	; 0xf0000
30000758:	e3822701 	orr	r2, r2, #262144	; 0x40000
3000075c:	e5812020 	str	r2, [r1, #32]
30000760:	e5912024 	ldr	r2, [r1, #36]	; 0x24
30000764:	e200000f 	and	r0, r0, #15
30000768:	e3c22c02 	bic	r2, r2, #512	; 0x200
3000076c:	e5812024 	str	r2, [r1, #36]	; 0x24
30000770:	e5912054 	ldr	r2, [r1, #84]	; 0x54
30000774:	e2044001 	and	r4, r4, #1
30000778:	e20220f0 	and	r2, r2, #240	; 0xf0
3000077c:	e1800404 	orr	r0, r0, r4, lsl #8
30000780:	e1800002 	orr	r0, r0, r2
30000784:	e1e02000 	mvn	r2, r0
30000788:	e1a00b82 	lsl	r0, r2, #23
3000078c:	e1a00ba0 	lsr	r0, r0, #23
30000790:	e3500000 	cmp	r0, #0
30000794:	0affffc5 	beq	300006b0 <Key_Wait_Key_Pressed_Multi+0x14>
30000798:	e28dd00c 	add	sp, sp, #12
3000079c:	e49d4004 	pop	{r4}		; (ldr r4, [sp], #4)
300007a0:	e12fff1e 	bx	lr
300007a4:	000fffff 	strdeq	pc, [pc], -pc

300007a8 <Led_Init>:
300007a8:	e3a03456 	mov	r3, #1442840576	; 0x56000000
300007ac:	e5932010 	ldr	r2, [r3, #16]
300007b0:	e3c2c9ff 	bic	ip, r2, #4177920	; 0x3fc000
300007b4:	e38c1955 	orr	r1, ip, #1392640	; 0x154000
300007b8:	e5831010 	str	r1, [r3, #16]
300007bc:	e5930014 	ldr	r0, [r3, #20]
300007c0:	e3802d1e 	orr	r2, r0, #1920	; 0x780
300007c4:	e5832014 	str	r2, [r3, #20]
300007c8:	e12fff1e 	bx	lr

300007cc <Led_Display>:
300007cc:	e3a03456 	mov	r3, #1442840576	; 0x56000000
300007d0:	e593c014 	ldr	ip, [r3, #20]
300007d4:	e1e02000 	mvn	r2, r0
300007d8:	e202000f 	and	r0, r2, #15
300007dc:	e3cc1d1e 	bic	r1, ip, #1920	; 0x780
300007e0:	e1812380 	orr	r2, r1, r0, lsl #7
300007e4:	e5832014 	str	r2, [r3, #20]
300007e8:	e12fff1e 	bx	lr

300007ec <chk_c>:
300007ec:	e1a02130 	lsr	r2, r0, r1
300007f0:	e2020001 	and	r0, r2, #1
300007f4:	e2200001 	eor	r0, r0, #1
300007f8:	e12fff1e 	bx	lr

300007fc <chk_s>:
300007fc:	e1a00130 	lsr	r0, r0, r1
30000800:	e2000001 	and	r0, r0, #1
30000804:	e12fff1e 	bx	lr

30000808 <Main>:
30000808:	e1a0c00d 	mov	ip, sp
3000080c:	e92dd810 	push	{r4, fp, ip, lr, pc}
30000810:	e24cb004 	sub	fp, ip, #4
30000814:	e24dd00c 	sub	sp, sp, #12
30000818:	e59f0040 	ldr	r0, [pc, #64]	; 30000860 <Main+0x58>
3000081c:	eb000012 	bl	3000086c <Uart_Init>
30000820:	ebffffe0 	bl	300007a8 <Led_Init>
30000824:	e59f0038 	ldr	r0, [pc, #56]	; 30000864 <Main+0x5c>
30000828:	eb000059 	bl	30000994 <Uart_Printf>
3000082c:	ebfffe4d 	bl	30000168 <Key_Poll_Init>
30000830:	e3a04456 	mov	r4, #1442840576	; 0x56000000
30000834:	ebfffe56 	bl	30000194 <Key_Get_Pressed>
30000838:	e50b0018 	str	r0, [fp, #-24]
3000083c:	e51b1018 	ldr	r1, [fp, #-24]
30000840:	e5943054 	ldr	r3, [r4, #84]	; 0x54
30000844:	e51bc018 	ldr	ip, [fp, #-24]
30000848:	e28c0003 	add	r0, ip, #3
3000084c:	e1a02033 	lsr	r2, r3, r0
30000850:	e59f0010 	ldr	r0, [pc, #16]	; 30000868 <Main+0x60>
30000854:	e2022001 	and	r2, r2, #1
30000858:	eb00004d 	bl	30000994 <Uart_Printf>
3000085c:	eafffff4 	b	30000834 <Main+0x2c>
30000860:	0001c200 	andeq	ip, r1, r0, lsl #4
30000864:	30008c58 	andcc	r8, r0, r8, asr ip
30000868:	30008c70 	andcc	r8, r0, r0, ror ip

3000086c <Uart_Init>:
3000086c:	e1a0c00d 	mov	ip, sp
30000870:	e92dd818 	push	{r3, r4, fp, ip, lr, pc}
30000874:	e3a02456 	mov	r2, #1442840576	; 0x56000000
30000878:	e5923070 	ldr	r3, [r2, #112]	; 0x70
3000087c:	e24cb004 	sub	fp, ip, #4
30000880:	e3c340f0 	bic	r4, r3, #240	; 0xf0
30000884:	e59f305c 	ldr	r3, [pc, #92]	; 300008e8 <Uart_Init+0x7c>
30000888:	e384e0a0 	orr	lr, r4, #160	; 0xa0
3000088c:	e3a0c000 	mov	ip, #0
30000890:	e3a04205 	mov	r4, #1342177280	; 0x50000000
30000894:	e3a01003 	mov	r1, #3
30000898:	e582e070 	str	lr, [r2, #112]	; 0x70
3000089c:	e584c008 	str	ip, [r4, #8]
300008a0:	e584c00c 	str	ip, [r4, #12]
300008a4:	e5841000 	str	r1, [r4]
300008a8:	e5843004 	str	r3, [r4, #4]
300008ac:	eb001c37 	bl	30007990 <__aeabi_i2d>
300008b0:	e1a02000 	mov	r2, r0
300008b4:	e1a03001 	mov	r3, r1
300008b8:	e3a0020d 	mov	r0, #-805306368	; 0xd0000000
300008bc:	e59f1028 	ldr	r1, [pc, #40]	; 300008ec <Uart_Init+0x80>
300008c0:	eb001d0d 	bl	30007cfc <__aeabi_ddiv>
300008c4:	e3a02000 	mov	r2, #0
300008c8:	e59f3020 	ldr	r3, [pc, #32]	; 300008f0 <Uart_Init+0x84>
300008cc:	eb001b62 	bl	3000765c <__adddf3>
300008d0:	eb001df4 	bl	300080a8 <__aeabi_d2uiz>
300008d4:	e2400001 	sub	r0, r0, #1
300008d8:	e5840028 	str	r0, [r4, #40]	; 0x28
300008dc:	e24bd014 	sub	sp, fp, #20
300008e0:	e89d6818 	ldm	sp, {r3, r4, fp, sp, lr}
300008e4:	e12fff1e 	bx	lr
300008e8:	00000245 	andeq	r0, r0, r5, asr #4
300008ec:	4147d22c 	cmpmi	r7, ip, lsr #4
300008f0:	3fe00000 	svccc	0x00e00000

300008f4 <Uart_Send_Byte>:
300008f4:	e350000a 	cmp	r0, #10
300008f8:	0a000006 	beq	30000918 <Uart_Send_Byte+0x24>
300008fc:	e3a02205 	mov	r2, #1342177280	; 0x50000000
30000900:	e592c010 	ldr	ip, [r2, #16]
30000904:	e31c0002 	tst	ip, #2
30000908:	0afffffc 	beq	30000900 <Uart_Send_Byte+0xc>
3000090c:	e3a03205 	mov	r3, #1342177280	; 0x50000000
30000910:	e5c30020 	strb	r0, [r3, #32]
30000914:	e12fff1e 	bx	lr
30000918:	e3a02205 	mov	r2, #1342177280	; 0x50000000
3000091c:	e5923010 	ldr	r3, [r2, #16]
30000920:	e3130002 	tst	r3, #2
30000924:	0afffffc 	beq	3000091c <Uart_Send_Byte+0x28>
30000928:	e3a0200d 	mov	r2, #13
3000092c:	e3a01205 	mov	r1, #1342177280	; 0x50000000
30000930:	e5c12020 	strb	r2, [r1, #32]
30000934:	eafffff0 	b	300008fc <Uart_Send_Byte+0x8>

30000938 <Uart_Send_String>:
30000938:	e5d01000 	ldrb	r1, [r0]
3000093c:	e52d4004 	push	{r4}		; (str r4, [sp, #-4]!)
30000940:	e3510000 	cmp	r1, #0
30000944:	0a00000b 	beq	30000978 <Uart_Send_String+0x40>
30000948:	e3a02205 	mov	r2, #1342177280	; 0x50000000
3000094c:	e1a0c002 	mov	ip, r2
30000950:	e3a0400d 	mov	r4, #13
30000954:	e351000a 	cmp	r1, #10
30000958:	0a000008 	beq	30000980 <Uart_Send_String+0x48>
3000095c:	e5923010 	ldr	r3, [r2, #16]
30000960:	e3130002 	tst	r3, #2
30000964:	0afffffc 	beq	3000095c <Uart_Send_String+0x24>
30000968:	e5cc1020 	strb	r1, [ip, #32]
3000096c:	e5f01001 	ldrb	r1, [r0, #1]!
30000970:	e3510000 	cmp	r1, #0
30000974:	1afffff6 	bne	30000954 <Uart_Send_String+0x1c>
30000978:	e49d4004 	pop	{r4}		; (ldr r4, [sp], #4)
3000097c:	e12fff1e 	bx	lr
30000980:	e5923010 	ldr	r3, [r2, #16]
30000984:	e3130002 	tst	r3, #2
30000988:	0afffffc 	beq	30000980 <Uart_Send_String+0x48>
3000098c:	e5cc4020 	strb	r4, [ip, #32]
30000990:	eafffff1 	b	3000095c <Uart_Send_String+0x24>

30000994 <Uart_Printf>:
30000994:	e1a0c00d 	mov	ip, sp
30000998:	e92d000f 	push	{r0, r1, r2, r3}
3000099c:	e92dd810 	push	{r4, fp, ip, lr, pc}
300009a0:	e24cb014 	sub	fp, ip, #20
300009a4:	e24ddf43 	sub	sp, sp, #268	; 0x10c
300009a8:	e28b3008 	add	r3, fp, #8
300009ac:	e24b4f46 	sub	r4, fp, #280	; 0x118
300009b0:	e59b1004 	ldr	r1, [fp, #4]
300009b4:	e1a02003 	mov	r2, r3
300009b8:	e1a00004 	mov	r0, r4
300009bc:	e50b3018 	str	r3, [fp, #-24]
300009c0:	eb000330 	bl	30001688 <vsprintf>
300009c4:	e55b1118 	ldrb	r1, [fp, #-280]	; 0x118
300009c8:	e3510000 	cmp	r1, #0
300009cc:	0a00000b 	beq	30000a00 <Uart_Printf+0x6c>
300009d0:	e3a02205 	mov	r2, #1342177280	; 0x50000000
300009d4:	e1a00002 	mov	r0, r2
300009d8:	e3a0c00d 	mov	ip, #13
300009dc:	e351000a 	cmp	r1, #10
300009e0:	0a000009 	beq	30000a0c <Uart_Printf+0x78>
300009e4:	e5923010 	ldr	r3, [r2, #16]
300009e8:	e3130002 	tst	r3, #2
300009ec:	0afffffc 	beq	300009e4 <Uart_Printf+0x50>
300009f0:	e5c01020 	strb	r1, [r0, #32]
300009f4:	e5f41001 	ldrb	r1, [r4, #1]!
300009f8:	e3510000 	cmp	r1, #0
300009fc:	1afffff6 	bne	300009dc <Uart_Printf+0x48>
30000a00:	e24bd010 	sub	sp, fp, #16
30000a04:	e89d6810 	ldm	sp, {r4, fp, sp, lr}
30000a08:	e12fff1e 	bx	lr
30000a0c:	e592e010 	ldr	lr, [r2, #16]
30000a10:	e31e0002 	tst	lr, #2
30000a14:	0afffffc 	beq	30000a0c <Uart_Printf+0x78>
30000a18:	e5c0c020 	strb	ip, [r0, #32]
30000a1c:	eafffff0 	b	300009e4 <Uart_Printf+0x50>

30000a20 <MMU_SetMTT>:
30000a20:	e1a00a20 	lsr	r0, r0, #20
30000a24:	e92d05f0 	push	{r4, r5, r6, r7, r8, sl}
30000a28:	e1a04100 	lsl	r4, r0, #2
30000a2c:	e0601a21 	rsb	r1, r0, r1, lsr #20
30000a30:	e284c5c5 	add	ip, r4, #826277888	; 0x31400000
30000a34:	e1a02a22 	lsr	r2, r2, #20
30000a38:	e1830a02 	orr	r0, r3, r2, lsl #20
30000a3c:	e28cc9ff 	add	ip, ip, #4177920	; 0x3fc000
30000a40:	e3510001 	cmp	r1, #1
30000a44:	e58c0000 	str	r0, [ip]
30000a48:	e2014003 	and	r4, r1, #3
30000a4c:	e3a00001 	mov	r0, #1
30000a50:	3a000024 	bcc	30000ae8 <MMU_SetMTT+0xc8>
30000a54:	e3540000 	cmp	r4, #0
30000a58:	0a000010 	beq	30000aa0 <MMU_SetMTT+0x80>
30000a5c:	e3540001 	cmp	r4, #1
30000a60:	0a000008 	beq	30000a88 <MMU_SetMTT+0x68>
30000a64:	e3540002 	cmp	r4, #2
30000a68:	12820001 	addne	r0, r2, #1
30000a6c:	11830a00 	orrne	r0, r3, r0, lsl #20
30000a70:	158c0004 	strne	r0, [ip, #4]
30000a74:	13a00002 	movne	r0, #2
30000a78:	e0804002 	add	r4, r0, r2
30000a7c:	e1834a04 	orr	r4, r3, r4, lsl #20
30000a80:	e78c4100 	str	r4, [ip, r0, lsl #2]
30000a84:	e2800001 	add	r0, r0, #1
30000a88:	e0804002 	add	r4, r0, r2
30000a8c:	e1834a04 	orr	r4, r3, r4, lsl #20
30000a90:	e78c4100 	str	r4, [ip, r0, lsl #2]
30000a94:	e2800001 	add	r0, r0, #1
30000a98:	e1510000 	cmp	r1, r0
30000a9c:	3a000011 	bcc	30000ae8 <MMU_SetMTT+0xc8>
30000aa0:	e2804001 	add	r4, r0, #1
30000aa4:	e0805002 	add	r5, r0, r2
30000aa8:	e1837a05 	orr	r7, r3, r5, lsl #20
30000aac:	e2846001 	add	r6, r4, #1
30000ab0:	e2805003 	add	r5, r0, #3
30000ab4:	e78c7100 	str	r7, [ip, r0, lsl #2]
30000ab8:	e084a002 	add	sl, r4, r2
30000abc:	e2800004 	add	r0, r0, #4
30000ac0:	e0868002 	add	r8, r6, r2
30000ac4:	e0857002 	add	r7, r5, r2
30000ac8:	e183aa0a 	orr	sl, r3, sl, lsl #20
30000acc:	e1838a08 	orr	r8, r3, r8, lsl #20
30000ad0:	e1837a07 	orr	r7, r3, r7, lsl #20
30000ad4:	e1510000 	cmp	r1, r0
30000ad8:	e78ca104 	str	sl, [ip, r4, lsl #2]
30000adc:	e78c8106 	str	r8, [ip, r6, lsl #2]
30000ae0:	e78c7105 	str	r7, [ip, r5, lsl #2]
30000ae4:	2affffed 	bcs	30000aa0 <MMU_SetMTT+0x80>
30000ae8:	e8bd05f0 	pop	{r4, r5, r6, r7, r8, sl}
30000aec:	e12fff1e 	bx	lr

30000af0 <MMU_Init>:
30000af0:	e1a0c00d 	mov	ip, sp
30000af4:	e92dd8f0 	push	{r4, r5, r6, r7, fp, ip, lr, pc}
30000af8:	e24cb004 	sub	fp, ip, #4
30000afc:	eb0001ce 	bl	3000123c <MMU_DisableDCache>
30000b00:	eb0001c5 	bl	3000121c <MMU_DisableICache>
30000b04:	e3a05000 	mov	r5, #0
30000b08:	e1a06d05 	lsl	r6, r5, #26
30000b0c:	e1a00006 	mov	r0, r6
30000b10:	eb0001fb 	bl	30001304 <MMU_CleanInvalidateDCacheIndex>
30000b14:	e3860020 	orr	r0, r6, #32
30000b18:	eb0001f9 	bl	30001304 <MMU_CleanInvalidateDCacheIndex>
30000b1c:	e3860040 	orr	r0, r6, #64	; 0x40
30000b20:	eb0001f7 	bl	30001304 <MMU_CleanInvalidateDCacheIndex>
30000b24:	e3860060 	orr	r0, r6, #96	; 0x60
30000b28:	eb0001f5 	bl	30001304 <MMU_CleanInvalidateDCacheIndex>
30000b2c:	e3860080 	orr	r0, r6, #128	; 0x80
30000b30:	eb0001f3 	bl	30001304 <MMU_CleanInvalidateDCacheIndex>
30000b34:	e38600a0 	orr	r0, r6, #160	; 0xa0
30000b38:	eb0001f1 	bl	30001304 <MMU_CleanInvalidateDCacheIndex>
30000b3c:	e2855001 	add	r5, r5, #1
30000b40:	e38600c0 	orr	r0, r6, #192	; 0xc0
30000b44:	e1a04d05 	lsl	r4, r5, #26
30000b48:	eb0001ed 	bl	30001304 <MMU_CleanInvalidateDCacheIndex>
30000b4c:	e38600e0 	orr	r0, r6, #224	; 0xe0
30000b50:	eb0001eb 	bl	30001304 <MMU_CleanInvalidateDCacheIndex>
30000b54:	e1a00004 	mov	r0, r4
30000b58:	eb0001e9 	bl	30001304 <MMU_CleanInvalidateDCacheIndex>
30000b5c:	e3840020 	orr	r0, r4, #32
30000b60:	eb0001e7 	bl	30001304 <MMU_CleanInvalidateDCacheIndex>
30000b64:	e3840040 	orr	r0, r4, #64	; 0x40
30000b68:	eb0001e5 	bl	30001304 <MMU_CleanInvalidateDCacheIndex>
30000b6c:	e3840060 	orr	r0, r4, #96	; 0x60
30000b70:	eb0001e3 	bl	30001304 <MMU_CleanInvalidateDCacheIndex>
30000b74:	e3840080 	orr	r0, r4, #128	; 0x80
30000b78:	eb0001e1 	bl	30001304 <MMU_CleanInvalidateDCacheIndex>
30000b7c:	e38400a0 	orr	r0, r4, #160	; 0xa0
30000b80:	eb0001df 	bl	30001304 <MMU_CleanInvalidateDCacheIndex>
30000b84:	e38400c0 	orr	r0, r4, #192	; 0xc0
30000b88:	eb0001dd 	bl	30001304 <MMU_CleanInvalidateDCacheIndex>
30000b8c:	e2855001 	add	r5, r5, #1
30000b90:	e38400e0 	orr	r0, r4, #224	; 0xe0
30000b94:	eb0001da 	bl	30001304 <MMU_CleanInvalidateDCacheIndex>
30000b98:	e3550040 	cmp	r5, #64	; 0x40
30000b9c:	1affffd9 	bne	30000b08 <MMU_Init+0x18>
30000ba0:	eb0001c7 	bl	300012c4 <MMU_InvalidateICache>
30000ba4:	e59f555c 	ldr	r5, [pc, #1372]	; 30001108 <MMU_Init+0x618>
30000ba8:	eb000197 	bl	3000120c <MMU_EnableICache>
30000bac:	eb0001b2 	bl	3000127c <MMU_DisableMMU>
30000bb0:	eb0001d7 	bl	30001314 <MMU_InvalidateTLB>
30000bb4:	e59f3550 	ldr	r3, [pc, #1360]	; 3000110c <MMU_Init+0x61c>
30000bb8:	e3a02c03 	mov	r2, #768	; 0x300
30000bbc:	e2820001 	add	r0, r2, #1
30000bc0:	e1a04a02 	lsl	r4, r2, #20
30000bc4:	e1a0ea00 	lsl	lr, r0, #20
30000bc8:	e280c001 	add	ip, r0, #1
30000bcc:	e2821003 	add	r1, r2, #3
30000bd0:	e1a00a0c 	lsl	r0, ip, #20
30000bd4:	e3846ec1 	orr	r6, r4, #3088	; 0xc10
30000bd8:	e38e7ec1 	orr	r7, lr, #3088	; 0xc10
30000bdc:	e1a01a01 	lsl	r1, r1, #20
30000be0:	e3864002 	orr	r4, r6, #2
30000be4:	e387e002 	orr	lr, r7, #2
30000be8:	e3806ec1 	orr	r6, r0, #3088	; 0xc10
30000bec:	e3817ec1 	orr	r7, r1, #3088	; 0xc10
30000bf0:	e1a00003 	mov	r0, r3
30000bf4:	e5034004 	str	r4, [r3, #-4]
30000bf8:	e386c002 	orr	ip, r6, #2
30000bfc:	e480e004 	str	lr, [r0], #4
30000c00:	e3871002 	orr	r1, r7, #2
30000c04:	e580c000 	str	ip, [r0]
30000c08:	e5831008 	str	r1, [r3, #8]
30000c0c:	e2833010 	add	r3, r3, #16
30000c10:	e1530005 	cmp	r3, r5
30000c14:	e2822004 	add	r2, r2, #4
30000c18:	1affffe7 	bne	30000bbc <MMU_Init+0xcc>
30000c1c:	e59f54ec 	ldr	r5, [pc, #1260]	; 30001110 <MMU_Init+0x620>
30000c20:	e3a02080 	mov	r2, #128	; 0x80
30000c24:	e2826001 	add	r6, r2, #1
30000c28:	e1a07a02 	lsl	r7, r2, #20
30000c2c:	e2821003 	add	r1, r2, #3
30000c30:	e1a0ea06 	lsl	lr, r6, #20
30000c34:	e286c001 	add	ip, r6, #1
30000c38:	e1a06a0c 	lsl	r6, ip, #20
30000c3c:	e3874ec3 	orr	r4, r7, #3120	; 0xc30
30000c40:	e38e0ec3 	orr	r0, lr, #3120	; 0xc30
30000c44:	e1a07a01 	lsl	r7, r1, #20
30000c48:	e380e002 	orr	lr, r0, #2
30000c4c:	e3844002 	orr	r4, r4, #2
30000c50:	e3860ec3 	orr	r0, r6, #3120	; 0xc30
30000c54:	e3871ec3 	orr	r1, r7, #3120	; 0xc30
30000c58:	e1a06003 	mov	r6, r3
30000c5c:	e5034004 	str	r4, [r3, #-4]
30000c60:	e380c002 	orr	ip, r0, #2
30000c64:	e486e004 	str	lr, [r6], #4
30000c68:	e3817002 	orr	r7, r1, #2
30000c6c:	e586c000 	str	ip, [r6]
30000c70:	e5837008 	str	r7, [r3, #8]
30000c74:	e2833010 	add	r3, r3, #16
30000c78:	e1530005 	cmp	r3, r5
30000c7c:	e2822004 	add	r2, r2, #4
30000c80:	1affffe7 	bne	30000c24 <MMU_Init+0x134>
30000c84:	e59f5488 	ldr	r5, [pc, #1160]	; 30001114 <MMU_Init+0x624>
30000c88:	e3a02c01 	mov	r2, #256	; 0x100
30000c8c:	e282c001 	add	ip, r2, #1
30000c90:	e1a00a02 	lsl	r0, r2, #20
30000c94:	e2821003 	add	r1, r2, #3
30000c98:	e1a0ea0c 	lsl	lr, ip, #20
30000c9c:	e28c6001 	add	r6, ip, #1
30000ca0:	e3804ec3 	orr	r4, r0, #3120	; 0xc30
30000ca4:	e1a0ca06 	lsl	ip, r6, #20
30000ca8:	e38e7ec3 	orr	r7, lr, #3120	; 0xc30
30000cac:	e1a00a01 	lsl	r0, r1, #20
30000cb0:	e3846002 	orr	r6, r4, #2
30000cb4:	e387e002 	orr	lr, r7, #2
30000cb8:	e3801ec3 	orr	r1, r0, #3120	; 0xc30
30000cbc:	e38c7ec3 	orr	r7, ip, #3120	; 0xc30
30000cc0:	e1a00003 	mov	r0, r3
30000cc4:	e5036004 	str	r6, [r3, #-4]
30000cc8:	e387c002 	orr	ip, r7, #2
30000ccc:	e480e004 	str	lr, [r0], #4
30000cd0:	e3814002 	orr	r4, r1, #2
30000cd4:	e580c000 	str	ip, [r0]
30000cd8:	e5834008 	str	r4, [r3, #8]
30000cdc:	e2833010 	add	r3, r3, #16
30000ce0:	e1530005 	cmp	r3, r5
30000ce4:	e2822004 	add	r2, r2, #4
30000ce8:	1affffe7 	bne	30000c8c <MMU_Init+0x19c>
30000cec:	e59f5424 	ldr	r5, [pc, #1060]	; 30001118 <MMU_Init+0x628>
30000cf0:	e3a02d06 	mov	r2, #384	; 0x180
30000cf4:	e282c001 	add	ip, r2, #1
30000cf8:	e1a06a02 	lsl	r6, r2, #20
30000cfc:	e2821003 	add	r1, r2, #3
30000d00:	e1a0ea0c 	lsl	lr, ip, #20
30000d04:	e28c7001 	add	r7, ip, #1
30000d08:	e3864ec3 	orr	r4, r6, #3120	; 0xc30
30000d0c:	e38e0ec3 	orr	r0, lr, #3120	; 0xc30
30000d10:	e1a0ca07 	lsl	ip, r7, #20
30000d14:	e1a06a01 	lsl	r6, r1, #20
30000d18:	e3847002 	orr	r7, r4, #2
30000d1c:	e380e002 	orr	lr, r0, #2
30000d20:	e3861ec3 	orr	r1, r6, #3120	; 0xc30
30000d24:	e38c0ec3 	orr	r0, ip, #3120	; 0xc30
30000d28:	e1a06003 	mov	r6, r3
30000d2c:	e5037004 	str	r7, [r3, #-4]
30000d30:	e3804002 	orr	r4, r0, #2
30000d34:	e486e004 	str	lr, [r6], #4
30000d38:	e3817002 	orr	r7, r1, #2
30000d3c:	e5864000 	str	r4, [r6]
30000d40:	e5837008 	str	r7, [r3, #8]
30000d44:	e2833010 	add	r3, r3, #16
30000d48:	e1530005 	cmp	r3, r5
30000d4c:	e2822004 	add	r2, r2, #4
30000d50:	1affffe7 	bne	30000cf4 <MMU_Init+0x204>
30000d54:	e59f53c0 	ldr	r5, [pc, #960]	; 3000111c <MMU_Init+0x62c>
30000d58:	e3a02c02 	mov	r2, #512	; 0x200
30000d5c:	e282c001 	add	ip, r2, #1
30000d60:	e1a04a02 	lsl	r4, r2, #20
30000d64:	e2821003 	add	r1, r2, #3
30000d68:	e1a0ea0c 	lsl	lr, ip, #20
30000d6c:	e28c0001 	add	r0, ip, #1
30000d70:	e3846ec3 	orr	r6, r4, #3120	; 0xc30
30000d74:	e38e7ec3 	orr	r7, lr, #3120	; 0xc30
30000d78:	e1a0ca00 	lsl	ip, r0, #20
30000d7c:	e1a00a01 	lsl	r0, r1, #20
30000d80:	e3864002 	orr	r4, r6, #2
30000d84:	e387e002 	orr	lr, r7, #2
30000d88:	e3801ec3 	orr	r1, r0, #3120	; 0xc30
30000d8c:	e38c6ec3 	orr	r6, ip, #3120	; 0xc30
30000d90:	e1a00003 	mov	r0, r3
30000d94:	e5034004 	str	r4, [r3, #-4]
30000d98:	e3867002 	orr	r7, r6, #2
30000d9c:	e480e004 	str	lr, [r0], #4
30000da0:	e3814002 	orr	r4, r1, #2
30000da4:	e5807000 	str	r7, [r0]
30000da8:	e5834008 	str	r4, [r3, #8]
30000dac:	e2833010 	add	r3, r3, #16
30000db0:	e1530005 	cmp	r3, r5
30000db4:	e2822004 	add	r2, r2, #4
30000db8:	1affffe7 	bne	30000d5c <MMU_Init+0x26c>
30000dbc:	e59f535c 	ldr	r5, [pc, #860]	; 30001120 <MMU_Init+0x630>
30000dc0:	e3a02d0a 	mov	r2, #640	; 0x280
30000dc4:	e2826001 	add	r6, r2, #1
30000dc8:	e1a07a02 	lsl	r7, r2, #20
30000dcc:	e2821003 	add	r1, r2, #3
30000dd0:	e1a0ea06 	lsl	lr, r6, #20
30000dd4:	e286c001 	add	ip, r6, #1
30000dd8:	e3874ec3 	orr	r4, r7, #3120	; 0xc30
30000ddc:	e38e0ec3 	orr	r0, lr, #3120	; 0xc30
30000de0:	e1a06a0c 	lsl	r6, ip, #20
30000de4:	e1a07a01 	lsl	r7, r1, #20
30000de8:	e380e002 	orr	lr, r0, #2
30000dec:	e386cec3 	orr	ip, r6, #3120	; 0xc30
30000df0:	e3844002 	orr	r4, r4, #2
30000df4:	e1a06003 	mov	r6, r3
30000df8:	e3871ec3 	orr	r1, r7, #3120	; 0xc30
30000dfc:	e5034004 	str	r4, [r3, #-4]
30000e00:	e38c0002 	orr	r0, ip, #2
30000e04:	e486e004 	str	lr, [r6], #4
30000e08:	e3817002 	orr	r7, r1, #2
30000e0c:	e5860000 	str	r0, [r6]
30000e10:	e5837008 	str	r7, [r3, #8]
30000e14:	e2833010 	add	r3, r3, #16
30000e18:	e1530005 	cmp	r3, r5
30000e1c:	e2822004 	add	r2, r2, #4
30000e20:	1affffe7 	bne	30000dc4 <MMU_Init+0x2d4>
30000e24:	e59f72f8 	ldr	r7, [pc, #760]	; 30001124 <MMU_Init+0x634>
30000e28:	e3a02c03 	mov	r2, #768	; 0x300
30000e2c:	e2826001 	add	r6, r2, #1
30000e30:	e1a05a02 	lsl	r5, r2, #20
30000e34:	e282e005 	add	lr, r2, #5
30000e38:	e1a01a06 	lsl	r1, r6, #20
30000e3c:	e2864001 	add	r4, r6, #1
30000e40:	e282c003 	add	ip, r2, #3
30000e44:	e2820004 	add	r0, r2, #4
30000e48:	e3856ec1 	orr	r6, r5, #3088	; 0xc10
30000e4c:	e1a04a04 	lsl	r4, r4, #20
30000e50:	e3815ec1 	orr	r5, r1, #3088	; 0xc10
30000e54:	e1a0ca0c 	lsl	ip, ip, #20
30000e58:	e1a01a0e 	lsl	r1, lr, #20
30000e5c:	e1a00a00 	lsl	r0, r0, #20
30000e60:	e1a0e003 	mov	lr, r3
30000e64:	e385500e 	orr	r5, r5, #14
30000e68:	e386600e 	orr	r6, r6, #14
30000e6c:	e3844ec1 	orr	r4, r4, #3088	; 0xc10
30000e70:	e38ccec1 	orr	ip, ip, #3088	; 0xc10
30000e74:	e3800ec1 	orr	r0, r0, #3088	; 0xc10
30000e78:	e3811ec1 	orr	r1, r1, #3088	; 0xc10
30000e7c:	e5036004 	str	r6, [r3, #-4]
30000e80:	e384400e 	orr	r4, r4, #14
30000e84:	e48e5004 	str	r5, [lr], #4
30000e88:	e38cc00e 	orr	ip, ip, #14
30000e8c:	e380000e 	orr	r0, r0, #14
30000e90:	e381500e 	orr	r5, r1, #14
30000e94:	e58e4000 	str	r4, [lr]
30000e98:	e583c008 	str	ip, [r3, #8]
30000e9c:	e583000c 	str	r0, [r3, #12]
30000ea0:	e5835010 	str	r5, [r3, #16]
30000ea4:	e2833018 	add	r3, r3, #24
30000ea8:	e1530007 	cmp	r3, r7
30000eac:	e2822006 	add	r2, r2, #6
30000eb0:	1affffdd 	bne	30000e2c <MMU_Init+0x33c>
30000eb4:	e59fe26c 	ldr	lr, [pc, #620]	; 30001128 <MMU_Init+0x638>
30000eb8:	e59f226c 	ldr	r2, [pc, #620]	; 3000112c <MMU_Init+0x63c>
30000ebc:	e24e160d 	sub	r1, lr, #13631488	; 0xd00000
30000ec0:	e2814601 	add	r4, r1, #1048576	; 0x100000
30000ec4:	e284c601 	add	ip, r4, #1048576	; 0x100000
30000ec8:	e28c0601 	add	r0, ip, #1048576	; 0x100000
30000ecc:	e502e383 	str	lr, [r2, #-899]	; 0x383
30000ed0:	e280e601 	add	lr, r0, #1048576	; 0x100000
30000ed4:	e50213b7 	str	r1, [r2, #-951]	; 0x3b7
30000ed8:	e28e1008 	add	r1, lr, #8
30000edc:	e50243b3 	str	r4, [r2, #-947]	; 0x3b3
30000ee0:	e2814601 	add	r4, r1, #1048576	; 0x100000
30000ee4:	e502c3af 	str	ip, [r2, #-943]	; 0x3af
30000ee8:	e244c28f 	sub	ip, r4, #-268435448	; 0xf0000008
30000eec:	e50203ab 	str	r0, [r2, #-939]	; 0x3ab
30000ef0:	e24c06ff 	sub	r0, ip, #267386880	; 0xff00000
30000ef4:	e280e601 	add	lr, r0, #1048576	; 0x100000
30000ef8:	e50213a7 	str	r1, [r2, #-935]	; 0x3a7
30000efc:	e28e1601 	add	r1, lr, #1048576	; 0x100000
30000f00:	e50243a3 	str	r4, [r2, #-931]	; 0x3a3
30000f04:	e2814601 	add	r4, r1, #1048576	; 0x100000
30000f08:	e284c601 	add	ip, r4, #1048576	; 0x100000
30000f0c:	e502039f 	str	r0, [r2, #-927]	; 0x39f
30000f10:	e28c0601 	add	r0, ip, #1048576	; 0x100000
30000f14:	e502e39b 	str	lr, [r2, #-923]	; 0x39b
30000f18:	e59f3210 	ldr	r3, [pc, #528]	; 30001130 <MMU_Init+0x640>
30000f1c:	e280e601 	add	lr, r0, #1048576	; 0x100000
30000f20:	e59f520c 	ldr	r5, [pc, #524]	; 30001134 <MMU_Init+0x644>
30000f24:	e5021397 	str	r1, [r2, #-919]	; 0x397
30000f28:	e5024393 	str	r4, [r2, #-915]	; 0x393
30000f2c:	e502c38f 	str	ip, [r2, #-911]	; 0x38f
30000f30:	e502038b 	str	r0, [r2, #-907]	; 0x38b
30000f34:	e502e387 	str	lr, [r2, #-903]	; 0x387
30000f38:	e3a02e32 	mov	r2, #800	; 0x320
30000f3c:	e282e001 	add	lr, r2, #1
30000f40:	e28e0001 	add	r0, lr, #1
30000f44:	e2821003 	add	r1, r2, #3
30000f48:	e1a04a02 	lsl	r4, r2, #20
30000f4c:	e1a0ca0e 	lsl	ip, lr, #20
30000f50:	e38ceec3 	orr	lr, ip, #3120	; 0xc30
30000f54:	e3844ec3 	orr	r4, r4, #3120	; 0xc30
30000f58:	e1a0ca00 	lsl	ip, r0, #20
30000f5c:	e1a00a01 	lsl	r0, r1, #20
30000f60:	e3844002 	orr	r4, r4, #2
30000f64:	e3801ec3 	orr	r1, r0, #3120	; 0xc30
30000f68:	e38ee002 	orr	lr, lr, #2
30000f6c:	e1a00003 	mov	r0, r3
30000f70:	e38ccec3 	orr	ip, ip, #3120	; 0xc30
30000f74:	e5034004 	str	r4, [r3, #-4]
30000f78:	e38cc002 	orr	ip, ip, #2
30000f7c:	e480e004 	str	lr, [r0], #4
30000f80:	e3814002 	orr	r4, r1, #2
30000f84:	e580c000 	str	ip, [r0]
30000f88:	e5834008 	str	r4, [r3, #8]
30000f8c:	e2833010 	add	r3, r3, #16
30000f90:	e1530005 	cmp	r3, r5
30000f94:	e2822004 	add	r2, r2, #4
30000f98:	1affffe7 	bne	30000f3c <MMU_Init+0x44c>
30000f9c:	e59f5194 	ldr	r5, [pc, #404]	; 30001138 <MMU_Init+0x648>
30000fa0:	e3a02d0e 	mov	r2, #896	; 0x380
30000fa4:	e282e001 	add	lr, r2, #1
30000fa8:	e28e0001 	add	r0, lr, #1
30000fac:	e2821003 	add	r1, r2, #3
30000fb0:	e1a04a02 	lsl	r4, r2, #20
30000fb4:	e1a0ca0e 	lsl	ip, lr, #20
30000fb8:	e38ceec3 	orr	lr, ip, #3120	; 0xc30
30000fbc:	e3844ec3 	orr	r4, r4, #3120	; 0xc30
30000fc0:	e1a0ca00 	lsl	ip, r0, #20
30000fc4:	e1a00a01 	lsl	r0, r1, #20
30000fc8:	e3801ec3 	orr	r1, r0, #3120	; 0xc30
30000fcc:	e3844002 	orr	r4, r4, #2
30000fd0:	e1a00003 	mov	r0, r3
30000fd4:	e38ee002 	orr	lr, lr, #2
30000fd8:	e38ccec3 	orr	ip, ip, #3120	; 0xc30
30000fdc:	e5034004 	str	r4, [r3, #-4]
30000fe0:	e38cc002 	orr	ip, ip, #2
30000fe4:	e480e004 	str	lr, [r0], #4
30000fe8:	e3811002 	orr	r1, r1, #2
30000fec:	e580c000 	str	ip, [r0]
30000ff0:	e5831008 	str	r1, [r3, #8]
30000ff4:	e2833010 	add	r3, r3, #16
30000ff8:	e1530005 	cmp	r3, r5
30000ffc:	e2822004 	add	r2, r2, #4
30001000:	1affffe7 	bne	30000fa4 <MMU_Init+0x4b4>
30001004:	e59f5130 	ldr	r5, [pc, #304]	; 3000113c <MMU_Init+0x64c>
30001008:	e3a02b01 	mov	r2, #1024	; 0x400
3000100c:	e282e001 	add	lr, r2, #1
30001010:	e28e0001 	add	r0, lr, #1
30001014:	e2821003 	add	r1, r2, #3
30001018:	e1a04a02 	lsl	r4, r2, #20
3000101c:	e1a0ca0e 	lsl	ip, lr, #20
30001020:	e38ceec1 	orr	lr, ip, #3088	; 0xc10
30001024:	e3844ec1 	orr	r4, r4, #3088	; 0xc10
30001028:	e1a0ca00 	lsl	ip, r0, #20
3000102c:	e1a00a01 	lsl	r0, r1, #20
30001030:	e3801ec1 	orr	r1, r0, #3088	; 0xc10
30001034:	e3844002 	orr	r4, r4, #2
30001038:	e1a00003 	mov	r0, r3
3000103c:	e38ee002 	orr	lr, lr, #2
30001040:	e38ccec1 	orr	ip, ip, #3088	; 0xc10
30001044:	e5034004 	str	r4, [r3, #-4]
30001048:	e38cc002 	orr	ip, ip, #2
3000104c:	e480e004 	str	lr, [r0], #4
30001050:	e3811002 	orr	r1, r1, #2
30001054:	e580c000 	str	ip, [r0]
30001058:	e5831008 	str	r1, [r3, #8]
3000105c:	e2833010 	add	r3, r3, #16
30001060:	e1530005 	cmp	r3, r5
30001064:	e2822004 	add	r2, r2, #4
30001068:	1affffe7 	bne	3000100c <MMU_Init+0x51c>
3000106c:	e59f50cc 	ldr	r5, [pc, #204]	; 30001140 <MMU_Init+0x650>
30001070:	e3a02e5b 	mov	r2, #1456	; 0x5b0
30001074:	e282e001 	add	lr, r2, #1
30001078:	e28e0001 	add	r0, lr, #1
3000107c:	e2821003 	add	r1, r2, #3
30001080:	e1a04a02 	lsl	r4, r2, #20
30001084:	e1a0ca0e 	lsl	ip, lr, #20
30001088:	e38ceec3 	orr	lr, ip, #3120	; 0xc30
3000108c:	e3844ec3 	orr	r4, r4, #3120	; 0xc30
30001090:	e1a0ca00 	lsl	ip, r0, #20
30001094:	e1a00a01 	lsl	r0, r1, #20
30001098:	e3801ec3 	orr	r1, r0, #3120	; 0xc30
3000109c:	e3844002 	orr	r4, r4, #2
300010a0:	e1a00003 	mov	r0, r3
300010a4:	e38ee002 	orr	lr, lr, #2
300010a8:	e38ccec3 	orr	ip, ip, #3120	; 0xc30
300010ac:	e5034004 	str	r4, [r3, #-4]
300010b0:	e38cc002 	orr	ip, ip, #2
300010b4:	e480e004 	str	lr, [r0], #4
300010b8:	e3811002 	orr	r1, r1, #2
300010bc:	e580c000 	str	ip, [r0]
300010c0:	e5831008 	str	r1, [r3, #8]
300010c4:	e2833010 	add	r3, r3, #16
300010c8:	e1530005 	cmp	r3, r5
300010cc:	e2822004 	add	r2, r2, #4
300010d0:	1affffe7 	bne	30001074 <MMU_Init+0x584>
300010d4:	e59f0068 	ldr	r0, [pc, #104]	; 30001144 <MMU_Init+0x654>
300010d8:	eb000073 	bl	300012ac <MMU_SetTTBase>
300010dc:	e59f0064 	ldr	r0, [pc, #100]	; 30001148 <MMU_Init+0x658>
300010e0:	eb000073 	bl	300012b4 <MMU_SetDomain>
300010e4:	e3a00000 	mov	r0, #0
300010e8:	eb00009b 	bl	3000135c <MMU_SetProcessId>
300010ec:	eb000056 	bl	3000124c <MMU_EnableAlignFault>
300010f0:	eb00005d 	bl	3000126c <MMU_EnableMMU>
300010f4:	eb000044 	bl	3000120c <MMU_EnableICache>
300010f8:	eb00004b 	bl	3000122c <MMU_EnableDCache>
300010fc:	e24bd01c 	sub	sp, fp, #28
30001100:	e89d68f0 	ldm	sp, {r4, r5, r6, r7, fp, sp, lr}
30001104:	e12fff1e 	bx	lr
30001108:	317fc204 	cmncc	pc, r4, lsl #4
3000110c:	317fc004 	cmncc	pc, r4
30001110:	317fc404 	cmncc	pc, r4, lsl #8
30001114:	317fc604 	cmncc	pc, r4, lsl #12
30001118:	317fc804 	cmncc	pc, r4, lsl #16
3000111c:	317fca04 	cmncc	pc, r4, lsl #20
30001120:	317fcc04 	cmncc	pc, r4, lsl #24
30001124:	317fcc4c 	cmncc	pc, ip, asr #24
30001128:	31f00c16 	mvnscc	r0, r6, lsl ip
3000112c:	317fcfff 	ldrshcc	ip, [pc, #-255]	; 30001035 <MMU_Init+0x545>
30001130:	317fcc84 	cmncc	pc, r4, lsl #25
30001134:	317fce04 	cmncc	pc, r4, lsl #28
30001138:	317fd004 	cmncc	pc, r4
3000113c:	317fd6c4 	cmncc	pc, r4, asr #13
30001140:	31800004 	orrcc	r0, r0, r4
30001144:	317fc000 	cmncc	pc, r0
30001148:	55555551 	ldrbpl	r5, [r5, #-1361]	; 0x551

3000114c <_sbrk>:
3000114c:	e59f3030 	ldr	r3, [pc, #48]	; 30001184 <_sbrk+0x38>
30001150:	e59f1030 	ldr	r1, [pc, #48]	; 30001188 <_sbrk+0x3c>
30001154:	e5932000 	ldr	r2, [r3]
30001158:	e3520000 	cmp	r2, #0
3000115c:	03a025c2 	moveq	r2, #813694976	; 0x30800000
30001160:	e0820000 	add	r0, r2, r0
30001164:	e280c007 	add	ip, r0, #7
30001168:	e3cc0007 	bic	r0, ip, #7
3000116c:	05832000 	streq	r2, [r3]
30001170:	e1500001 	cmp	r0, r1
30001174:	83a02000 	movhi	r2, #0
30001178:	95830000 	strls	r0, [r3]
3000117c:	e1a00002 	mov	r0, r2
30001180:	e12fff1e 	bx	lr
30001184:	30008d28 	andcc	r8, r0, r8, lsr #26
30001188:	311ffffb 	ldrshcc	pc, [pc, -fp]

3000118c <Get_Stack_Base>:
3000118c:	e51f0000 	ldr	r0, [pc, #0]	; 30001194 <Get_Stack_Base+0x8>
30001190:	e12fff1e 	bx	lr
30001194:	317fc000 	cmncc	pc, r0

30001198 <Get_Stack_Limit>:
30001198:	e51f0000 	ldr	r0, [pc, #0]	; 300011a0 <Get_Stack_Limit+0x8>
3000119c:	e12fff1e 	bx	lr
300011a0:	31600000 	cmncc	r0, r0

300011a4 <Get_Heap_Base>:
300011a4:	e3a005c2 	mov	r0, #813694976	; 0x30800000
300011a8:	e12fff1e 	bx	lr

300011ac <Get_Heap_Limit>:
300011ac:	e51f0000 	ldr	r0, [pc, #0]	; 300011b4 <Get_Heap_Limit+0x8>
300011b0:	e12fff1e 	bx	lr
300011b4:	311ffffc 	ldrshcc	pc, [pc, -ip]

300011b8 <Run_Time_Config>:
300011b8:	e1a0c00d 	mov	ip, sp
300011bc:	e92dd800 	push	{fp, ip, lr, pc}
300011c0:	e59f1014 	ldr	r1, [pc, #20]	; 300011dc <Run_Time_Config+0x24>
300011c4:	e24cb004 	sub	fp, ip, #4
300011c8:	e3a00000 	mov	r0, #0
300011cc:	eb000086 	bl	300013ec <setlocale>
300011d0:	e24bd00c 	sub	sp, fp, #12
300011d4:	e89d6800 	ldm	sp, {fp, sp, lr}
300011d8:	e12fff1e 	bx	lr
300011dc:	30008c78 	andcc	r8, r0, r8, ror ip

300011e0 <SET_IF>:
300011e0:	e10f0000 	mrs	r0, CPSR
300011e4:	e1a01000 	mov	r1, r0
300011e8:	e38110c0 	orr	r1, r1, #192	; 0xc0
300011ec:	e12ff001 	msr	CPSR_fsxc, r1
300011f0:	e1a0f00e 	mov	pc, lr

300011f4 <WR_IF>:
300011f4:	e12ff000 	msr	CPSR_fsxc, r0
300011f8:	e1a0f00e 	mov	pc, lr

300011fc <CLR_IF>:
300011fc:	e10f0000 	mrs	r0, CPSR
30001200:	e3c000c0 	bic	r0, r0, #192	; 0xc0
30001204:	e12ff000 	msr	CPSR_fsxc, r0
30001208:	e1a0f00e 	mov	pc, lr

3000120c <MMU_EnableICache>:
3000120c:	ee110f10 	mrc	15, 0, r0, cr1, cr0, {0}
30001210:	e3800a01 	orr	r0, r0, #4096	; 0x1000
30001214:	ee010f10 	mcr	15, 0, r0, cr1, cr0, {0}
30001218:	e1a0f00e 	mov	pc, lr

3000121c <MMU_DisableICache>:
3000121c:	ee110f10 	mrc	15, 0, r0, cr1, cr0, {0}
30001220:	e3c00a01 	bic	r0, r0, #4096	; 0x1000
30001224:	ee010f10 	mcr	15, 0, r0, cr1, cr0, {0}
30001228:	e1a0f00e 	mov	pc, lr

3000122c <MMU_EnableDCache>:
3000122c:	ee110f10 	mrc	15, 0, r0, cr1, cr0, {0}
30001230:	e3800004 	orr	r0, r0, #4
30001234:	ee010f10 	mcr	15, 0, r0, cr1, cr0, {0}
30001238:	e1a0f00e 	mov	pc, lr

3000123c <MMU_DisableDCache>:
3000123c:	ee110f10 	mrc	15, 0, r0, cr1, cr0, {0}
30001240:	e3c00004 	bic	r0, r0, #4
30001244:	ee010f10 	mcr	15, 0, r0, cr1, cr0, {0}
30001248:	e1a0f00e 	mov	pc, lr

3000124c <MMU_EnableAlignFault>:
3000124c:	ee110f10 	mrc	15, 0, r0, cr1, cr0, {0}
30001250:	e3800002 	orr	r0, r0, #2
30001254:	ee010f10 	mcr	15, 0, r0, cr1, cr0, {0}
30001258:	e1a0f00e 	mov	pc, lr

3000125c <MMU_DisableAlignFault>:
3000125c:	ee110f10 	mrc	15, 0, r0, cr1, cr0, {0}
30001260:	e3c00002 	bic	r0, r0, #2
30001264:	ee010f10 	mcr	15, 0, r0, cr1, cr0, {0}
30001268:	e1a0f00e 	mov	pc, lr

3000126c <MMU_EnableMMU>:
3000126c:	ee110f10 	mrc	15, 0, r0, cr1, cr0, {0}
30001270:	e3800001 	orr	r0, r0, #1
30001274:	ee010f10 	mcr	15, 0, r0, cr1, cr0, {0}
30001278:	e1a0f00e 	mov	pc, lr

3000127c <MMU_DisableMMU>:
3000127c:	ee110f10 	mrc	15, 0, r0, cr1, cr0, {0}
30001280:	e3c00001 	bic	r0, r0, #1
30001284:	ee010f10 	mcr	15, 0, r0, cr1, cr0, {0}
30001288:	e1a0f00e 	mov	pc, lr

3000128c <MMU_SetFastBusMode>:
3000128c:	ee110f10 	mrc	15, 0, r0, cr1, cr0, {0}
30001290:	e3c00103 	bic	r0, r0, #-1073741824	; 0xc0000000
30001294:	ee010f10 	mcr	15, 0, r0, cr1, cr0, {0}
30001298:	e1a0f00e 	mov	pc, lr

3000129c <MMU_SetAsyncBusMode>:
3000129c:	ee110f10 	mrc	15, 0, r0, cr1, cr0, {0}
300012a0:	e3800103 	orr	r0, r0, #-1073741824	; 0xc0000000
300012a4:	ee010f10 	mcr	15, 0, r0, cr1, cr0, {0}
300012a8:	e1a0f00e 	mov	pc, lr

300012ac <MMU_SetTTBase>:
300012ac:	ee020f10 	mcr	15, 0, r0, cr2, cr0, {0}
300012b0:	e1a0f00e 	mov	pc, lr

300012b4 <MMU_SetDomain>:
300012b4:	ee030f10 	mcr	15, 0, r0, cr3, cr0, {0}
300012b8:	e1a0f00e 	mov	pc, lr

300012bc <MMU_InvalidateIDCache>:
300012bc:	ee070f17 	mcr	15, 0, r0, cr7, cr7, {0}
300012c0:	e1a0f00e 	mov	pc, lr

300012c4 <MMU_InvalidateICache>:
300012c4:	ee070f15 	mcr	15, 0, r0, cr7, cr5, {0}
300012c8:	e1a0f00e 	mov	pc, lr

300012cc <MMU_InvalidateICacheMVA>:
300012cc:	ee070f35 	mcr	15, 0, r0, cr7, cr5, {1}
300012d0:	e1a0f00e 	mov	pc, lr

300012d4 <MMU_PrefetchICacheMVA>:
300012d4:	ee070f3d 	mcr	15, 0, r0, cr7, cr13, {1}
300012d8:	e1a0f00e 	mov	pc, lr

300012dc <MMU_InvalidateDCache>:
300012dc:	ee070f16 	mcr	15, 0, r0, cr7, cr6, {0}
300012e0:	e1a0f00e 	mov	pc, lr

300012e4 <MMU_InvalidateDCacheMVA>:
300012e4:	ee070f36 	mcr	15, 0, r0, cr7, cr6, {1}
300012e8:	e1a0f00e 	mov	pc, lr

300012ec <MMU_CleanDCacheMVA>:
300012ec:	ee070f3a 	mcr	15, 0, r0, cr7, cr10, {1}
300012f0:	e1a0f00e 	mov	pc, lr

300012f4 <MMU_CleanInvalidateDCacheMVA>:
300012f4:	ee070f3e 	mcr	15, 0, r0, cr7, cr14, {1}
300012f8:	e1a0f00e 	mov	pc, lr

300012fc <MMU_CleanDCacheIndex>:
300012fc:	ee070f5a 	mcr	15, 0, r0, cr7, cr10, {2}
30001300:	e1a0f00e 	mov	pc, lr

30001304 <MMU_CleanInvalidateDCacheIndex>:
30001304:	ee070f5e 	mcr	15, 0, r0, cr7, cr14, {2}
30001308:	e1a0f00e 	mov	pc, lr

3000130c <MMU_WaitForInterrupt>:
3000130c:	ee070f90 	mcr	15, 0, r0, cr7, cr0, {4}
30001310:	e1a0f00e 	mov	pc, lr

30001314 <MMU_InvalidateTLB>:
30001314:	ee080f17 	mcr	15, 0, r0, cr8, cr7, {0}
30001318:	e1a0f00e 	mov	pc, lr

3000131c <MMU_InvalidateITLB>:
3000131c:	ee080f15 	mcr	15, 0, r0, cr8, cr5, {0}
30001320:	e1a0f00e 	mov	pc, lr

30001324 <MMU_InvalidateITLBMVA>:
30001324:	ee080f35 	mcr	15, 0, r0, cr8, cr5, {1}
30001328:	e1a0f00e 	mov	pc, lr

3000132c <MMU_InvalidateDTLB>:
3000132c:	ee080f16 	mcr	15, 0, r0, cr8, cr6, {0}
30001330:	e1a0f00e 	mov	pc, lr

30001334 <MMU_InvalidateDTLBMVA>:
30001334:	ee080f36 	mcr	15, 0, r0, cr8, cr6, {1}
30001338:	e1a0f00e 	mov	pc, lr

3000133c <MMU_SetDCacheLockdownBase>:
3000133c:	ee090f10 	mcr	15, 0, r0, cr9, cr0, {0}
30001340:	e1a0f00e 	mov	pc, lr

30001344 <MMU_SetICacheLockdownBase>:
30001344:	ee090f30 	mcr	15, 0, r0, cr9, cr0, {1}
30001348:	e1a0f00e 	mov	pc, lr

3000134c <MMU_SetDTLBLockdown>:
3000134c:	ee0a0f10 	mcr	15, 0, r0, cr10, cr0, {0}
30001350:	e1a0f00e 	mov	pc, lr

30001354 <MMU_SetITLBLockdown>:
30001354:	ee0a0f30 	mcr	15, 0, r0, cr10, cr0, {1}
30001358:	e1a0f00e 	mov	pc, lr

3000135c <MMU_SetProcessId>:
3000135c:	ee0d0f10 	mcr	15, 0, r0, cr13, cr0, {0}
30001360:	e1a0f00e 	mov	pc, lr

30001364 <__locale_charset>:
30001364:	e59f3004 	ldr	r3, [pc, #4]	; 30001370 <__locale_charset+0xc>
30001368:	e5930000 	ldr	r0, [r3]
3000136c:	e12fff1e 	bx	lr
30001370:	30008ad8 	ldrdcc	r8, [r0], -r8

30001374 <_localeconv_r>:
30001374:	e51f0000 	ldr	r0, [pc, #0]	; 3000137c <_localeconv_r+0x8>
30001378:	e12fff1e 	bx	lr
3000137c:	30008adc 	ldrdcc	r8, [r0], -ip

30001380 <localeconv>:
30001380:	e51f0000 	ldr	r0, [pc, #0]	; 30001388 <localeconv+0x8>
30001384:	e12fff1e 	bx	lr
30001388:	30008adc 	ldrdcc	r8, [r0], -ip

3000138c <_setlocale_r>:
3000138c:	e92d4070 	push	{r4, r5, r6, lr}
30001390:	e2524000 	subs	r4, r2, #0
30001394:	e1a05000 	mov	r5, r0
30001398:	e1a06001 	mov	r6, r1
3000139c:	0a000006 	beq	300013bc <_setlocale_r+0x30>
300013a0:	e1a00004 	mov	r0, r4
300013a4:	e59f1038 	ldr	r1, [pc, #56]	; 300013e4 <_setlocale_r+0x58>
300013a8:	eb000016 	bl	30001408 <strcmp>
300013ac:	e3500000 	cmp	r0, #0
300013b0:	1a000004 	bne	300013c8 <_setlocale_r+0x3c>
300013b4:	e5854034 	str	r4, [r5, #52]	; 0x34
300013b8:	e5856030 	str	r6, [r5, #48]	; 0x30
300013bc:	e59f0020 	ldr	r0, [pc, #32]	; 300013e4 <_setlocale_r+0x58>
300013c0:	e8bd4070 	pop	{r4, r5, r6, lr}
300013c4:	e12fff1e 	bx	lr
300013c8:	e1a00004 	mov	r0, r4
300013cc:	e59f1014 	ldr	r1, [pc, #20]	; 300013e8 <_setlocale_r+0x5c>
300013d0:	eb00000c 	bl	30001408 <strcmp>
300013d4:	e3500000 	cmp	r0, #0
300013d8:	13a00000 	movne	r0, #0
300013dc:	0afffff4 	beq	300013b4 <_setlocale_r+0x28>
300013e0:	eafffff6 	b	300013c0 <_setlocale_r+0x34>
300013e4:	30008c78 	andcc	r8, r0, r8, ror ip
300013e8:	30008c6c 	andcc	r8, r0, ip, ror #24

300013ec <setlocale>:
300013ec:	e1a02001 	mov	r2, r1
300013f0:	e59f100c 	ldr	r1, [pc, #12]	; 30001404 <setlocale+0x18>
300013f4:	e1a03000 	mov	r3, r0
300013f8:	e5910000 	ldr	r0, [r1]
300013fc:	e1a01003 	mov	r1, r3
30001400:	eaffffe1 	b	3000138c <_setlocale_r>
30001404:	30008d40 	andcc	r8, r0, r0, asr #26

30001408 <strcmp>:
30001408:	e0202001 	eor	r2, r0, r1
3000140c:	e3120003 	tst	r2, #3
30001410:	1a000021 	bne	3000149c <strcmp_unaligned>
30001414:	e2102003 	ands	r2, r0, #3
30001418:	e3c00003 	bic	r0, r0, #3
3000141c:	e3c11003 	bic	r1, r1, #3
30001420:	e490c004 	ldr	ip, [r0], #4
30001424:	04913004 	ldreq	r3, [r1], #4
30001428:	0a000006 	beq	30001448 <strcmp+0x40>
3000142c:	e2222003 	eor	r2, r2, #3
30001430:	e1a02182 	lsl	r2, r2, #3
30001434:	e3e034ff 	mvn	r3, #-16777216	; 0xff000000
30001438:	e1a02233 	lsr	r2, r3, r2
3000143c:	e4913004 	ldr	r3, [r1], #4
30001440:	e18cc002 	orr	ip, ip, r2
30001444:	e1833002 	orr	r3, r3, r2
30001448:	e52d4004 	push	{r4}		; (str r4, [sp, #-4]!)
3000144c:	e3a04001 	mov	r4, #1
30001450:	e1844404 	orr	r4, r4, r4, lsl #8
30001454:	e1844804 	orr	r4, r4, r4, lsl #16
30001458:	e04c2004 	sub	r2, ip, r4
3000145c:	e15c0003 	cmp	ip, r3
30001460:	01c2200c 	biceq	r2, r2, ip
30001464:	01120384 	tsteq	r2, r4, lsl #7
30001468:	0490c004 	ldreq	ip, [r0], #4
3000146c:	04913004 	ldreq	r3, [r1], #4
30001470:	0afffff8 	beq	30001458 <strcmp+0x50>
30001474:	e1a00c0c 	lsl	r0, ip, #24
30001478:	e1a0c42c 	lsr	ip, ip, #8
3000147c:	e3500001 	cmp	r0, #1
30001480:	21500c03 	cmpcs	r0, r3, lsl #24
30001484:	01a03423 	lsreq	r3, r3, #8
30001488:	0afffff9 	beq	30001474 <strcmp+0x6c>
3000148c:	e20330ff 	and	r3, r3, #255	; 0xff
30001490:	e0630c20 	rsb	r0, r3, r0, lsr #24
30001494:	e49d4004 	pop	{r4}		; (ldr r4, [sp], #4)
30001498:	e12fff1e 	bx	lr

3000149c <strcmp_unaligned>:
3000149c:	e3100003 	tst	r0, #3
300014a0:	0a000006 	beq	300014c0 <strcmp_unaligned+0x24>
300014a4:	e4d02001 	ldrb	r2, [r0], #1
300014a8:	e4d13001 	ldrb	r3, [r1], #1
300014ac:	e3520001 	cmp	r2, #1
300014b0:	21520003 	cmpcs	r2, r3
300014b4:	0afffff8 	beq	3000149c <strcmp_unaligned>
300014b8:	e0420003 	sub	r0, r2, r3
300014bc:	e12fff1e 	bx	lr
300014c0:	e52d5004 	push	{r5}		; (str r5, [sp, #-4]!)
300014c4:	e52d4004 	push	{r4}		; (str r4, [sp, #-4]!)
300014c8:	e3a02001 	mov	r2, #1
300014cc:	e1822402 	orr	r2, r2, r2, lsl #8
300014d0:	e1822802 	orr	r2, r2, r2, lsl #16
300014d4:	e201c003 	and	ip, r1, #3
300014d8:	e3c11003 	bic	r1, r1, #3
300014dc:	e4904004 	ldr	r4, [r0], #4
300014e0:	e4915004 	ldr	r5, [r1], #4
300014e4:	e35c0002 	cmp	ip, #2
300014e8:	0a000017 	beq	3000154c <strcmp_unaligned+0xb0>
300014ec:	8a00002d 	bhi	300015a8 <strcmp_unaligned+0x10c>
300014f0:	e3c4c4ff 	bic	ip, r4, #-16777216	; 0xff000000
300014f4:	e15c0425 	cmp	ip, r5, lsr #8
300014f8:	e0443002 	sub	r3, r4, r2
300014fc:	e1c33004 	bic	r3, r3, r4
30001500:	1a000007 	bne	30001524 <strcmp_unaligned+0x88>
30001504:	e0133382 	ands	r3, r3, r2, lsl #7
30001508:	04915004 	ldreq	r5, [r1], #4
3000150c:	1a000006 	bne	3000152c <strcmp_unaligned+0x90>
30001510:	e02cc004 	eor	ip, ip, r4
30001514:	e15c0c05 	cmp	ip, r5, lsl #24
30001518:	1a000008 	bne	30001540 <strcmp_unaligned+0xa4>
3000151c:	e4904004 	ldr	r4, [r0], #4
30001520:	eafffff2 	b	300014f0 <strcmp_unaligned+0x54>
30001524:	e1a05425 	lsr	r5, r5, #8
30001528:	ea000037 	b	3000160c <strcmp_unaligned+0x170>
3000152c:	e3d334ff 	bics	r3, r3, #-16777216	; 0xff000000
30001530:	1a000031 	bne	300015fc <strcmp_unaligned+0x160>
30001534:	e5d15000 	ldrb	r5, [r1]
30001538:	e1a0cc24 	lsr	ip, r4, #24
3000153c:	ea000032 	b	3000160c <strcmp_unaligned+0x170>
30001540:	e1a0cc24 	lsr	ip, r4, #24
30001544:	e20550ff 	and	r5, r5, #255	; 0xff
30001548:	ea00002f 	b	3000160c <strcmp_unaligned+0x170>
3000154c:	e1a0c804 	lsl	ip, r4, #16
30001550:	e0443002 	sub	r3, r4, r2
30001554:	e1a0c82c 	lsr	ip, ip, #16
30001558:	e1c33004 	bic	r3, r3, r4
3000155c:	e15c0825 	cmp	ip, r5, lsr #16
30001560:	1a00000e 	bne	300015a0 <strcmp_unaligned+0x104>
30001564:	e0133382 	ands	r3, r3, r2, lsl #7
30001568:	04915004 	ldreq	r5, [r1], #4
3000156c:	1a000004 	bne	30001584 <strcmp_unaligned+0xe8>
30001570:	e02cc004 	eor	ip, ip, r4
30001574:	e15c0805 	cmp	ip, r5, lsl #16
30001578:	1a000006 	bne	30001598 <strcmp_unaligned+0xfc>
3000157c:	e4904004 	ldr	r4, [r0], #4
30001580:	eafffff1 	b	3000154c <strcmp_unaligned+0xb0>
30001584:	e1b03803 	lsls	r3, r3, #16
30001588:	1a00001b 	bne	300015fc <strcmp_unaligned+0x160>
3000158c:	e1d150b0 	ldrh	r5, [r1]
30001590:	e1a0c824 	lsr	ip, r4, #16
30001594:	ea00001c 	b	3000160c <strcmp_unaligned+0x170>
30001598:	e1a05805 	lsl	r5, r5, #16
3000159c:	e1a0c824 	lsr	ip, r4, #16
300015a0:	e1a05825 	lsr	r5, r5, #16
300015a4:	ea000018 	b	3000160c <strcmp_unaligned+0x170>
300015a8:	e204c0ff 	and	ip, r4, #255	; 0xff
300015ac:	e15c0c25 	cmp	ip, r5, lsr #24
300015b0:	e0443002 	sub	r3, r4, r2
300015b4:	e1c33004 	bic	r3, r3, r4
300015b8:	1a000007 	bne	300015dc <strcmp_unaligned+0x140>
300015bc:	e0133382 	ands	r3, r3, r2, lsl #7
300015c0:	04915004 	ldreq	r5, [r1], #4
300015c4:	1a000006 	bne	300015e4 <strcmp_unaligned+0x148>
300015c8:	e02cc004 	eor	ip, ip, r4
300015cc:	e15c0405 	cmp	ip, r5, lsl #8
300015d0:	1a000006 	bne	300015f0 <strcmp_unaligned+0x154>
300015d4:	e4904004 	ldr	r4, [r0], #4
300015d8:	eafffff2 	b	300015a8 <strcmp_unaligned+0x10c>
300015dc:	e1a05c25 	lsr	r5, r5, #24
300015e0:	ea000009 	b	3000160c <strcmp_unaligned+0x170>
300015e4:	e31400ff 	tst	r4, #255	; 0xff
300015e8:	0a000003 	beq	300015fc <strcmp_unaligned+0x160>
300015ec:	e4915004 	ldr	r5, [r1], #4
300015f0:	e1a0c424 	lsr	ip, r4, #8
300015f4:	e3c554ff 	bic	r5, r5, #-16777216	; 0xff000000
300015f8:	ea000003 	b	3000160c <strcmp_unaligned+0x170>
300015fc:	e3a00000 	mov	r0, #0
30001600:	e49d4004 	pop	{r4}		; (ldr r4, [sp], #4)
30001604:	e49d5004 	pop	{r5}		; (ldr r5, [sp], #4)
30001608:	e12fff1e 	bx	lr
3000160c:	e20c20ff 	and	r2, ip, #255	; 0xff
30001610:	e20500ff 	and	r0, r5, #255	; 0xff
30001614:	e3500001 	cmp	r0, #1
30001618:	21500002 	cmpcs	r0, r2
3000161c:	01a0c42c 	lsreq	ip, ip, #8
30001620:	01a05425 	lsreq	r5, r5, #8
30001624:	0afffff8 	beq	3000160c <strcmp_unaligned+0x170>
30001628:	e0420000 	sub	r0, r2, r0
3000162c:	e49d4004 	pop	{r4}		; (ldr r4, [sp], #4)
30001630:	e49d5004 	pop	{r5}		; (ldr r5, [sp], #4)
30001634:	e12fff1e 	bx	lr

30001638 <_vsprintf_r>:
30001638:	e92d4010 	push	{r4, lr}
3000163c:	e3e0c102 	mvn	ip, #-2147483648	; 0x80000000
30001640:	e24dd068 	sub	sp, sp, #104	; 0x68
30001644:	e1a0e001 	mov	lr, r1
30001648:	e58dc014 	str	ip, [sp, #20]
3000164c:	e58dc008 	str	ip, [sp, #8]
30001650:	e1a0100d 	mov	r1, sp
30001654:	e3e0c000 	mvn	ip, #0
30001658:	e3a04f82 	mov	r4, #520	; 0x208
3000165c:	e58de010 	str	lr, [sp, #16]
30001660:	e1cd40bc 	strh	r4, [sp, #12]
30001664:	e58de000 	str	lr, [sp]
30001668:	e1cdc0be 	strh	ip, [sp, #14]
3000166c:	eb000072 	bl	3000183c <_svfprintf_r>
30001670:	e59d3000 	ldr	r3, [sp]
30001674:	e3a02000 	mov	r2, #0
30001678:	e5c32000 	strb	r2, [r3]
3000167c:	e28dd068 	add	sp, sp, #104	; 0x68
30001680:	e8bd4010 	pop	{r4, lr}
30001684:	e12fff1e 	bx	lr

30001688 <vsprintf>:
30001688:	e52d4004 	push	{r4}		; (str r4, [sp, #-4]!)
3000168c:	e1a03002 	mov	r3, r2
30001690:	e59f2018 	ldr	r2, [pc, #24]	; 300016b0 <vsprintf+0x28>
30001694:	e1a04000 	mov	r4, r0
30001698:	e1a0c001 	mov	ip, r1
3000169c:	e5920000 	ldr	r0, [r2]
300016a0:	e1a01004 	mov	r1, r4
300016a4:	e1a0200c 	mov	r2, ip
300016a8:	e49d4004 	pop	{r4}		; (ldr r4, [sp], #4)
300016ac:	eaffffe1 	b	30001638 <_vsprintf_r>
300016b0:	30008d40 	andcc	r8, r0, r0, asr #26

300016b4 <__sprint_r>:
300016b4:	e92d4ff0 	push	{r4, r5, r6, r7, r8, r9, sl, fp, lr}
300016b8:	e5925008 	ldr	r5, [r2, #8]
300016bc:	e24dd00c 	sub	sp, sp, #12
300016c0:	e3550000 	cmp	r5, #0
300016c4:	e1a0a002 	mov	sl, r2
300016c8:	e58d0004 	str	r0, [sp, #4]
300016cc:	e1a04001 	mov	r4, r1
300016d0:	e5927000 	ldr	r7, [r2]
300016d4:	0a000053 	beq	30001828 <__sprint_r+0x174>
300016d8:	e3a09000 	mov	r9, #0
300016dc:	e1a05009 	mov	r5, r9
300016e0:	e3550000 	cmp	r5, #0
300016e4:	e5910000 	ldr	r0, [r1]
300016e8:	0a000036 	beq	300017c8 <__sprint_r+0x114>
300016ec:	e5946008 	ldr	r6, [r4, #8]
300016f0:	e1550006 	cmp	r5, r6
300016f4:	e1a08006 	mov	r8, r6
300016f8:	3a000022 	bcc	30001788 <__sprint_r+0xd4>
300016fc:	e1d430bc 	ldrh	r3, [r4, #12]
30001700:	e3130d12 	tst	r3, #1152	; 0x480
30001704:	0a000021 	beq	30001790 <__sprint_r+0xdc>
30001708:	e2841010 	add	r1, r4, #16
3000170c:	e8910042 	ldm	r1, {r1, r6}
30001710:	e0618000 	rsb	r8, r1, r0
30001714:	e0866086 	add	r6, r6, r6, lsl #1
30001718:	e0866fa6 	add	r6, r6, r6, lsr #31
3000171c:	e2880001 	add	r0, r8, #1
30001720:	e1a060c6 	asr	r6, r6, #1
30001724:	e0800005 	add	r0, r0, r5
30001728:	e1560000 	cmp	r6, r0
3000172c:	e1a02006 	mov	r2, r6
30001730:	31a06000 	movcc	r6, r0
30001734:	31a02006 	movcc	r2, r6
30001738:	e3130b01 	tst	r3, #1024	; 0x400
3000173c:	0a000027 	beq	300017e0 <__sprint_r+0x12c>
30001740:	e1a01002 	mov	r1, r2
30001744:	e59d0004 	ldr	r0, [sp, #4]
30001748:	eb000ef4 	bl	30005320 <_malloc_r>
3000174c:	e250b000 	subs	fp, r0, #0
30001750:	0a000029 	beq	300017fc <__sprint_r+0x148>
30001754:	e5941010 	ldr	r1, [r4, #16]
30001758:	e1a02008 	mov	r2, r8
3000175c:	eb0010eb 	bl	30005b10 <memcpy>
30001760:	e1d430bc 	ldrh	r3, [r4, #12]
30001764:	e3c33d12 	bic	r3, r3, #1152	; 0x480
30001768:	e3833080 	orr	r3, r3, #128	; 0x80
3000176c:	e1c430bc 	strh	r3, [r4, #12]
30001770:	e0683006 	rsb	r3, r8, r6
30001774:	e08b0008 	add	r0, fp, r8
30001778:	e5843008 	str	r3, [r4, #8]
3000177c:	e584b010 	str	fp, [r4, #16]
30001780:	e5840000 	str	r0, [r4]
30001784:	e5846014 	str	r6, [r4, #20]
30001788:	e1a06005 	mov	r6, r5
3000178c:	e1a08005 	mov	r8, r5
30001790:	e1a01009 	mov	r1, r9
30001794:	e1a02008 	mov	r2, r8
30001798:	eb00115d 	bl	30005d14 <memmove>
3000179c:	e5943008 	ldr	r3, [r4, #8]
300017a0:	e0666003 	rsb	r6, r6, r3
300017a4:	e5846008 	str	r6, [r4, #8]
300017a8:	e59a3008 	ldr	r3, [sl, #8]
300017ac:	e5940000 	ldr	r0, [r4]
300017b0:	e0655003 	rsb	r5, r5, r3
300017b4:	e0800008 	add	r0, r0, r8
300017b8:	e3550000 	cmp	r5, #0
300017bc:	e5840000 	str	r0, [r4]
300017c0:	e58a5008 	str	r5, [sl, #8]
300017c4:	0a000017 	beq	30001828 <__sprint_r+0x174>
300017c8:	e5975004 	ldr	r5, [r7, #4]
300017cc:	e3550000 	cmp	r5, #0
300017d0:	e5979000 	ldr	r9, [r7]
300017d4:	e2877008 	add	r7, r7, #8
300017d8:	0afffffa 	beq	300017c8 <__sprint_r+0x114>
300017dc:	eaffffc2 	b	300016ec <__sprint_r+0x38>
300017e0:	e59d0004 	ldr	r0, [sp, #4]
300017e4:	eb0014ff 	bl	30006be8 <_realloc_r>
300017e8:	e250b000 	subs	fp, r0, #0
300017ec:	1affffdf 	bne	30001770 <__sprint_r+0xbc>
300017f0:	e59d0004 	ldr	r0, [sp, #4]
300017f4:	e5941010 	ldr	r1, [r4, #16]
300017f8:	eb000e2b 	bl	300050ac <_free_r>
300017fc:	e59d2004 	ldr	r2, [sp, #4]
30001800:	e3a0300c 	mov	r3, #12
30001804:	e5823000 	str	r3, [r2]
30001808:	e1d420bc 	ldrh	r2, [r4, #12]
3000180c:	e3a03000 	mov	r3, #0
30001810:	e3822040 	orr	r2, r2, #64	; 0x40
30001814:	e1c420bc 	strh	r2, [r4, #12]
30001818:	e58a3004 	str	r3, [sl, #4]
3000181c:	e58a3008 	str	r3, [sl, #8]
30001820:	e3e00000 	mvn	r0, #0
30001824:	ea000001 	b	30001830 <__sprint_r+0x17c>
30001828:	e58a5004 	str	r5, [sl, #4]
3000182c:	e1a00005 	mov	r0, r5
30001830:	e28dd00c 	add	sp, sp, #12
30001834:	e8bd4ff0 	pop	{r4, r5, r6, r7, r8, r9, sl, fp, lr}
30001838:	e12fff1e 	bx	lr

3000183c <_svfprintf_r>:
3000183c:	e92d4ff0 	push	{r4, r5, r6, r7, r8, r9, sl, fp, lr}
30001840:	e24ddf45 	sub	sp, sp, #276	; 0x114
30001844:	e1a06001 	mov	r6, r1
30001848:	e1a0a003 	mov	sl, r3
3000184c:	e1a05002 	mov	r5, r2
30001850:	e1a0b000 	mov	fp, r0
30001854:	ebfffec6 	bl	30001374 <_localeconv_r>
30001858:	e1d630bc 	ldrh	r3, [r6, #12]
3000185c:	e5900000 	ldr	r0, [r0]
30001860:	e3130080 	tst	r3, #128	; 0x80
30001864:	e58d006c 	str	r0, [sp, #108]	; 0x6c
30001868:	0a000002 	beq	30001878 <_svfprintf_r+0x3c>
3000186c:	e5963010 	ldr	r3, [r6, #16]
30001870:	e3530000 	cmp	r3, #0
30001874:	0a0006c6 	beq	30003394 <_svfprintf_r+0x1b58>
30001878:	e3a02000 	mov	r2, #0
3000187c:	e28d10b4 	add	r1, sp, #180	; 0xb4
30001880:	e3a03000 	mov	r3, #0
30001884:	e28d9074 	add	r9, sp, #116	; 0x74
30001888:	e58d20e0 	str	r2, [sp, #224]	; 0xe0
3000188c:	e58d20e4 	str	r2, [sp, #228]	; 0xe4
30001890:	e2811028 	add	r1, r1, #40	; 0x28
30001894:	e28d20f7 	add	r2, sp, #247	; 0xf7
30001898:	e3a04000 	mov	r4, #0
3000189c:	e58d90dc 	str	r9, [sp, #220]	; 0xdc
300018a0:	e58d3040 	str	r3, [sp, #64]	; 0x40
300018a4:	e58d3060 	str	r3, [sp, #96]	; 0x60
300018a8:	e58d3038 	str	r3, [sp, #56]	; 0x38
300018ac:	e58d3058 	str	r3, [sp, #88]	; 0x58
300018b0:	e58d3068 	str	r3, [sp, #104]	; 0x68
300018b4:	e58d105c 	str	r1, [sp, #92]	; 0x5c
300018b8:	e58d201c 	str	r2, [sp, #28]
300018bc:	e58d4064 	str	r4, [sp, #100]	; 0x64
300018c0:	e1a0700a 	mov	r7, sl
300018c4:	e1a04009 	mov	r4, r9
300018c8:	e1a0a006 	mov	sl, r6
300018cc:	e5d53000 	ldrb	r3, [r5]
300018d0:	e3530000 	cmp	r3, #0
300018d4:	13530025 	cmpne	r3, #37	; 0x25
300018d8:	0a000017 	beq	3000193c <_svfprintf_r+0x100>
300018dc:	e1a06005 	mov	r6, r5
300018e0:	e5f63001 	ldrb	r3, [r6, #1]!
300018e4:	e3530025 	cmp	r3, #37	; 0x25
300018e8:	13530000 	cmpne	r3, #0
300018ec:	1afffffb 	bne	300018e0 <_svfprintf_r+0xa4>
300018f0:	e0568005 	subs	r8, r6, r5
300018f4:	01a05006 	moveq	r5, r6
300018f8:	0a00000f 	beq	3000193c <_svfprintf_r+0x100>
300018fc:	e5848004 	str	r8, [r4, #4]
30001900:	e59d30e0 	ldr	r3, [sp, #224]	; 0xe0
30001904:	e59d20e4 	ldr	r2, [sp, #228]	; 0xe4
30001908:	e2833001 	add	r3, r3, #1
3000190c:	e3530007 	cmp	r3, #7
30001910:	e0822008 	add	r2, r2, r8
30001914:	e5845000 	str	r5, [r4]
30001918:	e58d20e4 	str	r2, [sp, #228]	; 0xe4
3000191c:	e58d30e0 	str	r3, [sp, #224]	; 0xe0
30001920:	d2844008 	addle	r4, r4, #8
30001924:	ca00006f 	bgt	30001ae8 <_svfprintf_r+0x2ac>
30001928:	e59dc038 	ldr	ip, [sp, #56]	; 0x38
3000192c:	e08cc008 	add	ip, ip, r8
30001930:	e5d63000 	ldrb	r3, [r6]
30001934:	e58dc038 	str	ip, [sp, #56]	; 0x38
30001938:	e1a05006 	mov	r5, r6
3000193c:	e3530000 	cmp	r3, #0
30001940:	0a0005d0 	beq	30003088 <_svfprintf_r+0x184c>
30001944:	e3a00000 	mov	r0, #0
30001948:	e3a01000 	mov	r1, #0
3000194c:	e5cd010f 	strb	r0, [sp, #271]	; 0x10f
30001950:	e58d1034 	str	r1, [sp, #52]	; 0x34
30001954:	e5d52001 	ldrb	r2, [r5, #1]
30001958:	e58d702c 	str	r7, [sp, #44]	; 0x2c
3000195c:	e58d1028 	str	r1, [sp, #40]	; 0x28
30001960:	e2853001 	add	r3, r5, #1
30001964:	e3e08000 	mvn	r8, #0
30001968:	e3a0002b 	mov	r0, #43	; 0x2b
3000196c:	e3a0c020 	mov	ip, #32
30001970:	e2835001 	add	r5, r3, #1
30001974:	e2423020 	sub	r3, r2, #32
30001978:	e3530058 	cmp	r3, #88	; 0x58
3000197c:	979ff103 	ldrls	pc, [pc, r3, lsl #2]
30001980:	ea00018e 	b	30001fc0 <_svfprintf_r+0x784>
30001984:	30001ff8 	strdcc	r1, [r0], -r8
30001988:	30001fc0 	andcc	r1, r0, r0, asr #31
3000198c:	30001fc0 	andcc	r1, r0, r0, asr #31
30001990:	3000201c 	andcc	r2, r0, ip, lsl r0
30001994:	30001fc0 	andcc	r1, r0, r0, asr #31
30001998:	30001fc0 	andcc	r1, r0, r0, asr #31
3000199c:	30001fc0 	andcc	r1, r0, r0, asr #31
300019a0:	30001fc0 	andcc	r1, r0, r0, asr #31
300019a4:	30001fc0 	andcc	r1, r0, r0, asr #31
300019a8:	30001fc0 	andcc	r1, r0, r0, asr #31
300019ac:	300021d4 	ldrdcc	r2, [r0], -r4
300019b0:	30002200 	andcc	r2, r0, r0, lsl #4
300019b4:	30001fc0 	andcc	r1, r0, r0, asr #31
300019b8:	30002160 	andcc	r2, r0, r0, ror #2
300019bc:	30002180 	andcc	r2, r0, r0, lsl #3
300019c0:	30001fc0 	andcc	r1, r0, r0, asr #31
300019c4:	30002218 	andcc	r2, r0, r8, lsl r2
300019c8:	30002238 	andcc	r2, r0, r8, lsr r2
300019cc:	30002238 	andcc	r2, r0, r8, lsr r2
300019d0:	30002238 	andcc	r2, r0, r8, lsr r2
300019d4:	30002238 	andcc	r2, r0, r8, lsr r2
300019d8:	30002238 	andcc	r2, r0, r8, lsr r2
300019dc:	30002238 	andcc	r2, r0, r8, lsr r2
300019e0:	30002238 	andcc	r2, r0, r8, lsr r2
300019e4:	30002238 	andcc	r2, r0, r8, lsr r2
300019e8:	30002238 	andcc	r2, r0, r8, lsr r2
300019ec:	30001fc0 	andcc	r1, r0, r0, asr #31
300019f0:	30001fc0 	andcc	r1, r0, r0, asr #31
300019f4:	30001fc0 	andcc	r1, r0, r0, asr #31
300019f8:	30001fc0 	andcc	r1, r0, r0, asr #31
300019fc:	30001fc0 	andcc	r1, r0, r0, asr #31
30001a00:	30001fc0 	andcc	r1, r0, r0, asr #31
30001a04:	30001fc0 	andcc	r1, r0, r0, asr #31
30001a08:	30001fc0 	andcc	r1, r0, r0, asr #31
30001a0c:	30001fc0 	andcc	r1, r0, r0, asr #31
30001a10:	30001fc0 	andcc	r1, r0, r0, asr #31
30001a14:	3000203c 	andcc	r2, r0, ip, lsr r0
30001a18:	30002090 	mulcc	r0, r0, r0
30001a1c:	30001fc0 	andcc	r1, r0, r0, asr #31
30001a20:	30002090 	mulcc	r0, r0, r0
30001a24:	30001fc0 	andcc	r1, r0, r0, asr #31
30001a28:	30001fc0 	andcc	r1, r0, r0, asr #31
30001a2c:	30001fc0 	andcc	r1, r0, r0, asr #31
30001a30:	30001fc0 	andcc	r1, r0, r0, asr #31
30001a34:	30002140 	andcc	r2, r0, r0, asr #2
30001a38:	30001fc0 	andcc	r1, r0, r0, asr #31
30001a3c:	30001fc0 	andcc	r1, r0, r0, asr #31
30001a40:	30002368 	andcc	r2, r0, r8, ror #6
30001a44:	30001fc0 	andcc	r1, r0, r0, asr #31
30001a48:	30001fc0 	andcc	r1, r0, r0, asr #31
30001a4c:	30001fc0 	andcc	r1, r0, r0, asr #31
30001a50:	30001fc0 	andcc	r1, r0, r0, asr #31
30001a54:	30001fc0 	andcc	r1, r0, r0, asr #31
30001a58:	300022d0 	ldrdcc	r2, [r0], -r0
30001a5c:	30001fc0 	andcc	r1, r0, r0, asr #31
30001a60:	30001fc0 	andcc	r1, r0, r0, asr #31
30001a64:	3000250c 	andcc	r2, r0, ip, lsl #10
30001a68:	30001fc0 	andcc	r1, r0, r0, asr #31
30001a6c:	30001fc0 	andcc	r1, r0, r0, asr #31
30001a70:	30001fc0 	andcc	r1, r0, r0, asr #31
30001a74:	30001fc0 	andcc	r1, r0, r0, asr #31
30001a78:	30001fc0 	andcc	r1, r0, r0, asr #31
30001a7c:	30001fc0 	andcc	r1, r0, r0, asr #31
30001a80:	30001fc0 	andcc	r1, r0, r0, asr #31
30001a84:	30001fc0 	andcc	r1, r0, r0, asr #31
30001a88:	30001fc0 	andcc	r1, r0, r0, asr #31
30001a8c:	30001fc0 	andcc	r1, r0, r0, asr #31
30001a90:	300023b0 	strhcc	r2, [r0], -r0
30001a94:	30002554 	andcc	r2, r0, r4, asr r5
30001a98:	30002090 	mulcc	r0, r0, r0
30001a9c:	30002090 	mulcc	r0, r0, r0
30001aa0:	30002090 	mulcc	r0, r0, r0
30001aa4:	30002268 	andcc	r2, r0, r8, ror #4
30001aa8:	30002554 	andcc	r2, r0, r4, asr r5
30001aac:	30001fc0 	andcc	r1, r0, r0, asr #31
30001ab0:	30001fc0 	andcc	r1, r0, r0, asr #31
30001ab4:	3000227c 	andcc	r2, r0, ip, ror r2
30001ab8:	30001fc0 	andcc	r1, r0, r0, asr #31
30001abc:	300022a4 	andcc	r2, r0, r4, lsr #5
30001ac0:	300023e8 	andcc	r2, r0, r8, ror #7
30001ac4:	30002318 	andcc	r2, r0, r8, lsl r3
30001ac8:	300024ec 	andcc	r2, r0, ip, ror #9
30001acc:	30001fc0 	andcc	r1, r0, r0, asr #31
30001ad0:	30002424 	andcc	r2, r0, r4, lsr #8
30001ad4:	30001fc0 	andcc	r1, r0, r0, asr #31
30001ad8:	300024a0 	andcc	r2, r0, r0, lsr #9
30001adc:	30001fc0 	andcc	r1, r0, r0, asr #31
30001ae0:	30001fc0 	andcc	r1, r0, r0, asr #31
30001ae4:	30001b70 	andcc	r1, r0, r0, ror fp
30001ae8:	e1a0000b 	mov	r0, fp
30001aec:	e1a0100a 	mov	r1, sl
30001af0:	e28d20dc 	add	r2, sp, #220	; 0xdc
30001af4:	ebfffeee 	bl	300016b4 <__sprint_r>
30001af8:	e3500000 	cmp	r0, #0
30001afc:	1a000011 	bne	30001b48 <_svfprintf_r+0x30c>
30001b00:	e1a04009 	mov	r4, r9
30001b04:	eaffff87 	b	30001928 <_svfprintf_r+0xec>
30001b08:	e5846004 	str	r6, [r4, #4]
30001b0c:	e59d30e0 	ldr	r3, [sp, #224]	; 0xe0
30001b10:	e59d20e4 	ldr	r2, [sp, #228]	; 0xe4
30001b14:	e2833001 	add	r3, r3, #1
30001b18:	e0862002 	add	r2, r6, r2
30001b1c:	e3530007 	cmp	r3, #7
30001b20:	e5847000 	str	r7, [r4]
30001b24:	e58d20e4 	str	r2, [sp, #228]	; 0xe4
30001b28:	e58d30e0 	str	r3, [sp, #224]	; 0xe0
30001b2c:	da0002cd 	ble	30002668 <_svfprintf_r+0xe2c>
30001b30:	e1a0000b 	mov	r0, fp
30001b34:	e1a0100a 	mov	r1, sl
30001b38:	e28d20dc 	add	r2, sp, #220	; 0xdc
30001b3c:	ebfffedc 	bl	300016b4 <__sprint_r>
30001b40:	e3500000 	cmp	r0, #0
30001b44:	0a0002c6 	beq	30002664 <_svfprintf_r+0xe28>
30001b48:	e1a0600a 	mov	r6, sl
30001b4c:	e1d630bc 	ldrh	r3, [r6, #12]
30001b50:	e59d2038 	ldr	r2, [sp, #56]	; 0x38
30001b54:	e3130040 	tst	r3, #64	; 0x40
30001b58:	13e02000 	mvnne	r2, #0
30001b5c:	e58d2038 	str	r2, [sp, #56]	; 0x38
30001b60:	e59d0038 	ldr	r0, [sp, #56]	; 0x38
30001b64:	e28ddf45 	add	sp, sp, #276	; 0x114
30001b68:	e8bd4ff0 	pop	{r4, r5, r6, r7, r8, r9, sl, fp, lr}
30001b6c:	e12fff1e 	bx	lr
30001b70:	e59d0028 	ldr	r0, [sp, #40]	; 0x28
30001b74:	e59fcf24 	ldr	ip, [pc, #3876]	; 30002aa0 <_svfprintf_r+0x1264>
30001b78:	e3100020 	tst	r0, #32
30001b7c:	e58d2050 	str	r2, [sp, #80]	; 0x50
30001b80:	e58dc058 	str	ip, [sp, #88]	; 0x58
30001b84:	0a000266 	beq	30002524 <_svfprintf_r+0xce8>
30001b88:	e59d102c 	ldr	r1, [sp, #44]	; 0x2c
30001b8c:	e2813007 	add	r3, r1, #7
30001b90:	e3c33007 	bic	r3, r3, #7
30001b94:	e89300c0 	ldm	r3, {r6, r7}
30001b98:	e2833008 	add	r3, r3, #8
30001b9c:	e58d302c 	str	r3, [sp, #44]	; 0x2c
30001ba0:	e1960007 	orrs	r0, r6, r7
30001ba4:	e59d1028 	ldr	r1, [sp, #40]	; 0x28
30001ba8:	03a02000 	moveq	r2, #0
30001bac:	13a02001 	movne	r2, #1
30001bb0:	e1110002 	tst	r1, r2
30001bb4:	13a03030 	movne	r3, #48	; 0x30
30001bb8:	15cd310c 	strbne	r3, [sp, #268]	; 0x10c
30001bbc:	159d3028 	ldrne	r3, [sp, #40]	; 0x28
30001bc0:	159d2050 	ldrne	r2, [sp, #80]	; 0x50
30001bc4:	13833002 	orrne	r3, r3, #2
30001bc8:	15cd210d 	strbne	r2, [sp, #269]	; 0x10d
30001bcc:	158d3028 	strne	r3, [sp, #40]	; 0x28
30001bd0:	13a02001 	movne	r2, #1
30001bd4:	e3a03002 	mov	r3, #2
30001bd8:	e3a0c000 	mov	ip, #0
30001bdc:	e5cdc10f 	strb	ip, [sp, #271]	; 0x10f
30001be0:	e3580000 	cmp	r8, #0
30001be4:	a59d0028 	ldrge	r0, [sp, #40]	; 0x28
30001be8:	a3c00080 	bicge	r0, r0, #128	; 0x80
30001bec:	a58d0028 	strge	r0, [sp, #40]	; 0x28
30001bf0:	e3580000 	cmp	r8, #0
30001bf4:	13822001 	orrne	r2, r2, #1
30001bf8:	e3520000 	cmp	r2, #0
30001bfc:	0a0002f1 	beq	300027c8 <_svfprintf_r+0xf8c>
30001c00:	e3530001 	cmp	r3, #1
30001c04:	0a0003e3 	beq	30002b98 <_svfprintf_r+0x135c>
30001c08:	e3530002 	cmp	r3, #2
30001c0c:	0a000404 	beq	30002c24 <_svfprintf_r+0x13e8>
30001c10:	e59d105c 	ldr	r1, [sp, #92]	; 0x5c
30001c14:	e58d1044 	str	r1, [sp, #68]	; 0x44
30001c18:	e1a0c004 	mov	ip, r4
30001c1c:	e1a02001 	mov	r2, r1
30001c20:	e1a011a7 	lsr	r1, r7, #3
30001c24:	e1a001a6 	lsr	r0, r6, #3
30001c28:	e1800e87 	orr	r0, r0, r7, lsl #29
30001c2c:	e1a04001 	mov	r4, r1
30001c30:	e1a07004 	mov	r7, r4
30001c34:	e2061007 	and	r1, r6, #7
30001c38:	e1a06000 	mov	r6, r0
30001c3c:	e2813030 	add	r3, r1, #48	; 0x30
30001c40:	e1960007 	orrs	r0, r6, r7
30001c44:	e5623001 	strb	r3, [r2, #-1]!
30001c48:	1afffff4 	bne	30001c20 <_svfprintf_r+0x3e4>
30001c4c:	e59d1028 	ldr	r1, [sp, #40]	; 0x28
30001c50:	e3110001 	tst	r1, #1
30001c54:	e1a0400c 	mov	r4, ip
30001c58:	e58d2044 	str	r2, [sp, #68]	; 0x44
30001c5c:	1a000464 	bne	30002df4 <_svfprintf_r+0x15b8>
30001c60:	e59d305c 	ldr	r3, [sp, #92]	; 0x5c
30001c64:	e0622003 	rsb	r2, r2, r3
30001c68:	e58d203c 	str	r2, [sp, #60]	; 0x3c
30001c6c:	e59d003c 	ldr	r0, [sp, #60]	; 0x3c
30001c70:	e1500008 	cmp	r0, r8
30001c74:	b1a00008 	movlt	r0, r8
30001c78:	e58d0030 	str	r0, [sp, #48]	; 0x30
30001c7c:	e58d8054 	str	r8, [sp, #84]	; 0x54
30001c80:	e5dd310f 	ldrb	r3, [sp, #271]	; 0x10f
30001c84:	e3530000 	cmp	r3, #0
30001c88:	0a000002 	beq	30001c98 <_svfprintf_r+0x45c>
30001c8c:	e59d0030 	ldr	r0, [sp, #48]	; 0x30
30001c90:	e2800001 	add	r0, r0, #1
30001c94:	e58d0030 	str	r0, [sp, #48]	; 0x30
30001c98:	e59d1028 	ldr	r1, [sp, #40]	; 0x28
30001c9c:	e2111002 	ands	r1, r1, #2
30001ca0:	159d2030 	ldrne	r2, [sp, #48]	; 0x30
30001ca4:	e59d3028 	ldr	r3, [sp, #40]	; 0x28
30001ca8:	12822002 	addne	r2, r2, #2
30001cac:	158d2030 	strne	r2, [sp, #48]	; 0x30
30001cb0:	e2133084 	ands	r3, r3, #132	; 0x84
30001cb4:	e58d104c 	str	r1, [sp, #76]	; 0x4c
30001cb8:	e58d3048 	str	r3, [sp, #72]	; 0x48
30001cbc:	1a000033 	bne	30001d90 <_svfprintf_r+0x554>
30001cc0:	e28d0030 	add	r0, sp, #48	; 0x30
30001cc4:	e8901001 	ldm	r0, {r0, ip}
30001cc8:	e060600c 	rsb	r6, r0, ip
30001ccc:	e3560000 	cmp	r6, #0
30001cd0:	da00002e 	ble	30001d90 <_svfprintf_r+0x554>
30001cd4:	e3560010 	cmp	r6, #16
30001cd8:	e59f7dc4 	ldr	r7, [pc, #3524]	; 30002aa4 <_svfprintf_r+0x1268>
30001cdc:	c3a08010 	movgt	r8, #16
30001ce0:	ca000003 	bgt	30001cf4 <_svfprintf_r+0x4b8>
30001ce4:	ea000017 	b	30001d48 <_svfprintf_r+0x50c>
30001ce8:	e2466010 	sub	r6, r6, #16
30001cec:	e3560010 	cmp	r6, #16
30001cf0:	da000014 	ble	30001d48 <_svfprintf_r+0x50c>
30001cf4:	e5848004 	str	r8, [r4, #4]
30001cf8:	e59d30e0 	ldr	r3, [sp, #224]	; 0xe0
30001cfc:	e59d20e4 	ldr	r2, [sp, #228]	; 0xe4
30001d00:	e2833001 	add	r3, r3, #1
30001d04:	e3530007 	cmp	r3, #7
30001d08:	e2822010 	add	r2, r2, #16
30001d0c:	e5847000 	str	r7, [r4]
30001d10:	e58d20e4 	str	r2, [sp, #228]	; 0xe4
30001d14:	e58d30e0 	str	r3, [sp, #224]	; 0xe0
30001d18:	d2844008 	addle	r4, r4, #8
30001d1c:	dafffff1 	ble	30001ce8 <_svfprintf_r+0x4ac>
30001d20:	e1a0000b 	mov	r0, fp
30001d24:	e1a0100a 	mov	r1, sl
30001d28:	e28d20dc 	add	r2, sp, #220	; 0xdc
30001d2c:	ebfffe60 	bl	300016b4 <__sprint_r>
30001d30:	e3500000 	cmp	r0, #0
30001d34:	1affff83 	bne	30001b48 <_svfprintf_r+0x30c>
30001d38:	e2466010 	sub	r6, r6, #16
30001d3c:	e3560010 	cmp	r6, #16
30001d40:	e1a04009 	mov	r4, r9
30001d44:	caffffea 	bgt	30001cf4 <_svfprintf_r+0x4b8>
30001d48:	e5846004 	str	r6, [r4, #4]
30001d4c:	e59d30e0 	ldr	r3, [sp, #224]	; 0xe0
30001d50:	e2832001 	add	r2, r3, #1
30001d54:	e59d30e4 	ldr	r3, [sp, #228]	; 0xe4
30001d58:	e3520007 	cmp	r2, #7
30001d5c:	e0833006 	add	r3, r3, r6
30001d60:	e5847000 	str	r7, [r4]
30001d64:	e58d30e4 	str	r3, [sp, #228]	; 0xe4
30001d68:	e58d20e0 	str	r2, [sp, #224]	; 0xe0
30001d6c:	d2844008 	addle	r4, r4, #8
30001d70:	da000006 	ble	30001d90 <_svfprintf_r+0x554>
30001d74:	e1a0000b 	mov	r0, fp
30001d78:	e1a0100a 	mov	r1, sl
30001d7c:	e28d20dc 	add	r2, sp, #220	; 0xdc
30001d80:	ebfffe4b 	bl	300016b4 <__sprint_r>
30001d84:	e3500000 	cmp	r0, #0
30001d88:	1affff6e 	bne	30001b48 <_svfprintf_r+0x30c>
30001d8c:	e1a04009 	mov	r4, r9
30001d90:	e5dd310f 	ldrb	r3, [sp, #271]	; 0x10f
30001d94:	e3530000 	cmp	r3, #0
30001d98:	0a00000d 	beq	30001dd4 <_svfprintf_r+0x598>
30001d9c:	e3a03001 	mov	r3, #1
30001da0:	e5843004 	str	r3, [r4, #4]
30001da4:	e59d20e4 	ldr	r2, [sp, #228]	; 0xe4
30001da8:	e59d30e0 	ldr	r3, [sp, #224]	; 0xe0
30001dac:	e2821001 	add	r1, r2, #1
30001db0:	e2833001 	add	r3, r3, #1
30001db4:	e28d2f43 	add	r2, sp, #268	; 0x10c
30001db8:	e3530007 	cmp	r3, #7
30001dbc:	e2822003 	add	r2, r2, #3
30001dc0:	e5842000 	str	r2, [r4]
30001dc4:	e58d10e4 	str	r1, [sp, #228]	; 0xe4
30001dc8:	e58d30e0 	str	r3, [sp, #224]	; 0xe0
30001dcc:	d2844008 	addle	r4, r4, #8
30001dd0:	ca000322 	bgt	30002a60 <_svfprintf_r+0x1224>
30001dd4:	e59d104c 	ldr	r1, [sp, #76]	; 0x4c
30001dd8:	e3510000 	cmp	r1, #0
30001ddc:	0a00000c 	beq	30001e14 <_svfprintf_r+0x5d8>
30001de0:	e3a03002 	mov	r3, #2
30001de4:	e5843004 	str	r3, [r4, #4]
30001de8:	e59d30e0 	ldr	r3, [sp, #224]	; 0xe0
30001dec:	e59d20e4 	ldr	r2, [sp, #228]	; 0xe4
30001df0:	e2833001 	add	r3, r3, #1
30001df4:	e2821002 	add	r1, r2, #2
30001df8:	e3530007 	cmp	r3, #7
30001dfc:	e28d2f43 	add	r2, sp, #268	; 0x10c
30001e00:	e5842000 	str	r2, [r4]
30001e04:	e58d10e4 	str	r1, [sp, #228]	; 0xe4
30001e08:	e58d30e0 	str	r3, [sp, #224]	; 0xe0
30001e0c:	d2844008 	addle	r4, r4, #8
30001e10:	ca00031a 	bgt	30002a80 <_svfprintf_r+0x1244>
30001e14:	e59d2048 	ldr	r2, [sp, #72]	; 0x48
30001e18:	e3520080 	cmp	r2, #128	; 0x80
30001e1c:	0a00027b 	beq	30002810 <_svfprintf_r+0xfd4>
30001e20:	e59d0054 	ldr	r0, [sp, #84]	; 0x54
30001e24:	e59d103c 	ldr	r1, [sp, #60]	; 0x3c
30001e28:	e0616000 	rsb	r6, r1, r0
30001e2c:	e3560000 	cmp	r6, #0
30001e30:	da00002e 	ble	30001ef0 <_svfprintf_r+0x6b4>
30001e34:	e3560010 	cmp	r6, #16
30001e38:	e59f7c78 	ldr	r7, [pc, #3192]	; 30002ab8 <_svfprintf_r+0x127c>
30001e3c:	c3a08010 	movgt	r8, #16
30001e40:	ca000003 	bgt	30001e54 <_svfprintf_r+0x618>
30001e44:	ea000017 	b	30001ea8 <_svfprintf_r+0x66c>
30001e48:	e2466010 	sub	r6, r6, #16
30001e4c:	e3560010 	cmp	r6, #16
30001e50:	da000014 	ble	30001ea8 <_svfprintf_r+0x66c>
30001e54:	e5848004 	str	r8, [r4, #4]
30001e58:	e59d30e0 	ldr	r3, [sp, #224]	; 0xe0
30001e5c:	e59d20e4 	ldr	r2, [sp, #228]	; 0xe4
30001e60:	e2833001 	add	r3, r3, #1
30001e64:	e3530007 	cmp	r3, #7
30001e68:	e2822010 	add	r2, r2, #16
30001e6c:	e5847000 	str	r7, [r4]
30001e70:	e58d20e4 	str	r2, [sp, #228]	; 0xe4
30001e74:	e58d30e0 	str	r3, [sp, #224]	; 0xe0
30001e78:	d2844008 	addle	r4, r4, #8
30001e7c:	dafffff1 	ble	30001e48 <_svfprintf_r+0x60c>
30001e80:	e1a0000b 	mov	r0, fp
30001e84:	e1a0100a 	mov	r1, sl
30001e88:	e28d20dc 	add	r2, sp, #220	; 0xdc
30001e8c:	ebfffe08 	bl	300016b4 <__sprint_r>
30001e90:	e3500000 	cmp	r0, #0
30001e94:	1affff2b 	bne	30001b48 <_svfprintf_r+0x30c>
30001e98:	e2466010 	sub	r6, r6, #16
30001e9c:	e3560010 	cmp	r6, #16
30001ea0:	e1a04009 	mov	r4, r9
30001ea4:	caffffea 	bgt	30001e54 <_svfprintf_r+0x618>
30001ea8:	e5846004 	str	r6, [r4, #4]
30001eac:	e28d20e0 	add	r2, sp, #224	; 0xe0
30001eb0:	e892000c 	ldm	r2, {r2, r3}
30001eb4:	e2822001 	add	r2, r2, #1
30001eb8:	e0833006 	add	r3, r3, r6
30001ebc:	e3520007 	cmp	r2, #7
30001ec0:	e5847000 	str	r7, [r4]
30001ec4:	e58d30e4 	str	r3, [sp, #228]	; 0xe4
30001ec8:	e58d20e0 	str	r2, [sp, #224]	; 0xe0
30001ecc:	d2844008 	addle	r4, r4, #8
30001ed0:	da000006 	ble	30001ef0 <_svfprintf_r+0x6b4>
30001ed4:	e1a0000b 	mov	r0, fp
30001ed8:	e1a0100a 	mov	r1, sl
30001edc:	e28d20dc 	add	r2, sp, #220	; 0xdc
30001ee0:	ebfffdf3 	bl	300016b4 <__sprint_r>
30001ee4:	e3500000 	cmp	r0, #0
30001ee8:	1affff16 	bne	30001b48 <_svfprintf_r+0x30c>
30001eec:	e1a04009 	mov	r4, r9
30001ef0:	e59d2028 	ldr	r2, [sp, #40]	; 0x28
30001ef4:	e3120c01 	tst	r2, #256	; 0x100
30001ef8:	1a0001e8 	bne	300026a0 <_svfprintf_r+0xe64>
30001efc:	e59d303c 	ldr	r3, [sp, #60]	; 0x3c
30001f00:	e5843004 	str	r3, [r4, #4]
30001f04:	e59d30e0 	ldr	r3, [sp, #224]	; 0xe0
30001f08:	e59d20e4 	ldr	r2, [sp, #228]	; 0xe4
30001f0c:	e59dc03c 	ldr	ip, [sp, #60]	; 0x3c
30001f10:	e2833001 	add	r3, r3, #1
30001f14:	e59d0044 	ldr	r0, [sp, #68]	; 0x44
30001f18:	e082200c 	add	r2, r2, ip
30001f1c:	e3530007 	cmp	r3, #7
30001f20:	e5840000 	str	r0, [r4]
30001f24:	e58d20e4 	str	r2, [sp, #228]	; 0xe4
30001f28:	e58d30e0 	str	r3, [sp, #224]	; 0xe0
30001f2c:	ca0001c2 	bgt	3000263c <_svfprintf_r+0xe00>
30001f30:	e2844008 	add	r4, r4, #8
30001f34:	e59d0028 	ldr	r0, [sp, #40]	; 0x28
30001f38:	e3100004 	tst	r0, #4
30001f3c:	0a0001c8 	beq	30002664 <_svfprintf_r+0xe28>
30001f40:	e59d1034 	ldr	r1, [sp, #52]	; 0x34
30001f44:	e59d2030 	ldr	r2, [sp, #48]	; 0x30
30001f48:	e0626001 	rsb	r6, r2, r1
30001f4c:	e3560000 	cmp	r6, #0
30001f50:	da0001c3 	ble	30002664 <_svfprintf_r+0xe28>
30001f54:	e3560010 	cmp	r6, #16
30001f58:	e59f7b44 	ldr	r7, [pc, #2884]	; 30002aa4 <_svfprintf_r+0x1268>
30001f5c:	c3a08010 	movgt	r8, #16
30001f60:	ca000003 	bgt	30001f74 <_svfprintf_r+0x738>
30001f64:	eafffee7 	b	30001b08 <_svfprintf_r+0x2cc>
30001f68:	e2466010 	sub	r6, r6, #16
30001f6c:	e3560010 	cmp	r6, #16
30001f70:	dafffee4 	ble	30001b08 <_svfprintf_r+0x2cc>
30001f74:	e5848004 	str	r8, [r4, #4]
30001f78:	e59d30e0 	ldr	r3, [sp, #224]	; 0xe0
30001f7c:	e59d20e4 	ldr	r2, [sp, #228]	; 0xe4
30001f80:	e2833001 	add	r3, r3, #1
30001f84:	e3530007 	cmp	r3, #7
30001f88:	e2822010 	add	r2, r2, #16
30001f8c:	e5847000 	str	r7, [r4]
30001f90:	e58d20e4 	str	r2, [sp, #228]	; 0xe4
30001f94:	e58d30e0 	str	r3, [sp, #224]	; 0xe0
30001f98:	d2844008 	addle	r4, r4, #8
30001f9c:	dafffff1 	ble	30001f68 <_svfprintf_r+0x72c>
30001fa0:	e1a0000b 	mov	r0, fp
30001fa4:	e1a0100a 	mov	r1, sl
30001fa8:	e28d20dc 	add	r2, sp, #220	; 0xdc
30001fac:	ebfffdc0 	bl	300016b4 <__sprint_r>
30001fb0:	e3500000 	cmp	r0, #0
30001fb4:	1afffee3 	bne	30001b48 <_svfprintf_r+0x30c>
30001fb8:	e1a04009 	mov	r4, r9
30001fbc:	eaffffe9 	b	30001f68 <_svfprintf_r+0x72c>
30001fc0:	e3520000 	cmp	r2, #0
30001fc4:	e58d2050 	str	r2, [sp, #80]	; 0x50
30001fc8:	0a00042e 	beq	30003088 <_svfprintf_r+0x184c>
30001fcc:	e3a01001 	mov	r1, #1
30001fd0:	e5cd20b4 	strb	r2, [sp, #180]	; 0xb4
30001fd4:	e28d30b4 	add	r3, sp, #180	; 0xb4
30001fd8:	e3a02000 	mov	r2, #0
30001fdc:	e58d1030 	str	r1, [sp, #48]	; 0x30
30001fe0:	e5cd210f 	strb	r2, [sp, #271]	; 0x10f
30001fe4:	e58d3044 	str	r3, [sp, #68]	; 0x44
30001fe8:	e58d103c 	str	r1, [sp, #60]	; 0x3c
30001fec:	e3a03000 	mov	r3, #0
30001ff0:	e58d3054 	str	r3, [sp, #84]	; 0x54
30001ff4:	eaffff27 	b	30001c98 <_svfprintf_r+0x45c>
30001ff8:	e5dd310f 	ldrb	r3, [sp, #271]	; 0x10f
30001ffc:	e3530000 	cmp	r3, #0
30002000:	1a000390 	bne	30002e48 <_svfprintf_r+0x160c>
30002004:	e5cdc10f 	strb	ip, [sp, #271]	; 0x10f
30002008:	e59d102c 	ldr	r1, [sp, #44]	; 0x2c
3000200c:	e5d52000 	ldrb	r2, [r5]
30002010:	e1a03005 	mov	r3, r5
30002014:	e58d102c 	str	r1, [sp, #44]	; 0x2c
30002018:	eafffe54 	b	30001970 <_svfprintf_r+0x134>
3000201c:	e59d3028 	ldr	r3, [sp, #40]	; 0x28
30002020:	e3833001 	orr	r3, r3, #1
30002024:	e58d3028 	str	r3, [sp, #40]	; 0x28
30002028:	e59d102c 	ldr	r1, [sp, #44]	; 0x2c
3000202c:	e5d52000 	ldrb	r2, [r5]
30002030:	e1a03005 	mov	r3, r5
30002034:	e58d102c 	str	r1, [sp, #44]	; 0x2c
30002038:	eafffe4c 	b	30001970 <_svfprintf_r+0x134>
3000203c:	e58d2050 	str	r2, [sp, #80]	; 0x50
30002040:	e59d2028 	ldr	r2, [sp, #40]	; 0x28
30002044:	e3822010 	orr	r2, r2, #16
30002048:	e58d2028 	str	r2, [sp, #40]	; 0x28
3000204c:	e59d3028 	ldr	r3, [sp, #40]	; 0x28
30002050:	e3130020 	tst	r3, #32
30002054:	0a000142 	beq	30002564 <_svfprintf_r+0xd28>
30002058:	e59dc02c 	ldr	ip, [sp, #44]	; 0x2c
3000205c:	e28c3007 	add	r3, ip, #7
30002060:	e3c33007 	bic	r3, r3, #7
30002064:	e89300c0 	ldm	r3, {r6, r7}
30002068:	e2833008 	add	r3, r3, #8
3000206c:	e58d302c 	str	r3, [sp, #44]	; 0x2c
30002070:	e3560000 	cmp	r6, #0
30002074:	e2d73000 	sbcs	r3, r7, #0
30002078:	ba00033e 	blt	30002d78 <_svfprintf_r+0x153c>
3000207c:	e196c007 	orrs	ip, r6, r7
30002080:	03a02000 	moveq	r2, #0
30002084:	13a02001 	movne	r2, #1
30002088:	e3a03001 	mov	r3, #1
3000208c:	eafffed3 	b	30001be0 <_svfprintf_r+0x3a4>
30002090:	e59d1028 	ldr	r1, [sp, #40]	; 0x28
30002094:	e3110008 	tst	r1, #8
30002098:	e58d2050 	str	r2, [sp, #80]	; 0x50
3000209c:	059dc02c 	ldreq	ip, [sp, #44]	; 0x2c
300020a0:	159d202c 	ldrne	r2, [sp, #44]	; 0x2c
300020a4:	028c3007 	addeq	r3, ip, #7
300020a8:	12823007 	addne	r3, r2, #7
300020ac:	e3c33007 	bic	r3, r3, #7
300020b0:	e5936004 	ldr	r6, [r3, #4]
300020b4:	e5937000 	ldr	r7, [r3]
300020b8:	e1a01006 	mov	r1, r6
300020bc:	e2833008 	add	r3, r3, #8
300020c0:	e1a00007 	mov	r0, r7
300020c4:	e58d302c 	str	r3, [sp, #44]	; 0x2c
300020c8:	e58d7040 	str	r7, [sp, #64]	; 0x40
300020cc:	e58d6064 	str	r6, [sp, #100]	; 0x64
300020d0:	eb001401 	bl	300070dc <__isinfd>
300020d4:	e2503000 	subs	r3, r0, #0
300020d8:	e1a01006 	mov	r1, r6
300020dc:	e1a00007 	mov	r0, r7
300020e0:	0a0003f9 	beq	300030cc <_svfprintf_r+0x1890>
300020e4:	e3a03000 	mov	r3, #0
300020e8:	e3a02000 	mov	r2, #0
300020ec:	eb0017be 	bl	30007fec <__aeabi_dcmplt>
300020f0:	e59dc050 	ldr	ip, [sp, #80]	; 0x50
300020f4:	e3500000 	cmp	r0, #0
300020f8:	13a0302d 	movne	r3, #45	; 0x2d
300020fc:	e3a00003 	mov	r0, #3
30002100:	e59f19a0 	ldr	r1, [pc, #2464]	; 30002aa8 <_svfprintf_r+0x126c>
30002104:	e59f29a0 	ldr	r2, [pc, #2464]	; 30002aac <_svfprintf_r+0x1270>
30002108:	05dd310f 	ldrbeq	r3, [sp, #271]	; 0x10f
3000210c:	15cd310f 	strbne	r3, [sp, #271]	; 0x10f
30002110:	e58d0030 	str	r0, [sp, #48]	; 0x30
30002114:	e35c0047 	cmp	ip, #71	; 0x47
30002118:	e59d0028 	ldr	r0, [sp, #40]	; 0x28
3000211c:	d1a02001 	movle	r2, r1
30002120:	e58d2044 	str	r2, [sp, #68]	; 0x44
30002124:	e3c00080 	bic	r0, r0, #128	; 0x80
30002128:	e3a01003 	mov	r1, #3
3000212c:	e3a02000 	mov	r2, #0
30002130:	e58d0028 	str	r0, [sp, #40]	; 0x28
30002134:	e58d103c 	str	r1, [sp, #60]	; 0x3c
30002138:	e58d2054 	str	r2, [sp, #84]	; 0x54
3000213c:	eafffed0 	b	30001c84 <_svfprintf_r+0x448>
30002140:	e59d3028 	ldr	r3, [sp, #40]	; 0x28
30002144:	e3833008 	orr	r3, r3, #8
30002148:	e58d3028 	str	r3, [sp, #40]	; 0x28
3000214c:	e59d102c 	ldr	r1, [sp, #44]	; 0x2c
30002150:	e5d52000 	ldrb	r2, [r5]
30002154:	e1a03005 	mov	r3, r5
30002158:	e58d102c 	str	r1, [sp, #44]	; 0x2c
3000215c:	eafffe03 	b	30001970 <_svfprintf_r+0x134>
30002160:	e59d102c 	ldr	r1, [sp, #44]	; 0x2c
30002164:	e59d2028 	ldr	r2, [sp, #40]	; 0x28
30002168:	e3822004 	orr	r2, r2, #4
3000216c:	e58d2028 	str	r2, [sp, #40]	; 0x28
30002170:	e1a03005 	mov	r3, r5
30002174:	e5d52000 	ldrb	r2, [r5]
30002178:	e58d102c 	str	r1, [sp, #44]	; 0x2c
3000217c:	eafffdfb 	b	30001970 <_svfprintf_r+0x134>
30002180:	e1a03005 	mov	r3, r5
30002184:	e4d32001 	ldrb	r2, [r3], #1
30002188:	e352002a 	cmp	r2, #42	; 0x2a
3000218c:	0a000571 	beq	30003758 <_svfprintf_r+0x1f1c>
30002190:	e2421030 	sub	r1, r2, #48	; 0x30
30002194:	e3510009 	cmp	r1, #9
30002198:	83a08000 	movhi	r8, #0
3000219c:	8a00000a 	bhi	300021cc <_svfprintf_r+0x990>
300021a0:	e2855002 	add	r5, r5, #2
300021a4:	e3a08000 	mov	r8, #0
300021a8:	e5552001 	ldrb	r2, [r5, #-1]
300021ac:	e0888108 	add	r8, r8, r8, lsl #2
300021b0:	e0818088 	add	r8, r1, r8, lsl #1
300021b4:	e2421030 	sub	r1, r2, #48	; 0x30
300021b8:	e3510009 	cmp	r1, #9
300021bc:	e1a03005 	mov	r3, r5
300021c0:	e2855001 	add	r5, r5, #1
300021c4:	9afffff7 	bls	300021a8 <_svfprintf_r+0x96c>
300021c8:	e1888fc8 	orr	r8, r8, r8, asr #31
300021cc:	e1a05003 	mov	r5, r3
300021d0:	eafffde7 	b	30001974 <_svfprintf_r+0x138>
300021d4:	e59d102c 	ldr	r1, [sp, #44]	; 0x2c
300021d8:	e5911000 	ldr	r1, [r1]
300021dc:	e59d202c 	ldr	r2, [sp, #44]	; 0x2c
300021e0:	e3510000 	cmp	r1, #0
300021e4:	e58d1034 	str	r1, [sp, #52]	; 0x34
300021e8:	e2821004 	add	r1, r2, #4
300021ec:	ba000454 	blt	30003344 <_svfprintf_r+0x1b08>
300021f0:	e5d52000 	ldrb	r2, [r5]
300021f4:	e1a03005 	mov	r3, r5
300021f8:	e58d102c 	str	r1, [sp, #44]	; 0x2c
300021fc:	eafffddb 	b	30001970 <_svfprintf_r+0x134>
30002200:	e5cd010f 	strb	r0, [sp, #271]	; 0x10f
30002204:	e59d102c 	ldr	r1, [sp, #44]	; 0x2c
30002208:	e5d52000 	ldrb	r2, [r5]
3000220c:	e1a03005 	mov	r3, r5
30002210:	e58d102c 	str	r1, [sp, #44]	; 0x2c
30002214:	eafffdd5 	b	30001970 <_svfprintf_r+0x134>
30002218:	e59d2028 	ldr	r2, [sp, #40]	; 0x28
3000221c:	e3822080 	orr	r2, r2, #128	; 0x80
30002220:	e58d2028 	str	r2, [sp, #40]	; 0x28
30002224:	e59d102c 	ldr	r1, [sp, #44]	; 0x2c
30002228:	e5d52000 	ldrb	r2, [r5]
3000222c:	e1a03005 	mov	r3, r5
30002230:	e58d102c 	str	r1, [sp, #44]	; 0x2c
30002234:	eafffdcd 	b	30001970 <_svfprintf_r+0x134>
30002238:	e2421030 	sub	r1, r2, #48	; 0x30
3000223c:	e3a06000 	mov	r6, #0
30002240:	e1a03005 	mov	r3, r5
30002244:	e4d32001 	ldrb	r2, [r3], #1
30002248:	e0866106 	add	r6, r6, r6, lsl #2
3000224c:	e0816086 	add	r6, r1, r6, lsl #1
30002250:	e2421030 	sub	r1, r2, #48	; 0x30
30002254:	e3510009 	cmp	r1, #9
30002258:	9afffff9 	bls	30002244 <_svfprintf_r+0xa08>
3000225c:	e58d6034 	str	r6, [sp, #52]	; 0x34
30002260:	e1a05003 	mov	r5, r3
30002264:	eafffdc2 	b	30001974 <_svfprintf_r+0x138>
30002268:	e59d1028 	ldr	r1, [sp, #40]	; 0x28
3000226c:	e3811040 	orr	r1, r1, #64	; 0x40
30002270:	e58d1028 	str	r1, [sp, #40]	; 0x28
30002274:	e59d102c 	ldr	r1, [sp, #44]	; 0x2c
30002278:	eaffffdc 	b	300021f0 <_svfprintf_r+0x9b4>
3000227c:	e5d52000 	ldrb	r2, [r5]
30002280:	e352006c 	cmp	r2, #108	; 0x6c
30002284:	0a000388 	beq	300030ac <_svfprintf_r+0x1870>
30002288:	e59d3028 	ldr	r3, [sp, #40]	; 0x28
3000228c:	e59d102c 	ldr	r1, [sp, #44]	; 0x2c
30002290:	e3833010 	orr	r3, r3, #16
30002294:	e58d3028 	str	r3, [sp, #40]	; 0x28
30002298:	e58d102c 	str	r1, [sp, #44]	; 0x2c
3000229c:	e1a03005 	mov	r3, r5
300022a0:	eafffdb2 	b	30001970 <_svfprintf_r+0x134>
300022a4:	e59dc028 	ldr	ip, [sp, #40]	; 0x28
300022a8:	e31c0020 	tst	ip, #32
300022ac:	0a0002ea 	beq	30002e5c <_svfprintf_r+0x1620>
300022b0:	e59d002c 	ldr	r0, [sp, #44]	; 0x2c
300022b4:	e59dc038 	ldr	ip, [sp, #56]	; 0x38
300022b8:	e5903000 	ldr	r3, [r0]
300022bc:	e1a0100c 	mov	r1, ip
300022c0:	e1a02fc1 	asr	r2, r1, #31
300022c4:	e8830006 	stm	r3, {r1, r2}
300022c8:	e2807004 	add	r7, r0, #4
300022cc:	eafffd7e 	b	300018cc <_svfprintf_r+0x90>
300022d0:	e58d2050 	str	r2, [sp, #80]	; 0x50
300022d4:	e59d2028 	ldr	r2, [sp, #40]	; 0x28
300022d8:	e3822010 	orr	r2, r2, #16
300022dc:	e58d2028 	str	r2, [sp, #40]	; 0x28
300022e0:	e59d3028 	ldr	r3, [sp, #40]	; 0x28
300022e4:	e3130020 	tst	r3, #32
300022e8:	0a000070 	beq	300024b0 <_svfprintf_r+0xc74>
300022ec:	e59dc02c 	ldr	ip, [sp, #44]	; 0x2c
300022f0:	e28c3007 	add	r3, ip, #7
300022f4:	e3c33007 	bic	r3, r3, #7
300022f8:	e89300c0 	ldm	r3, {r6, r7}
300022fc:	e2833008 	add	r3, r3, #8
30002300:	e1960007 	orrs	r0, r6, r7
30002304:	e58d302c 	str	r3, [sp, #44]	; 0x2c
30002308:	03a02000 	moveq	r2, #0
3000230c:	13a02001 	movne	r2, #1
30002310:	e3a03001 	mov	r3, #1
30002314:	eafffe2f 	b	30001bd8 <_svfprintf_r+0x39c>
30002318:	e59d202c 	ldr	r2, [sp, #44]	; 0x2c
3000231c:	e59dc028 	ldr	ip, [sp, #40]	; 0x28
30002320:	e59d002c 	ldr	r0, [sp, #44]	; 0x2c
30002324:	e5926000 	ldr	r6, [r2]
30002328:	e59f1770 	ldr	r1, [pc, #1904]	; 30002aa0 <_svfprintf_r+0x1264>
3000232c:	e3a03078 	mov	r3, #120	; 0x78
30002330:	e3a02030 	mov	r2, #48	; 0x30
30002334:	e38cc002 	orr	ip, ip, #2
30002338:	e2800004 	add	r0, r0, #4
3000233c:	e5cd210c 	strb	r2, [sp, #268]	; 0x10c
30002340:	e5cd310d 	strb	r3, [sp, #269]	; 0x10d
30002344:	e2562000 	subs	r2, r6, #0
30002348:	13a02001 	movne	r2, #1
3000234c:	e58d3050 	str	r3, [sp, #80]	; 0x50
30002350:	e58dc028 	str	ip, [sp, #40]	; 0x28
30002354:	e58d002c 	str	r0, [sp, #44]	; 0x2c
30002358:	e3a07000 	mov	r7, #0
3000235c:	e58d1058 	str	r1, [sp, #88]	; 0x58
30002360:	e3a03002 	mov	r3, #2
30002364:	eafffe1b 	b	30001bd8 <_svfprintf_r+0x39c>
30002368:	e59d3028 	ldr	r3, [sp, #40]	; 0x28
3000236c:	e3833010 	orr	r3, r3, #16
30002370:	e58d3028 	str	r3, [sp, #40]	; 0x28
30002374:	e59dc028 	ldr	ip, [sp, #40]	; 0x28
30002378:	e21c3020 	ands	r3, ip, #32
3000237c:	e58d2050 	str	r2, [sp, #80]	; 0x50
30002380:	0a00001c 	beq	300023f8 <_svfprintf_r+0xbbc>
30002384:	e59d002c 	ldr	r0, [sp, #44]	; 0x2c
30002388:	e2803007 	add	r3, r0, #7
3000238c:	e3c33007 	bic	r3, r3, #7
30002390:	e89300c0 	ldm	r3, {r6, r7}
30002394:	e2833008 	add	r3, r3, #8
30002398:	e1961007 	orrs	r1, r6, r7
3000239c:	e58d302c 	str	r3, [sp, #44]	; 0x2c
300023a0:	03a02000 	moveq	r2, #0
300023a4:	13a02001 	movne	r2, #1
300023a8:	e3a03000 	mov	r3, #0
300023ac:	eafffe09 	b	30001bd8 <_svfprintf_r+0x39c>
300023b0:	e58d2050 	str	r2, [sp, #80]	; 0x50
300023b4:	e59d202c 	ldr	r2, [sp, #44]	; 0x2c
300023b8:	e5923000 	ldr	r3, [r2]
300023bc:	e3a0c001 	mov	ip, #1
300023c0:	e3a00000 	mov	r0, #0
300023c4:	e2822004 	add	r2, r2, #4
300023c8:	e28d10b4 	add	r1, sp, #180	; 0xb4
300023cc:	e58dc030 	str	ip, [sp, #48]	; 0x30
300023d0:	e5cd30b4 	strb	r3, [sp, #180]	; 0xb4
300023d4:	e5cd010f 	strb	r0, [sp, #271]	; 0x10f
300023d8:	e58d202c 	str	r2, [sp, #44]	; 0x2c
300023dc:	e58d1044 	str	r1, [sp, #68]	; 0x44
300023e0:	e58dc03c 	str	ip, [sp, #60]	; 0x3c
300023e4:	eaffff00 	b	30001fec <_svfprintf_r+0x7b0>
300023e8:	e59dc028 	ldr	ip, [sp, #40]	; 0x28
300023ec:	e21c3020 	ands	r3, ip, #32
300023f0:	e58d2050 	str	r2, [sp, #80]	; 0x50
300023f4:	1affffe2 	bne	30002384 <_svfprintf_r+0xb48>
300023f8:	e59d2028 	ldr	r2, [sp, #40]	; 0x28
300023fc:	e2121010 	ands	r1, r2, #16
30002400:	0a0002a7 	beq	30002ea4 <_svfprintf_r+0x1668>
30002404:	e59dc02c 	ldr	ip, [sp, #44]	; 0x2c
30002408:	e59c6000 	ldr	r6, [ip]
3000240c:	e28c0004 	add	r0, ip, #4
30002410:	e2562000 	subs	r2, r6, #0
30002414:	13a02001 	movne	r2, #1
30002418:	e58d002c 	str	r0, [sp, #44]	; 0x2c
3000241c:	e3a07000 	mov	r7, #0
30002420:	eafffdec 	b	30001bd8 <_svfprintf_r+0x39c>
30002424:	e58d2050 	str	r2, [sp, #80]	; 0x50
30002428:	e3a02000 	mov	r2, #0
3000242c:	e59d302c 	ldr	r3, [sp, #44]	; 0x2c
30002430:	e5cd210f 	strb	r2, [sp, #271]	; 0x10f
30002434:	e5933000 	ldr	r3, [r3]
30002438:	e58d3044 	str	r3, [sp, #68]	; 0x44
3000243c:	e3530000 	cmp	r3, #0
30002440:	e59d302c 	ldr	r3, [sp, #44]	; 0x2c
30002444:	e2833004 	add	r3, r3, #4
30002448:	e58d302c 	str	r3, [sp, #44]	; 0x2c
3000244c:	0a000436 	beq	3000352c <_svfprintf_r+0x1cf0>
30002450:	e3580000 	cmp	r8, #0
30002454:	e59d0044 	ldr	r0, [sp, #68]	; 0x44
30002458:	ba000426 	blt	300034f8 <_svfprintf_r+0x1cbc>
3000245c:	e3a01000 	mov	r1, #0
30002460:	e1a02008 	mov	r2, r8
30002464:	eb000d74 	bl	30005a3c <memchr>
30002468:	e3500000 	cmp	r0, #0
3000246c:	0a00044e 	beq	300035ac <_svfprintf_r+0x1d70>
30002470:	e59d1044 	ldr	r1, [sp, #68]	; 0x44
30002474:	e0610000 	rsb	r0, r1, r0
30002478:	e1500008 	cmp	r0, r8
3000247c:	e58d003c 	str	r0, [sp, #60]	; 0x3c
30002480:	da0003a8 	ble	30003328 <_svfprintf_r+0x1aec>
30002484:	e58d803c 	str	r8, [sp, #60]	; 0x3c
30002488:	e3a02000 	mov	r2, #0
3000248c:	e1c88fc8 	bic	r8, r8, r8, asr #31
30002490:	e58d8030 	str	r8, [sp, #48]	; 0x30
30002494:	e5dd310f 	ldrb	r3, [sp, #271]	; 0x10f
30002498:	e58d2054 	str	r2, [sp, #84]	; 0x54
3000249c:	eafffdf8 	b	30001c84 <_svfprintf_r+0x448>
300024a0:	e59d3028 	ldr	r3, [sp, #40]	; 0x28
300024a4:	e3130020 	tst	r3, #32
300024a8:	e58d2050 	str	r2, [sp, #80]	; 0x50
300024ac:	1affff8e 	bne	300022ec <_svfprintf_r+0xab0>
300024b0:	e59d1028 	ldr	r1, [sp, #40]	; 0x28
300024b4:	e3110010 	tst	r1, #16
300024b8:	1a00021c 	bne	30002d30 <_svfprintf_r+0x14f4>
300024bc:	e59dc028 	ldr	ip, [sp, #40]	; 0x28
300024c0:	e31c0040 	tst	ip, #64	; 0x40
300024c4:	0a000219 	beq	30002d30 <_svfprintf_r+0x14f4>
300024c8:	e59d002c 	ldr	r0, [sp, #44]	; 0x2c
300024cc:	e1d060b0 	ldrh	r6, [r0]
300024d0:	e2801004 	add	r1, r0, #4
300024d4:	e2562000 	subs	r2, r6, #0
300024d8:	13a02001 	movne	r2, #1
300024dc:	e58d102c 	str	r1, [sp, #44]	; 0x2c
300024e0:	e3a07000 	mov	r7, #0
300024e4:	e3a03001 	mov	r3, #1
300024e8:	eafffdba 	b	30001bd8 <_svfprintf_r+0x39c>
300024ec:	e59d1028 	ldr	r1, [sp, #40]	; 0x28
300024f0:	e3811020 	orr	r1, r1, #32
300024f4:	e58d1028 	str	r1, [sp, #40]	; 0x28
300024f8:	e59d102c 	ldr	r1, [sp, #44]	; 0x2c
300024fc:	e5d52000 	ldrb	r2, [r5]
30002500:	e1a03005 	mov	r3, r5
30002504:	e58d102c 	str	r1, [sp, #44]	; 0x2c
30002508:	eafffd18 	b	30001970 <_svfprintf_r+0x134>
3000250c:	e59d0028 	ldr	r0, [sp, #40]	; 0x28
30002510:	e58d2050 	str	r2, [sp, #80]	; 0x50
30002514:	e59f2594 	ldr	r2, [pc, #1428]	; 30002ab0 <_svfprintf_r+0x1274>
30002518:	e3100020 	tst	r0, #32
3000251c:	e58d2058 	str	r2, [sp, #88]	; 0x58
30002520:	1afffd98 	bne	30001b88 <_svfprintf_r+0x34c>
30002524:	e59d2028 	ldr	r2, [sp, #40]	; 0x28
30002528:	e3120010 	tst	r2, #16
3000252c:	1a00021a 	bne	30002d9c <_svfprintf_r+0x1560>
30002530:	e59d0028 	ldr	r0, [sp, #40]	; 0x28
30002534:	e3100040 	tst	r0, #64	; 0x40
30002538:	0a000217 	beq	30002d9c <_svfprintf_r+0x1560>
3000253c:	e59d102c 	ldr	r1, [sp, #44]	; 0x2c
30002540:	e1d160b0 	ldrh	r6, [r1]
30002544:	e2812004 	add	r2, r1, #4
30002548:	e3a07000 	mov	r7, #0
3000254c:	e58d202c 	str	r2, [sp, #44]	; 0x2c
30002550:	eafffd92 	b	30001ba0 <_svfprintf_r+0x364>
30002554:	e59d3028 	ldr	r3, [sp, #40]	; 0x28
30002558:	e3130020 	tst	r3, #32
3000255c:	e58d2050 	str	r2, [sp, #80]	; 0x50
30002560:	1afffebc 	bne	30002058 <_svfprintf_r+0x81c>
30002564:	e59d0028 	ldr	r0, [sp, #40]	; 0x28
30002568:	e3100010 	tst	r0, #16
3000256c:	1a0001f9 	bne	30002d58 <_svfprintf_r+0x151c>
30002570:	e59d3028 	ldr	r3, [sp, #40]	; 0x28
30002574:	e3130040 	tst	r3, #64	; 0x40
30002578:	0a0001f6 	beq	30002d58 <_svfprintf_r+0x151c>
3000257c:	e59dc02c 	ldr	ip, [sp, #44]	; 0x2c
30002580:	e1dc60f0 	ldrsh	r6, [ip]
30002584:	e28c0004 	add	r0, ip, #4
30002588:	e1a07fc6 	asr	r7, r6, #31
3000258c:	e58d002c 	str	r0, [sp, #44]	; 0x2c
30002590:	eafffeb6 	b	30002070 <_svfprintf_r+0x834>
30002594:	e5843004 	str	r3, [r4, #4]
30002598:	e28d10e0 	add	r1, sp, #224	; 0xe0
3000259c:	e8910006 	ldm	r1, {r1, r2}
300025a0:	e2811001 	add	r1, r1, #1
300025a4:	e59d0044 	ldr	r0, [sp, #68]	; 0x44
300025a8:	e0823003 	add	r3, r2, r3
300025ac:	e3510007 	cmp	r1, #7
300025b0:	e5840000 	str	r0, [r4]
300025b4:	e58d30e4 	str	r3, [sp, #228]	; 0xe4
300025b8:	e58d10e0 	str	r1, [sp, #224]	; 0xe0
300025bc:	d2844008 	addle	r4, r4, #8
300025c0:	ca0003f1 	bgt	3000358c <_svfprintf_r+0x1d50>
300025c4:	e3a03001 	mov	r3, #1
300025c8:	e59d6108 	ldr	r6, [sp, #264]	; 0x108
300025cc:	e5843004 	str	r3, [r4, #4]
300025d0:	e59d30e0 	ldr	r3, [sp, #224]	; 0xe0
300025d4:	e59d20e4 	ldr	r2, [sp, #228]	; 0xe4
300025d8:	e2833001 	add	r3, r3, #1
300025dc:	e59d106c 	ldr	r1, [sp, #108]	; 0x6c
300025e0:	e3530007 	cmp	r3, #7
300025e4:	e2822001 	add	r2, r2, #1
300025e8:	e5841000 	str	r1, [r4]
300025ec:	e58d20e4 	str	r2, [sp, #228]	; 0xe4
300025f0:	e58d30e0 	str	r3, [sp, #224]	; 0xe0
300025f4:	d2844008 	addle	r4, r4, #8
300025f8:	ca0003d3 	bgt	3000354c <_svfprintf_r+0x1d10>
300025fc:	e59d3108 	ldr	r3, [sp, #264]	; 0x108
30002600:	e59dc060 	ldr	ip, [sp, #96]	; 0x60
30002604:	e063200c 	rsb	r2, r3, ip
30002608:	e5842004 	str	r2, [r4, #4]
3000260c:	e59d20e4 	ldr	r2, [sp, #228]	; 0xe4
30002610:	e0632002 	rsb	r2, r3, r2
30002614:	e59d30e0 	ldr	r3, [sp, #224]	; 0xe0
30002618:	e59d0044 	ldr	r0, [sp, #68]	; 0x44
3000261c:	e2833001 	add	r3, r3, #1
30002620:	e0806006 	add	r6, r0, r6
30002624:	e082200c 	add	r2, r2, ip
30002628:	e3530007 	cmp	r3, #7
3000262c:	e5846000 	str	r6, [r4]
30002630:	e58d20e4 	str	r2, [sp, #228]	; 0xe4
30002634:	e58d30e0 	str	r3, [sp, #224]	; 0xe0
30002638:	dafffe3c 	ble	30001f30 <_svfprintf_r+0x6f4>
3000263c:	e1a0000b 	mov	r0, fp
30002640:	e1a0100a 	mov	r1, sl
30002644:	e28d20dc 	add	r2, sp, #220	; 0xdc
30002648:	ebfffc19 	bl	300016b4 <__sprint_r>
3000264c:	e3500000 	cmp	r0, #0
30002650:	1afffd3c 	bne	30001b48 <_svfprintf_r+0x30c>
30002654:	e59d0028 	ldr	r0, [sp, #40]	; 0x28
30002658:	e3100004 	tst	r0, #4
3000265c:	e1a04009 	mov	r4, r9
30002660:	1afffe36 	bne	30001f40 <_svfprintf_r+0x704>
30002664:	e59d20e4 	ldr	r2, [sp, #228]	; 0xe4
30002668:	e59d3038 	ldr	r3, [sp, #56]	; 0x38
3000266c:	e59dc030 	ldr	ip, [sp, #48]	; 0x30
30002670:	e59d0034 	ldr	r0, [sp, #52]	; 0x34
30002674:	e15c0000 	cmp	ip, r0
30002678:	a083300c 	addge	r3, r3, ip
3000267c:	b0833000 	addlt	r3, r3, r0
30002680:	e3520000 	cmp	r2, #0
30002684:	e58d3038 	str	r3, [sp, #56]	; 0x38
30002688:	1a000095 	bne	300028e4 <_svfprintf_r+0x10a8>
3000268c:	e3a01000 	mov	r1, #0
30002690:	e58d10e0 	str	r1, [sp, #224]	; 0xe0
30002694:	e59d702c 	ldr	r7, [sp, #44]	; 0x2c
30002698:	e1a04009 	mov	r4, r9
3000269c:	eafffc8a 	b	300018cc <_svfprintf_r+0x90>
300026a0:	e59d1050 	ldr	r1, [sp, #80]	; 0x50
300026a4:	e3510065 	cmp	r1, #101	; 0x65
300026a8:	da000094 	ble	30002900 <_svfprintf_r+0x10c4>
300026ac:	e59d0040 	ldr	r0, [sp, #64]	; 0x40
300026b0:	e59d1064 	ldr	r1, [sp, #100]	; 0x64
300026b4:	e3a02000 	mov	r2, #0
300026b8:	e3a03000 	mov	r3, #0
300026bc:	eb001644 	bl	30007fd4 <__aeabi_dcmpeq>
300026c0:	e3500000 	cmp	r0, #0
300026c4:	0a000100 	beq	30002acc <_svfprintf_r+0x1290>
300026c8:	e3a03001 	mov	r3, #1
300026cc:	e5843004 	str	r3, [r4, #4]
300026d0:	e59d30e0 	ldr	r3, [sp, #224]	; 0xe0
300026d4:	e59d20e4 	ldr	r2, [sp, #228]	; 0xe4
300026d8:	e2833001 	add	r3, r3, #1
300026dc:	e59f13d0 	ldr	r1, [pc, #976]	; 30002ab4 <_svfprintf_r+0x1278>
300026e0:	e3530007 	cmp	r3, #7
300026e4:	e2822001 	add	r2, r2, #1
300026e8:	e5841000 	str	r1, [r4]
300026ec:	e58d20e4 	str	r2, [sp, #228]	; 0xe4
300026f0:	e58d30e0 	str	r3, [sp, #224]	; 0xe0
300026f4:	d2844008 	addle	r4, r4, #8
300026f8:	ca000218 	bgt	30002f60 <_svfprintf_r+0x1724>
300026fc:	e59d3108 	ldr	r3, [sp, #264]	; 0x108
30002700:	e59d2060 	ldr	r2, [sp, #96]	; 0x60
30002704:	e1530002 	cmp	r3, r2
30002708:	ba000002 	blt	30002718 <_svfprintf_r+0xedc>
3000270c:	e59d3028 	ldr	r3, [sp, #40]	; 0x28
30002710:	e3130001 	tst	r3, #1
30002714:	0afffe06 	beq	30001f34 <_svfprintf_r+0x6f8>
30002718:	e3a03001 	mov	r3, #1
3000271c:	e5843004 	str	r3, [r4, #4]
30002720:	e59d30e0 	ldr	r3, [sp, #224]	; 0xe0
30002724:	e59d20e4 	ldr	r2, [sp, #228]	; 0xe4
30002728:	e2833001 	add	r3, r3, #1
3000272c:	e59dc06c 	ldr	ip, [sp, #108]	; 0x6c
30002730:	e3530007 	cmp	r3, #7
30002734:	e2822001 	add	r2, r2, #1
30002738:	e584c000 	str	ip, [r4]
3000273c:	e58d20e4 	str	r2, [sp, #228]	; 0xe4
30002740:	e58d30e0 	str	r3, [sp, #224]	; 0xe0
30002744:	d2844008 	addle	r4, r4, #8
30002748:	ca000309 	bgt	30003374 <_svfprintf_r+0x1b38>
3000274c:	e59d0060 	ldr	r0, [sp, #96]	; 0x60
30002750:	e2406001 	sub	r6, r0, #1
30002754:	e3560000 	cmp	r6, #0
30002758:	dafffdf5 	ble	30001f34 <_svfprintf_r+0x6f8>
3000275c:	e3560010 	cmp	r6, #16
30002760:	e59f7350 	ldr	r7, [pc, #848]	; 30002ab8 <_svfprintf_r+0x127c>
30002764:	c3a08010 	movgt	r8, #16
30002768:	ca000003 	bgt	3000277c <_svfprintf_r+0xf40>
3000276c:	ea0001aa 	b	30002e1c <_svfprintf_r+0x15e0>
30002770:	e2466010 	sub	r6, r6, #16
30002774:	e3560010 	cmp	r6, #16
30002778:	da0001a7 	ble	30002e1c <_svfprintf_r+0x15e0>
3000277c:	e5848004 	str	r8, [r4, #4]
30002780:	e59d30e0 	ldr	r3, [sp, #224]	; 0xe0
30002784:	e59d20e4 	ldr	r2, [sp, #228]	; 0xe4
30002788:	e2833001 	add	r3, r3, #1
3000278c:	e3530007 	cmp	r3, #7
30002790:	e2822010 	add	r2, r2, #16
30002794:	e5847000 	str	r7, [r4]
30002798:	e58d20e4 	str	r2, [sp, #228]	; 0xe4
3000279c:	e58d30e0 	str	r3, [sp, #224]	; 0xe0
300027a0:	d2844008 	addle	r4, r4, #8
300027a4:	dafffff1 	ble	30002770 <_svfprintf_r+0xf34>
300027a8:	e1a0000b 	mov	r0, fp
300027ac:	e1a0100a 	mov	r1, sl
300027b0:	e28d20dc 	add	r2, sp, #220	; 0xdc
300027b4:	ebfffbbe 	bl	300016b4 <__sprint_r>
300027b8:	e3500000 	cmp	r0, #0
300027bc:	1afffce1 	bne	30001b48 <_svfprintf_r+0x30c>
300027c0:	e1a04009 	mov	r4, r9
300027c4:	eaffffe9 	b	30002770 <_svfprintf_r+0xf34>
300027c8:	e3530000 	cmp	r3, #0
300027cc:	1a00000a 	bne	300027fc <_svfprintf_r+0xfc0>
300027d0:	e59d0028 	ldr	r0, [sp, #40]	; 0x28
300027d4:	e3100001 	tst	r0, #1
300027d8:	0a000007 	beq	300027fc <_svfprintf_r+0xfc0>
300027dc:	e28d10b4 	add	r1, sp, #180	; 0xb4
300027e0:	e3a03030 	mov	r3, #48	; 0x30
300027e4:	e2811027 	add	r1, r1, #39	; 0x27
300027e8:	e3a02001 	mov	r2, #1
300027ec:	e5cd30db 	strb	r3, [sp, #219]	; 0xdb
300027f0:	e58d1044 	str	r1, [sp, #68]	; 0x44
300027f4:	e58d203c 	str	r2, [sp, #60]	; 0x3c
300027f8:	eafffd1b 	b	30001c6c <_svfprintf_r+0x430>
300027fc:	e59d305c 	ldr	r3, [sp, #92]	; 0x5c
30002800:	e3a0c000 	mov	ip, #0
30002804:	e58d3044 	str	r3, [sp, #68]	; 0x44
30002808:	e58dc03c 	str	ip, [sp, #60]	; 0x3c
3000280c:	eafffd16 	b	30001c6c <_svfprintf_r+0x430>
30002810:	e59d3034 	ldr	r3, [sp, #52]	; 0x34
30002814:	e59dc030 	ldr	ip, [sp, #48]	; 0x30
30002818:	e06c6003 	rsb	r6, ip, r3
3000281c:	e3560000 	cmp	r6, #0
30002820:	dafffd7e 	ble	30001e20 <_svfprintf_r+0x5e4>
30002824:	e3560010 	cmp	r6, #16
30002828:	e59f7288 	ldr	r7, [pc, #648]	; 30002ab8 <_svfprintf_r+0x127c>
3000282c:	c3a08010 	movgt	r8, #16
30002830:	ca000003 	bgt	30002844 <_svfprintf_r+0x1008>
30002834:	ea000017 	b	30002898 <_svfprintf_r+0x105c>
30002838:	e2466010 	sub	r6, r6, #16
3000283c:	e3560010 	cmp	r6, #16
30002840:	da000014 	ble	30002898 <_svfprintf_r+0x105c>
30002844:	e5848004 	str	r8, [r4, #4]
30002848:	e59d30e0 	ldr	r3, [sp, #224]	; 0xe0
3000284c:	e59d20e4 	ldr	r2, [sp, #228]	; 0xe4
30002850:	e2833001 	add	r3, r3, #1
30002854:	e3530007 	cmp	r3, #7
30002858:	e2822010 	add	r2, r2, #16
3000285c:	e5847000 	str	r7, [r4]
30002860:	e58d20e4 	str	r2, [sp, #228]	; 0xe4
30002864:	e58d30e0 	str	r3, [sp, #224]	; 0xe0
30002868:	d2844008 	addle	r4, r4, #8
3000286c:	dafffff1 	ble	30002838 <_svfprintf_r+0xffc>
30002870:	e1a0000b 	mov	r0, fp
30002874:	e1a0100a 	mov	r1, sl
30002878:	e28d20dc 	add	r2, sp, #220	; 0xdc
3000287c:	ebfffb8c 	bl	300016b4 <__sprint_r>
30002880:	e3500000 	cmp	r0, #0
30002884:	1afffcaf 	bne	30001b48 <_svfprintf_r+0x30c>
30002888:	e2466010 	sub	r6, r6, #16
3000288c:	e3560010 	cmp	r6, #16
30002890:	e1a04009 	mov	r4, r9
30002894:	caffffea 	bgt	30002844 <_svfprintf_r+0x1008>
30002898:	e5846004 	str	r6, [r4, #4]
3000289c:	e59d30e0 	ldr	r3, [sp, #224]	; 0xe0
300028a0:	e2832001 	add	r2, r3, #1
300028a4:	e59d30e4 	ldr	r3, [sp, #228]	; 0xe4
300028a8:	e3520007 	cmp	r2, #7
300028ac:	e0833006 	add	r3, r3, r6
300028b0:	e5847000 	str	r7, [r4]
300028b4:	e58d30e4 	str	r3, [sp, #228]	; 0xe4
300028b8:	e58d20e0 	str	r2, [sp, #224]	; 0xe0
300028bc:	d2844008 	addle	r4, r4, #8
300028c0:	dafffd56 	ble	30001e20 <_svfprintf_r+0x5e4>
300028c4:	e1a0000b 	mov	r0, fp
300028c8:	e1a0100a 	mov	r1, sl
300028cc:	e28d20dc 	add	r2, sp, #220	; 0xdc
300028d0:	ebfffb77 	bl	300016b4 <__sprint_r>
300028d4:	e3500000 	cmp	r0, #0
300028d8:	1afffc9a 	bne	30001b48 <_svfprintf_r+0x30c>
300028dc:	e1a04009 	mov	r4, r9
300028e0:	eafffd4e 	b	30001e20 <_svfprintf_r+0x5e4>
300028e4:	e1a0000b 	mov	r0, fp
300028e8:	e1a0100a 	mov	r1, sl
300028ec:	e28d20dc 	add	r2, sp, #220	; 0xdc
300028f0:	ebfffb6f 	bl	300016b4 <__sprint_r>
300028f4:	e3500000 	cmp	r0, #0
300028f8:	0affff63 	beq	3000268c <_svfprintf_r+0xe50>
300028fc:	eafffc91 	b	30001b48 <_svfprintf_r+0x30c>
30002900:	e59d1060 	ldr	r1, [sp, #96]	; 0x60
30002904:	e3510001 	cmp	r1, #1
30002908:	da00003d 	ble	30002a04 <_svfprintf_r+0x11c8>
3000290c:	e3a03001 	mov	r3, #1
30002910:	e5843004 	str	r3, [r4, #4]
30002914:	e59d30e0 	ldr	r3, [sp, #224]	; 0xe0
30002918:	e59d20e4 	ldr	r2, [sp, #228]	; 0xe4
3000291c:	e2833001 	add	r3, r3, #1
30002920:	e59dc044 	ldr	ip, [sp, #68]	; 0x44
30002924:	e3530007 	cmp	r3, #7
30002928:	e2822001 	add	r2, r2, #1
3000292c:	e584c000 	str	ip, [r4]
30002930:	e58d20e4 	str	r2, [sp, #228]	; 0xe4
30002934:	e58d30e0 	str	r3, [sp, #224]	; 0xe0
30002938:	d2844008 	addle	r4, r4, #8
3000293c:	ca00011c 	bgt	30002db4 <_svfprintf_r+0x1578>
30002940:	e3a03001 	mov	r3, #1
30002944:	e5843004 	str	r3, [r4, #4]
30002948:	e59d30e0 	ldr	r3, [sp, #224]	; 0xe0
3000294c:	e59d20e4 	ldr	r2, [sp, #228]	; 0xe4
30002950:	e2833001 	add	r3, r3, #1
30002954:	e59d006c 	ldr	r0, [sp, #108]	; 0x6c
30002958:	e3530007 	cmp	r3, #7
3000295c:	e2822001 	add	r2, r2, #1
30002960:	e5840000 	str	r0, [r4]
30002964:	e58d20e4 	str	r2, [sp, #228]	; 0xe4
30002968:	e58d30e0 	str	r3, [sp, #224]	; 0xe0
3000296c:	d2844008 	addle	r4, r4, #8
30002970:	ca000117 	bgt	30002dd4 <_svfprintf_r+0x1598>
30002974:	e59d0040 	ldr	r0, [sp, #64]	; 0x40
30002978:	e59d1064 	ldr	r1, [sp, #100]	; 0x64
3000297c:	e3a02000 	mov	r2, #0
30002980:	e3a03000 	mov	r3, #0
30002984:	eb001592 	bl	30007fd4 <__aeabi_dcmpeq>
30002988:	e3500000 	cmp	r0, #0
3000298c:	1a0000bb 	bne	30002c80 <_svfprintf_r+0x1444>
30002990:	e59d1060 	ldr	r1, [sp, #96]	; 0x60
30002994:	e2413001 	sub	r3, r1, #1
30002998:	e5843004 	str	r3, [r4, #4]
3000299c:	e28d10e0 	add	r1, sp, #224	; 0xe0
300029a0:	e8910006 	ldm	r1, {r1, r2}
300029a4:	e59dc044 	ldr	ip, [sp, #68]	; 0x44
300029a8:	e2811001 	add	r1, r1, #1
300029ac:	e0823003 	add	r3, r2, r3
300029b0:	e3510007 	cmp	r1, #7
300029b4:	e28c2001 	add	r2, ip, #1
300029b8:	e5842000 	str	r2, [r4]
300029bc:	e58d30e4 	str	r3, [sp, #228]	; 0xe4
300029c0:	e58d10e0 	str	r1, [sp, #224]	; 0xe0
300029c4:	ca00001d 	bgt	30002a40 <_svfprintf_r+0x1204>
300029c8:	e2844008 	add	r4, r4, #8
300029cc:	e59d2068 	ldr	r2, [sp, #104]	; 0x68
300029d0:	e5842004 	str	r2, [r4, #4]
300029d4:	e59d30e0 	ldr	r3, [sp, #224]	; 0xe0
300029d8:	e59d20e4 	ldr	r2, [sp, #228]	; 0xe4
300029dc:	e59dc068 	ldr	ip, [sp, #104]	; 0x68
300029e0:	e2833001 	add	r3, r3, #1
300029e4:	e082200c 	add	r2, r2, ip
300029e8:	e28d10f8 	add	r1, sp, #248	; 0xf8
300029ec:	e3530007 	cmp	r3, #7
300029f0:	e5841000 	str	r1, [r4]
300029f4:	e58d20e4 	str	r2, [sp, #228]	; 0xe4
300029f8:	e58d30e0 	str	r3, [sp, #224]	; 0xe0
300029fc:	dafffd4b 	ble	30001f30 <_svfprintf_r+0x6f4>
30002a00:	eaffff0d 	b	3000263c <_svfprintf_r+0xe00>
30002a04:	e59d2028 	ldr	r2, [sp, #40]	; 0x28
30002a08:	e3120001 	tst	r2, #1
30002a0c:	1affffbe 	bne	3000290c <_svfprintf_r+0x10d0>
30002a10:	e3a03001 	mov	r3, #1
30002a14:	e5843004 	str	r3, [r4, #4]
30002a18:	e59d30e0 	ldr	r3, [sp, #224]	; 0xe0
30002a1c:	e59d20e4 	ldr	r2, [sp, #228]	; 0xe4
30002a20:	e2833001 	add	r3, r3, #1
30002a24:	e59d1044 	ldr	r1, [sp, #68]	; 0x44
30002a28:	e2822001 	add	r2, r2, #1
30002a2c:	e3530007 	cmp	r3, #7
30002a30:	e5841000 	str	r1, [r4]
30002a34:	e58d20e4 	str	r2, [sp, #228]	; 0xe4
30002a38:	e58d30e0 	str	r3, [sp, #224]	; 0xe0
30002a3c:	daffffe1 	ble	300029c8 <_svfprintf_r+0x118c>
30002a40:	e1a0000b 	mov	r0, fp
30002a44:	e1a0100a 	mov	r1, sl
30002a48:	e28d20dc 	add	r2, sp, #220	; 0xdc
30002a4c:	ebfffb18 	bl	300016b4 <__sprint_r>
30002a50:	e3500000 	cmp	r0, #0
30002a54:	1afffc3b 	bne	30001b48 <_svfprintf_r+0x30c>
30002a58:	e1a04009 	mov	r4, r9
30002a5c:	eaffffda 	b	300029cc <_svfprintf_r+0x1190>
30002a60:	e1a0000b 	mov	r0, fp
30002a64:	e1a0100a 	mov	r1, sl
30002a68:	e28d20dc 	add	r2, sp, #220	; 0xdc
30002a6c:	ebfffb10 	bl	300016b4 <__sprint_r>
30002a70:	e3500000 	cmp	r0, #0
30002a74:	1afffc33 	bne	30001b48 <_svfprintf_r+0x30c>
30002a78:	e1a04009 	mov	r4, r9
30002a7c:	eafffcd4 	b	30001dd4 <_svfprintf_r+0x598>
30002a80:	e1a0000b 	mov	r0, fp
30002a84:	e1a0100a 	mov	r1, sl
30002a88:	e28d20dc 	add	r2, sp, #220	; 0xdc
30002a8c:	ebfffb08 	bl	300016b4 <__sprint_r>
30002a90:	e3500000 	cmp	r0, #0
30002a94:	1afffc2b 	bne	30001b48 <_svfprintf_r+0x30c>
30002a98:	e1a04009 	mov	r4, r9
30002a9c:	eafffcdc 	b	30001e14 <_svfprintf_r+0x5d8>
30002aa0:	30008cb0 	strhcc	r8, [r0], -r0
30002aa4:	30008b10 	andcc	r8, r0, r0, lsl fp
30002aa8:	30008ca0 	andcc	r8, r0, r0, lsr #25
30002aac:	30008ca4 	andcc	r8, r0, r4, lsr #25
30002ab0:	30008c8c 	andcc	r8, r0, ip, lsl #25
30002ab4:	30008ccc 	andcc	r8, r0, ip, asr #25
30002ab8:	30008b20 	andcc	r8, r0, r0, lsr #22
30002abc:	30008ca8 	andcc	r8, r0, r8, lsr #25
30002ac0:	30008cac 	andcc	r8, r0, ip, lsr #25
30002ac4:	30008cc4 	andcc	r8, r0, r4, asr #25
30002ac8:	66666667 	strbtvs	r6, [r6], -r7, ror #12
30002acc:	e59d3108 	ldr	r3, [sp, #264]	; 0x108
30002ad0:	e3530000 	cmp	r3, #0
30002ad4:	da000129 	ble	30002f80 <_svfprintf_r+0x1744>
30002ad8:	e59d2060 	ldr	r2, [sp, #96]	; 0x60
30002adc:	e1530002 	cmp	r3, r2
30002ae0:	bafffeab 	blt	30002594 <_svfprintf_r+0xd58>
30002ae4:	e5842004 	str	r2, [r4, #4]
30002ae8:	e59d30e0 	ldr	r3, [sp, #224]	; 0xe0
30002aec:	e59d20e4 	ldr	r2, [sp, #228]	; 0xe4
30002af0:	e59dc060 	ldr	ip, [sp, #96]	; 0x60
30002af4:	e2833001 	add	r3, r3, #1
30002af8:	e59d0044 	ldr	r0, [sp, #68]	; 0x44
30002afc:	e3530007 	cmp	r3, #7
30002b00:	e082200c 	add	r2, r2, ip
30002b04:	e5840000 	str	r0, [r4]
30002b08:	e58d20e4 	str	r2, [sp, #228]	; 0xe4
30002b0c:	e58d30e0 	str	r3, [sp, #224]	; 0xe0
30002b10:	d2844008 	addle	r4, r4, #8
30002b14:	ca000294 	bgt	3000356c <_svfprintf_r+0x1d30>
30002b18:	e59d6108 	ldr	r6, [sp, #264]	; 0x108
30002b1c:	e59d1060 	ldr	r1, [sp, #96]	; 0x60
30002b20:	e0616006 	rsb	r6, r1, r6
30002b24:	e3560000 	cmp	r6, #0
30002b28:	da0000fc 	ble	30002f20 <_svfprintf_r+0x16e4>
30002b2c:	e3560010 	cmp	r6, #16
30002b30:	e51f7080 	ldr	r7, [pc, #-128]	; 30002ab8 <_svfprintf_r+0x127c>
30002b34:	c3a08010 	movgt	r8, #16
30002b38:	ca000003 	bgt	30002b4c <_svfprintf_r+0x1310>
30002b3c:	ea0000e5 	b	30002ed8 <_svfprintf_r+0x169c>
30002b40:	e2466010 	sub	r6, r6, #16
30002b44:	e3560010 	cmp	r6, #16
30002b48:	da0000e2 	ble	30002ed8 <_svfprintf_r+0x169c>
30002b4c:	e5848004 	str	r8, [r4, #4]
30002b50:	e59d30e0 	ldr	r3, [sp, #224]	; 0xe0
30002b54:	e59d20e4 	ldr	r2, [sp, #228]	; 0xe4
30002b58:	e2833001 	add	r3, r3, #1
30002b5c:	e3530007 	cmp	r3, #7
30002b60:	e2822010 	add	r2, r2, #16
30002b64:	e5847000 	str	r7, [r4]
30002b68:	e58d20e4 	str	r2, [sp, #228]	; 0xe4
30002b6c:	e58d30e0 	str	r3, [sp, #224]	; 0xe0
30002b70:	d2844008 	addle	r4, r4, #8
30002b74:	dafffff1 	ble	30002b40 <_svfprintf_r+0x1304>
30002b78:	e1a0000b 	mov	r0, fp
30002b7c:	e1a0100a 	mov	r1, sl
30002b80:	e28d20dc 	add	r2, sp, #220	; 0xdc
30002b84:	ebfffaca 	bl	300016b4 <__sprint_r>
30002b88:	e3500000 	cmp	r0, #0
30002b8c:	1afffbed 	bne	30001b48 <_svfprintf_r+0x30c>
30002b90:	e1a04009 	mov	r4, r9
30002b94:	eaffffe9 	b	30002b40 <_svfprintf_r+0x1304>
30002b98:	e59d305c 	ldr	r3, [sp, #92]	; 0x5c
30002b9c:	e3570000 	cmp	r7, #0
30002ba0:	03560009 	cmpeq	r6, #9
30002ba4:	858d8030 	strhi	r8, [sp, #48]	; 0x30
30002ba8:	81a08004 	movhi	r8, r4
30002bac:	81a04003 	movhi	r4, r3
30002bb0:	9a000013 	bls	30002c04 <_svfprintf_r+0x13c8>
30002bb4:	e1a00006 	mov	r0, r6
30002bb8:	e1a01007 	mov	r1, r7
30002bbc:	e3a0200a 	mov	r2, #10
30002bc0:	e3a03000 	mov	r3, #0
30002bc4:	eb00154c 	bl	300080fc <__aeabi_uldivmod>
30002bc8:	e282c030 	add	ip, r2, #48	; 0x30
30002bcc:	e1a00006 	mov	r0, r6
30002bd0:	e1a01007 	mov	r1, r7
30002bd4:	e3a0200a 	mov	r2, #10
30002bd8:	e3a03000 	mov	r3, #0
30002bdc:	e564c001 	strb	ip, [r4, #-1]!
30002be0:	eb001545 	bl	300080fc <__aeabi_uldivmod>
30002be4:	e1a06000 	mov	r6, r0
30002be8:	e1a07001 	mov	r7, r1
30002bec:	e3570000 	cmp	r7, #0
30002bf0:	03560009 	cmpeq	r6, #9
30002bf4:	8affffee 	bhi	30002bb4 <_svfprintf_r+0x1378>
30002bf8:	e1a03004 	mov	r3, r4
30002bfc:	e1a04008 	mov	r4, r8
30002c00:	e59d8030 	ldr	r8, [sp, #48]	; 0x30
30002c04:	e243c001 	sub	ip, r3, #1
30002c08:	e2866030 	add	r6, r6, #48	; 0x30
30002c0c:	e58dc044 	str	ip, [sp, #68]	; 0x44
30002c10:	e5436001 	strb	r6, [r3, #-1]
30002c14:	e59d005c 	ldr	r0, [sp, #92]	; 0x5c
30002c18:	e06c0000 	rsb	r0, ip, r0
30002c1c:	e58d003c 	str	r0, [sp, #60]	; 0x3c
30002c20:	eafffc11 	b	30001c6c <_svfprintf_r+0x430>
30002c24:	e59d105c 	ldr	r1, [sp, #92]	; 0x5c
30002c28:	e58d1044 	str	r1, [sp, #68]	; 0x44
30002c2c:	e1a0c004 	mov	ip, r4
30002c30:	e1a02001 	mov	r2, r1
30002c34:	e1a00226 	lsr	r0, r6, #4
30002c38:	e1800e07 	orr	r0, r0, r7, lsl #28
30002c3c:	e1a01227 	lsr	r1, r7, #4
30002c40:	e1a03000 	mov	r3, r0
30002c44:	e59d0058 	ldr	r0, [sp, #88]	; 0x58
30002c48:	e1a04001 	mov	r4, r1
30002c4c:	e206600f 	and	r6, r6, #15
30002c50:	e7d01006 	ldrb	r1, [r0, r6]
30002c54:	e1a07004 	mov	r7, r4
30002c58:	e1a06003 	mov	r6, r3
30002c5c:	e1963007 	orrs	r3, r6, r7
30002c60:	e5621001 	strb	r1, [r2, #-1]!
30002c64:	1afffff2 	bne	30002c34 <_svfprintf_r+0x13f8>
30002c68:	e1a0400c 	mov	r4, ip
30002c6c:	e59dc05c 	ldr	ip, [sp, #92]	; 0x5c
30002c70:	e062c00c 	rsb	ip, r2, ip
30002c74:	e58d2044 	str	r2, [sp, #68]	; 0x44
30002c78:	e58dc03c 	str	ip, [sp, #60]	; 0x3c
30002c7c:	eafffbfa 	b	30001c6c <_svfprintf_r+0x430>
30002c80:	e59d0060 	ldr	r0, [sp, #96]	; 0x60
30002c84:	e2406001 	sub	r6, r0, #1
30002c88:	e3560000 	cmp	r6, #0
30002c8c:	daffff4e 	ble	300029cc <_svfprintf_r+0x1190>
30002c90:	e3560010 	cmp	r6, #16
30002c94:	e51f71e4 	ldr	r7, [pc, #-484]	; 30002ab8 <_svfprintf_r+0x127c>
30002c98:	c3a08010 	movgt	r8, #16
30002c9c:	ca000003 	bgt	30002cb0 <_svfprintf_r+0x1474>
30002ca0:	ea000017 	b	30002d04 <_svfprintf_r+0x14c8>
30002ca4:	e2466010 	sub	r6, r6, #16
30002ca8:	e3560010 	cmp	r6, #16
30002cac:	da000014 	ble	30002d04 <_svfprintf_r+0x14c8>
30002cb0:	e5848004 	str	r8, [r4, #4]
30002cb4:	e59d30e0 	ldr	r3, [sp, #224]	; 0xe0
30002cb8:	e59d20e4 	ldr	r2, [sp, #228]	; 0xe4
30002cbc:	e2833001 	add	r3, r3, #1
30002cc0:	e3530007 	cmp	r3, #7
30002cc4:	e2822010 	add	r2, r2, #16
30002cc8:	e5847000 	str	r7, [r4]
30002ccc:	e58d20e4 	str	r2, [sp, #228]	; 0xe4
30002cd0:	e58d30e0 	str	r3, [sp, #224]	; 0xe0
30002cd4:	d2844008 	addle	r4, r4, #8
30002cd8:	dafffff1 	ble	30002ca4 <_svfprintf_r+0x1468>
30002cdc:	e1a0000b 	mov	r0, fp
30002ce0:	e1a0100a 	mov	r1, sl
30002ce4:	e28d20dc 	add	r2, sp, #220	; 0xdc
30002ce8:	ebfffa71 	bl	300016b4 <__sprint_r>
30002cec:	e3500000 	cmp	r0, #0
30002cf0:	1afffb94 	bne	30001b48 <_svfprintf_r+0x30c>
30002cf4:	e2466010 	sub	r6, r6, #16
30002cf8:	e3560010 	cmp	r6, #16
30002cfc:	e1a04009 	mov	r4, r9
30002d00:	caffffea 	bgt	30002cb0 <_svfprintf_r+0x1474>
30002d04:	e5846004 	str	r6, [r4, #4]
30002d08:	e28d20e0 	add	r2, sp, #224	; 0xe0
30002d0c:	e892000c 	ldm	r2, {r2, r3}
30002d10:	e2822001 	add	r2, r2, #1
30002d14:	e0833006 	add	r3, r3, r6
30002d18:	e3520007 	cmp	r2, #7
30002d1c:	e5847000 	str	r7, [r4]
30002d20:	e58d30e4 	str	r3, [sp, #228]	; 0xe4
30002d24:	e58d20e0 	str	r2, [sp, #224]	; 0xe0
30002d28:	daffff26 	ble	300029c8 <_svfprintf_r+0x118c>
30002d2c:	eaffff43 	b	30002a40 <_svfprintf_r+0x1204>
30002d30:	e59d202c 	ldr	r2, [sp, #44]	; 0x2c
30002d34:	e59d302c 	ldr	r3, [sp, #44]	; 0x2c
30002d38:	e5926000 	ldr	r6, [r2]
30002d3c:	e2833004 	add	r3, r3, #4
30002d40:	e2562000 	subs	r2, r6, #0
30002d44:	13a02001 	movne	r2, #1
30002d48:	e58d302c 	str	r3, [sp, #44]	; 0x2c
30002d4c:	e3a07000 	mov	r7, #0
30002d50:	e3a03001 	mov	r3, #1
30002d54:	eafffb9f 	b	30001bd8 <_svfprintf_r+0x39c>
30002d58:	e59d102c 	ldr	r1, [sp, #44]	; 0x2c
30002d5c:	e5916000 	ldr	r6, [r1]
30002d60:	e1a07fc6 	asr	r7, r6, #31
30002d64:	e2812004 	add	r2, r1, #4
30002d68:	e3560000 	cmp	r6, #0
30002d6c:	e2d73000 	sbcs	r3, r7, #0
30002d70:	e58d202c 	str	r2, [sp, #44]	; 0x2c
30002d74:	aafffcc0 	bge	3000207c <_svfprintf_r+0x840>
30002d78:	e2766000 	rsbs	r6, r6, #0
30002d7c:	e2e77000 	rsc	r7, r7, #0
30002d80:	e3a0302d 	mov	r3, #45	; 0x2d
30002d84:	e1960007 	orrs	r0, r6, r7
30002d88:	e5cd310f 	strb	r3, [sp, #271]	; 0x10f
30002d8c:	03a02000 	moveq	r2, #0
30002d90:	13a02001 	movne	r2, #1
30002d94:	e3a03001 	mov	r3, #1
30002d98:	eafffb90 	b	30001be0 <_svfprintf_r+0x3a4>
30002d9c:	e59d302c 	ldr	r3, [sp, #44]	; 0x2c
30002da0:	e5936000 	ldr	r6, [r3]
30002da4:	e283c004 	add	ip, r3, #4
30002da8:	e3a07000 	mov	r7, #0
30002dac:	e58dc02c 	str	ip, [sp, #44]	; 0x2c
30002db0:	eafffb7a 	b	30001ba0 <_svfprintf_r+0x364>
30002db4:	e1a0000b 	mov	r0, fp
30002db8:	e1a0100a 	mov	r1, sl
30002dbc:	e28d20dc 	add	r2, sp, #220	; 0xdc
30002dc0:	ebfffa3b 	bl	300016b4 <__sprint_r>
30002dc4:	e3500000 	cmp	r0, #0
30002dc8:	1afffb5e 	bne	30001b48 <_svfprintf_r+0x30c>
30002dcc:	e1a04009 	mov	r4, r9
30002dd0:	eafffeda 	b	30002940 <_svfprintf_r+0x1104>
30002dd4:	e1a0000b 	mov	r0, fp
30002dd8:	e1a0100a 	mov	r1, sl
30002ddc:	e28d20dc 	add	r2, sp, #220	; 0xdc
30002de0:	ebfffa33 	bl	300016b4 <__sprint_r>
30002de4:	e3500000 	cmp	r0, #0
30002de8:	1afffb56 	bne	30001b48 <_svfprintf_r+0x30c>
30002dec:	e1a04009 	mov	r4, r9
30002df0:	eafffedf 	b	30002974 <_svfprintf_r+0x1138>
30002df4:	e3530030 	cmp	r3, #48	; 0x30
30002df8:	0a0001c6 	beq	30003518 <_svfprintf_r+0x1cdc>
30002dfc:	e59d1044 	ldr	r1, [sp, #68]	; 0x44
30002e00:	e3a03030 	mov	r3, #48	; 0x30
30002e04:	e5613001 	strb	r3, [r1, #-1]!
30002e08:	e59d205c 	ldr	r2, [sp, #92]	; 0x5c
30002e0c:	e0612002 	rsb	r2, r1, r2
30002e10:	e58d1044 	str	r1, [sp, #68]	; 0x44
30002e14:	e58d203c 	str	r2, [sp, #60]	; 0x3c
30002e18:	eafffb93 	b	30001c6c <_svfprintf_r+0x430>
30002e1c:	e5846004 	str	r6, [r4, #4]
30002e20:	e28d20e0 	add	r2, sp, #224	; 0xe0
30002e24:	e892000c 	ldm	r2, {r2, r3}
30002e28:	e2822001 	add	r2, r2, #1
30002e2c:	e0833006 	add	r3, r3, r6
30002e30:	e3520007 	cmp	r2, #7
30002e34:	e5847000 	str	r7, [r4]
30002e38:	e58d30e4 	str	r3, [sp, #228]	; 0xe4
30002e3c:	e58d20e0 	str	r2, [sp, #224]	; 0xe0
30002e40:	dafffc3a 	ble	30001f30 <_svfprintf_r+0x6f4>
30002e44:	eafffdfc 	b	3000263c <_svfprintf_r+0xe00>
30002e48:	e59d102c 	ldr	r1, [sp, #44]	; 0x2c
30002e4c:	e5d52000 	ldrb	r2, [r5]
30002e50:	e1a03005 	mov	r3, r5
30002e54:	e58d102c 	str	r1, [sp, #44]	; 0x2c
30002e58:	eafffac4 	b	30001970 <_svfprintf_r+0x134>
30002e5c:	e59d0028 	ldr	r0, [sp, #40]	; 0x28
30002e60:	e3100010 	tst	r0, #16
30002e64:	1a000008 	bne	30002e8c <_svfprintf_r+0x1650>
30002e68:	e59d3028 	ldr	r3, [sp, #40]	; 0x28
30002e6c:	e3130040 	tst	r3, #64	; 0x40
30002e70:	0a000005 	beq	30002e8c <_svfprintf_r+0x1650>
30002e74:	e59dc02c 	ldr	ip, [sp, #44]	; 0x2c
30002e78:	e59d0038 	ldr	r0, [sp, #56]	; 0x38
30002e7c:	e59c3000 	ldr	r3, [ip]
30002e80:	e28c7004 	add	r7, ip, #4
30002e84:	e1c300b0 	strh	r0, [r3]
30002e88:	eafffa8f 	b	300018cc <_svfprintf_r+0x90>
30002e8c:	e59d102c 	ldr	r1, [sp, #44]	; 0x2c
30002e90:	e59d2038 	ldr	r2, [sp, #56]	; 0x38
30002e94:	e5913000 	ldr	r3, [r1]
30002e98:	e2817004 	add	r7, r1, #4
30002e9c:	e5832000 	str	r2, [r3]
30002ea0:	eafffa89 	b	300018cc <_svfprintf_r+0x90>
30002ea4:	e59d2028 	ldr	r2, [sp, #40]	; 0x28
30002ea8:	e2123040 	ands	r3, r2, #64	; 0x40
30002eac:	0a000128 	beq	30003354 <_svfprintf_r+0x1b18>
30002eb0:	e59d302c 	ldr	r3, [sp, #44]	; 0x2c
30002eb4:	e59dc02c 	ldr	ip, [sp, #44]	; 0x2c
30002eb8:	e1d360b0 	ldrh	r6, [r3]
30002ebc:	e28cc004 	add	ip, ip, #4
30002ec0:	e2562000 	subs	r2, r6, #0
30002ec4:	13a02001 	movne	r2, #1
30002ec8:	e1a03001 	mov	r3, r1
30002ecc:	e58dc02c 	str	ip, [sp, #44]	; 0x2c
30002ed0:	e3a07000 	mov	r7, #0
30002ed4:	eafffb3f 	b	30001bd8 <_svfprintf_r+0x39c>
30002ed8:	e5846004 	str	r6, [r4, #4]
30002edc:	e28d20e0 	add	r2, sp, #224	; 0xe0
30002ee0:	e892000c 	ldm	r2, {r2, r3}
30002ee4:	e2822001 	add	r2, r2, #1
30002ee8:	e0833006 	add	r3, r3, r6
30002eec:	e3520007 	cmp	r2, #7
30002ef0:	e5847000 	str	r7, [r4]
30002ef4:	e58d30e4 	str	r3, [sp, #228]	; 0xe4
30002ef8:	e58d20e0 	str	r2, [sp, #224]	; 0xe0
30002efc:	d2844008 	addle	r4, r4, #8
30002f00:	da000006 	ble	30002f20 <_svfprintf_r+0x16e4>
30002f04:	e1a0000b 	mov	r0, fp
30002f08:	e1a0100a 	mov	r1, sl
30002f0c:	e28d20dc 	add	r2, sp, #220	; 0xdc
30002f10:	ebfff9e7 	bl	300016b4 <__sprint_r>
30002f14:	e3500000 	cmp	r0, #0
30002f18:	1afffb0a 	bne	30001b48 <_svfprintf_r+0x30c>
30002f1c:	e1a04009 	mov	r4, r9
30002f20:	e59d2028 	ldr	r2, [sp, #40]	; 0x28
30002f24:	e3120001 	tst	r2, #1
30002f28:	0afffc01 	beq	30001f34 <_svfprintf_r+0x6f8>
30002f2c:	e3a03001 	mov	r3, #1
30002f30:	e5843004 	str	r3, [r4, #4]
30002f34:	e59d30e0 	ldr	r3, [sp, #224]	; 0xe0
30002f38:	e59d20e4 	ldr	r2, [sp, #228]	; 0xe4
30002f3c:	e2833001 	add	r3, r3, #1
30002f40:	e59dc06c 	ldr	ip, [sp, #108]	; 0x6c
30002f44:	e2822001 	add	r2, r2, #1
30002f48:	e3530007 	cmp	r3, #7
30002f4c:	e58d20e4 	str	r2, [sp, #228]	; 0xe4
30002f50:	e584c000 	str	ip, [r4]
30002f54:	e58d30e0 	str	r3, [sp, #224]	; 0xe0
30002f58:	dafffbf4 	ble	30001f30 <_svfprintf_r+0x6f4>
30002f5c:	eafffdb6 	b	3000263c <_svfprintf_r+0xe00>
30002f60:	e1a0000b 	mov	r0, fp
30002f64:	e1a0100a 	mov	r1, sl
30002f68:	e28d20dc 	add	r2, sp, #220	; 0xdc
30002f6c:	ebfff9d0 	bl	300016b4 <__sprint_r>
30002f70:	e3500000 	cmp	r0, #0
30002f74:	1afffaf3 	bne	30001b48 <_svfprintf_r+0x30c>
30002f78:	e1a04009 	mov	r4, r9
30002f7c:	eafffdde 	b	300026fc <_svfprintf_r+0xec0>
30002f80:	e3a03001 	mov	r3, #1
30002f84:	e5843004 	str	r3, [r4, #4]
30002f88:	e59d30e0 	ldr	r3, [sp, #224]	; 0xe0
30002f8c:	e59d10e4 	ldr	r1, [sp, #228]	; 0xe4
30002f90:	e2833001 	add	r3, r3, #1
30002f94:	e51f24e8 	ldr	r2, [pc, #-1256]	; 30002ab4 <_svfprintf_r+0x1278>
30002f98:	e3530007 	cmp	r3, #7
30002f9c:	e2811001 	add	r1, r1, #1
30002fa0:	e5842000 	str	r2, [r4]
30002fa4:	e58d10e4 	str	r1, [sp, #228]	; 0xe4
30002fa8:	e58d30e0 	str	r3, [sp, #224]	; 0xe0
30002fac:	d2844008 	addle	r4, r4, #8
30002fb0:	ca000114 	bgt	30003408 <_svfprintf_r+0x1bcc>
30002fb4:	e59d3108 	ldr	r3, [sp, #264]	; 0x108
30002fb8:	e3530000 	cmp	r3, #0
30002fbc:	1a000005 	bne	30002fd8 <_svfprintf_r+0x179c>
30002fc0:	e59d1060 	ldr	r1, [sp, #96]	; 0x60
30002fc4:	e3510000 	cmp	r1, #0
30002fc8:	1a000002 	bne	30002fd8 <_svfprintf_r+0x179c>
30002fcc:	e59d2028 	ldr	r2, [sp, #40]	; 0x28
30002fd0:	e3120001 	tst	r2, #1
30002fd4:	0afffbd6 	beq	30001f34 <_svfprintf_r+0x6f8>
30002fd8:	e3a03001 	mov	r3, #1
30002fdc:	e5843004 	str	r3, [r4, #4]
30002fe0:	e59d30e0 	ldr	r3, [sp, #224]	; 0xe0
30002fe4:	e59d20e4 	ldr	r2, [sp, #228]	; 0xe4
30002fe8:	e2833001 	add	r3, r3, #1
30002fec:	e59dc06c 	ldr	ip, [sp, #108]	; 0x6c
30002ff0:	e3530007 	cmp	r3, #7
30002ff4:	e2822001 	add	r2, r2, #1
30002ff8:	e584c000 	str	ip, [r4]
30002ffc:	e58d20e4 	str	r2, [sp, #228]	; 0xe4
30003000:	e58d30e0 	str	r3, [sp, #224]	; 0xe0
30003004:	d2844008 	addle	r4, r4, #8
30003008:	ca000125 	bgt	300034a4 <_svfprintf_r+0x1c68>
3000300c:	e59d6108 	ldr	r6, [sp, #264]	; 0x108
30003010:	e2666000 	rsb	r6, r6, #0
30003014:	e3560000 	cmp	r6, #0
30003018:	da000114 	ble	30003470 <_svfprintf_r+0x1c34>
3000301c:	e3560010 	cmp	r6, #16
30003020:	e51f7570 	ldr	r7, [pc, #-1392]	; 30002ab8 <_svfprintf_r+0x127c>
30003024:	c3a08010 	movgt	r8, #16
30003028:	ca000003 	bgt	3000303c <_svfprintf_r+0x1800>
3000302c:	ea0000fd 	b	30003428 <_svfprintf_r+0x1bec>
30003030:	e2466010 	sub	r6, r6, #16
30003034:	e3560010 	cmp	r6, #16
30003038:	da0000fa 	ble	30003428 <_svfprintf_r+0x1bec>
3000303c:	e5848004 	str	r8, [r4, #4]
30003040:	e59d30e0 	ldr	r3, [sp, #224]	; 0xe0
30003044:	e59d20e4 	ldr	r2, [sp, #228]	; 0xe4
30003048:	e2833001 	add	r3, r3, #1
3000304c:	e3530007 	cmp	r3, #7
30003050:	e2822010 	add	r2, r2, #16
30003054:	e5847000 	str	r7, [r4]
30003058:	e58d20e4 	str	r2, [sp, #228]	; 0xe4
3000305c:	e58d30e0 	str	r3, [sp, #224]	; 0xe0
30003060:	d2844008 	addle	r4, r4, #8
30003064:	dafffff1 	ble	30003030 <_svfprintf_r+0x17f4>
30003068:	e1a0000b 	mov	r0, fp
3000306c:	e1a0100a 	mov	r1, sl
30003070:	e28d20dc 	add	r2, sp, #220	; 0xdc
30003074:	ebfff98e 	bl	300016b4 <__sprint_r>
30003078:	e3500000 	cmp	r0, #0
3000307c:	1afffab1 	bne	30001b48 <_svfprintf_r+0x30c>
30003080:	e1a04009 	mov	r4, r9
30003084:	eaffffe9 	b	30003030 <_svfprintf_r+0x17f4>
30003088:	e59d30e4 	ldr	r3, [sp, #228]	; 0xe4
3000308c:	e3530000 	cmp	r3, #0
30003090:	e1a0600a 	mov	r6, sl
30003094:	0afffaac 	beq	30001b4c <_svfprintf_r+0x310>
30003098:	e1a0000b 	mov	r0, fp
3000309c:	e1a0100a 	mov	r1, sl
300030a0:	e28d20dc 	add	r2, sp, #220	; 0xdc
300030a4:	ebfff982 	bl	300016b4 <__sprint_r>
300030a8:	eafffaa7 	b	30001b4c <_svfprintf_r+0x310>
300030ac:	e59d2028 	ldr	r2, [sp, #40]	; 0x28
300030b0:	e3822020 	orr	r2, r2, #32
300030b4:	e58d2028 	str	r2, [sp, #40]	; 0x28
300030b8:	e59d102c 	ldr	r1, [sp, #44]	; 0x2c
300030bc:	e5d52001 	ldrb	r2, [r5, #1]
300030c0:	e2853001 	add	r3, r5, #1
300030c4:	e58d102c 	str	r1, [sp, #44]	; 0x2c
300030c8:	eafffa28 	b	30001970 <_svfprintf_r+0x134>
300030cc:	e58d3024 	str	r3, [sp, #36]	; 0x24
300030d0:	eb00100d 	bl	3000710c <__isnand>
300030d4:	e3500000 	cmp	r0, #0
300030d8:	e59d3024 	ldr	r3, [sp, #36]	; 0x24
300030dc:	1a0000ba 	bne	300033cc <_svfprintf_r+0x1b90>
300030e0:	e3780001 	cmn	r8, #1
300030e4:	02888007 	addeq	r8, r8, #7
300030e8:	0a000005 	beq	30003104 <_svfprintf_r+0x18c8>
300030ec:	e59d2050 	ldr	r2, [sp, #80]	; 0x50
300030f0:	e3520067 	cmp	r2, #103	; 0x67
300030f4:	13520047 	cmpne	r2, #71	; 0x47
300030f8:	1a000001 	bne	30003104 <_svfprintf_r+0x18c8>
300030fc:	e3580000 	cmp	r8, #0
30003100:	03a08001 	moveq	r8, #1
30003104:	e1a03006 	mov	r3, r6
30003108:	e1a02007 	mov	r2, r7
3000310c:	e58d20e8 	str	r2, [sp, #232]	; 0xe8
30003110:	e58d30ec 	str	r3, [sp, #236]	; 0xec
30003114:	e59d30ec 	ldr	r3, [sp, #236]	; 0xec
30003118:	e59d1050 	ldr	r1, [sp, #80]	; 0x50
3000311c:	e3530000 	cmp	r3, #0
30003120:	e59d3028 	ldr	r3, [sp, #40]	; 0x28
30003124:	a3a0c000 	movge	ip, #0
30003128:	b3a0002d 	movlt	r0, #45	; 0x2d
3000312c:	a58dc054 	strge	ip, [sp, #84]	; 0x54
30003130:	e3833c01 	orr	r3, r3, #256	; 0x100
30003134:	b2866102 	addlt	r6, r6, #-2147483648	; 0x80000000
30003138:	b58d0054 	strlt	r0, [sp, #84]	; 0x54
3000313c:	e3510066 	cmp	r1, #102	; 0x66
30003140:	13510046 	cmpne	r1, #70	; 0x46
30003144:	e58d3028 	str	r3, [sp, #40]	; 0x28
30003148:	13a0c000 	movne	ip, #0
3000314c:	03a0c001 	moveq	ip, #1
30003150:	058d8030 	streq	r8, [sp, #48]	; 0x30
30003154:	03a01003 	moveq	r1, #3
30003158:	0a000006 	beq	30003178 <_svfprintf_r+0x193c>
3000315c:	e59d2050 	ldr	r2, [sp, #80]	; 0x50
30003160:	e3520065 	cmp	r2, #101	; 0x65
30003164:	13520045 	cmpne	r2, #69	; 0x45
30003168:	02883001 	addeq	r3, r8, #1
3000316c:	158d8030 	strne	r8, [sp, #48]	; 0x30
30003170:	058d3030 	streq	r3, [sp, #48]	; 0x30
30003174:	e3a01002 	mov	r1, #2
30003178:	e58d1000 	str	r1, [sp]
3000317c:	e28d1f42 	add	r1, sp, #264	; 0x108
30003180:	e58d1008 	str	r1, [sp, #8]
30003184:	e28d1f41 	add	r1, sp, #260	; 0x104
30003188:	e58d100c 	str	r1, [sp, #12]
3000318c:	e28d1c01 	add	r1, sp, #256	; 0x100
30003190:	e58d1010 	str	r1, [sp, #16]
30003194:	e59d1030 	ldr	r1, [sp, #48]	; 0x30
30003198:	e1a02007 	mov	r2, r7
3000319c:	e1a03006 	mov	r3, r6
300031a0:	e1a0000b 	mov	r0, fp
300031a4:	e58dc024 	str	ip, [sp, #36]	; 0x24
300031a8:	e58d1004 	str	r1, [sp, #4]
300031ac:	eb000201 	bl	300039b8 <_dtoa_r>
300031b0:	e59d2050 	ldr	r2, [sp, #80]	; 0x50
300031b4:	e3520047 	cmp	r2, #71	; 0x47
300031b8:	13520067 	cmpne	r2, #103	; 0x67
300031bc:	e58d0044 	str	r0, [sp, #68]	; 0x44
300031c0:	e59dc024 	ldr	ip, [sp, #36]	; 0x24
300031c4:	1a000003 	bne	300031d8 <_svfprintf_r+0x199c>
300031c8:	e59d3028 	ldr	r3, [sp, #40]	; 0x28
300031cc:	e3130001 	tst	r3, #1
300031d0:	059dc100 	ldreq	ip, [sp, #256]	; 0x100
300031d4:	0a00001c 	beq	3000324c <_svfprintf_r+0x1a10>
300031d8:	e59d0044 	ldr	r0, [sp, #68]	; 0x44
300031dc:	e59d1030 	ldr	r1, [sp, #48]	; 0x30
300031e0:	e35c0000 	cmp	ip, #0
300031e4:	e080c001 	add	ip, r0, r1
300031e8:	0a000004 	beq	30003200 <_svfprintf_r+0x19c4>
300031ec:	e5d03000 	ldrb	r3, [r0]
300031f0:	e3530030 	cmp	r3, #48	; 0x30
300031f4:	0a0000b2 	beq	300034c4 <_svfprintf_r+0x1c88>
300031f8:	e59d3108 	ldr	r3, [sp, #264]	; 0x108
300031fc:	e08cc003 	add	ip, ip, r3
30003200:	e1a00007 	mov	r0, r7
30003204:	e1a01006 	mov	r1, r6
30003208:	e3a02000 	mov	r2, #0
3000320c:	e3a03000 	mov	r3, #0
30003210:	e58dc024 	str	ip, [sp, #36]	; 0x24
30003214:	eb00136e 	bl	30007fd4 <__aeabi_dcmpeq>
30003218:	e59dc024 	ldr	ip, [sp, #36]	; 0x24
3000321c:	e3500000 	cmp	r0, #0
30003220:	158dc100 	strne	ip, [sp, #256]	; 0x100
30003224:	1a000008 	bne	3000324c <_svfprintf_r+0x1a10>
30003228:	e59d3100 	ldr	r3, [sp, #256]	; 0x100
3000322c:	e15c0003 	cmp	ip, r3
30003230:	91a0c003 	movls	ip, r3
30003234:	9a000004 	bls	3000324c <_svfprintf_r+0x1a10>
30003238:	e3a02030 	mov	r2, #48	; 0x30
3000323c:	e4c32001 	strb	r2, [r3], #1
30003240:	e15c0003 	cmp	ip, r3
30003244:	e58d3100 	str	r3, [sp, #256]	; 0x100
30003248:	8afffffb 	bhi	3000323c <_svfprintf_r+0x1a00>
3000324c:	e59d3050 	ldr	r3, [sp, #80]	; 0x50
30003250:	e59d0044 	ldr	r0, [sp, #68]	; 0x44
30003254:	e3530067 	cmp	r3, #103	; 0x67
30003258:	13530047 	cmpne	r3, #71	; 0x47
3000325c:	e060c00c 	rsb	ip, r0, ip
30003260:	e58dc060 	str	ip, [sp, #96]	; 0x60
30003264:	1a0000d6 	bne	300035c4 <_svfprintf_r+0x1d88>
30003268:	e59d1108 	ldr	r1, [sp, #264]	; 0x108
3000326c:	e3710003 	cmn	r1, #3
30003270:	e58d103c 	str	r1, [sp, #60]	; 0x3c
30003274:	ba000001 	blt	30003280 <_svfprintf_r+0x1a44>
30003278:	e1580001 	cmp	r8, r1
3000327c:	aa0000d8 	bge	300035e4 <_svfprintf_r+0x1da8>
30003280:	e59d2050 	ldr	r2, [sp, #80]	; 0x50
30003284:	e2422002 	sub	r2, r2, #2
30003288:	e58d2050 	str	r2, [sp, #80]	; 0x50
3000328c:	e59d003c 	ldr	r0, [sp, #60]	; 0x3c
30003290:	e2403001 	sub	r3, r0, #1
30003294:	e3530000 	cmp	r3, #0
30003298:	b3a0202d 	movlt	r2, #45	; 0x2d
3000329c:	a3a0202b 	movge	r2, #43	; 0x2b
300032a0:	e58d3108 	str	r3, [sp, #264]	; 0x108
300032a4:	e59d1050 	ldr	r1, [sp, #80]	; 0x50
300032a8:	b2633000 	rsblt	r3, r3, #0
300032ac:	b5cd20f9 	strblt	r2, [sp, #249]	; 0xf9
300032b0:	a5cd20f9 	strbge	r2, [sp, #249]	; 0xf9
300032b4:	e3530009 	cmp	r3, #9
300032b8:	e5cd10f8 	strb	r1, [sp, #248]	; 0xf8
300032bc:	ca0000d9 	bgt	30003628 <_svfprintf_r+0x1dec>
300032c0:	e2833030 	add	r3, r3, #48	; 0x30
300032c4:	e3a02030 	mov	r2, #48	; 0x30
300032c8:	e28d10f8 	add	r1, sp, #248	; 0xf8
300032cc:	e5cd20fa 	strb	r2, [sp, #250]	; 0xfa
300032d0:	e5cd30fb 	strb	r3, [sp, #251]	; 0xfb
300032d4:	e2810004 	add	r0, r1, #4
300032d8:	e0611000 	rsb	r1, r1, r0
300032dc:	e59d0060 	ldr	r0, [sp, #96]	; 0x60
300032e0:	e58d1068 	str	r1, [sp, #104]	; 0x68
300032e4:	e3500001 	cmp	r0, #1
300032e8:	e0811000 	add	r1, r1, r0
300032ec:	e58d103c 	str	r1, [sp, #60]	; 0x3c
300032f0:	da000120 	ble	30003778 <_svfprintf_r+0x1f3c>
300032f4:	e59dc03c 	ldr	ip, [sp, #60]	; 0x3c
300032f8:	e28cc001 	add	ip, ip, #1
300032fc:	e1cc0fcc 	bic	r0, ip, ip, asr #31
30003300:	e58dc03c 	str	ip, [sp, #60]	; 0x3c
30003304:	e58d0030 	str	r0, [sp, #48]	; 0x30
30003308:	e59d2054 	ldr	r2, [sp, #84]	; 0x54
3000330c:	e3520000 	cmp	r2, #0
30003310:	0a0000bf 	beq	30003614 <_svfprintf_r+0x1dd8>
30003314:	e3a0302d 	mov	r3, #45	; 0x2d
30003318:	e5cd310f 	strb	r3, [sp, #271]	; 0x10f
3000331c:	e3a03000 	mov	r3, #0
30003320:	e58d3054 	str	r3, [sp, #84]	; 0x54
30003324:	eafffa58 	b	30001c8c <_svfprintf_r+0x450>
30003328:	e59d303c 	ldr	r3, [sp, #60]	; 0x3c
3000332c:	e3a0c000 	mov	ip, #0
30003330:	e1c33fc3 	bic	r3, r3, r3, asr #31
30003334:	e58d3030 	str	r3, [sp, #48]	; 0x30
30003338:	e58dc054 	str	ip, [sp, #84]	; 0x54
3000333c:	e5dd310f 	ldrb	r3, [sp, #271]	; 0x10f
30003340:	eafffa4f 	b	30001c84 <_svfprintf_r+0x448>
30003344:	e59d3034 	ldr	r3, [sp, #52]	; 0x34
30003348:	e2633000 	rsb	r3, r3, #0
3000334c:	e58d3034 	str	r3, [sp, #52]	; 0x34
30003350:	eafffb83 	b	30002164 <_svfprintf_r+0x928>
30003354:	e59d002c 	ldr	r0, [sp, #44]	; 0x2c
30003358:	e5906000 	ldr	r6, [r0]
3000335c:	e2801004 	add	r1, r0, #4
30003360:	e2562000 	subs	r2, r6, #0
30003364:	13a02001 	movne	r2, #1
30003368:	e58d102c 	str	r1, [sp, #44]	; 0x2c
3000336c:	e3a07000 	mov	r7, #0
30003370:	eafffa18 	b	30001bd8 <_svfprintf_r+0x39c>
30003374:	e1a0000b 	mov	r0, fp
30003378:	e1a0100a 	mov	r1, sl
3000337c:	e28d20dc 	add	r2, sp, #220	; 0xdc
30003380:	ebfff8cb 	bl	300016b4 <__sprint_r>
30003384:	e3500000 	cmp	r0, #0
30003388:	1afff9ee 	bne	30001b48 <_svfprintf_r+0x30c>
3000338c:	e1a04009 	mov	r4, r9
30003390:	eafffced 	b	3000274c <_svfprintf_r+0xf10>
30003394:	e1a0000b 	mov	r0, fp
30003398:	e3a01040 	mov	r1, #64	; 0x40
3000339c:	eb0007df 	bl	30005320 <_malloc_r>
300033a0:	e3500000 	cmp	r0, #0
300033a4:	13a03040 	movne	r3, #64	; 0x40
300033a8:	e5860000 	str	r0, [r6]
300033ac:	e5860010 	str	r0, [r6, #16]
300033b0:	15863014 	strne	r3, [r6, #20]
300033b4:	1afff92f 	bne	30001878 <_svfprintf_r+0x3c>
300033b8:	e3a0300c 	mov	r3, #12
300033bc:	e3e00000 	mvn	r0, #0
300033c0:	e58b3000 	str	r3, [fp]
300033c4:	e58d0038 	str	r0, [sp, #56]	; 0x38
300033c8:	eafff9e4 	b	30001b60 <_svfprintf_r+0x324>
300033cc:	e59d0050 	ldr	r0, [sp, #80]	; 0x50
300033d0:	e51f191c 	ldr	r1, [pc, #-2332]	; 30002abc <_svfprintf_r+0x1280>
300033d4:	e3500047 	cmp	r0, #71	; 0x47
300033d8:	e51f2920 	ldr	r2, [pc, #-2336]	; 30002ac0 <_svfprintf_r+0x1284>
300033dc:	d1a02001 	movle	r2, r1
300033e0:	e59d1028 	ldr	r1, [sp, #40]	; 0x28
300033e4:	e3a0c003 	mov	ip, #3
300033e8:	e3c11080 	bic	r1, r1, #128	; 0x80
300033ec:	e58d3054 	str	r3, [sp, #84]	; 0x54
300033f0:	e58dc030 	str	ip, [sp, #48]	; 0x30
300033f4:	e58d2044 	str	r2, [sp, #68]	; 0x44
300033f8:	e58d1028 	str	r1, [sp, #40]	; 0x28
300033fc:	e5dd310f 	ldrb	r3, [sp, #271]	; 0x10f
30003400:	e58dc03c 	str	ip, [sp, #60]	; 0x3c
30003404:	eafffa1e 	b	30001c84 <_svfprintf_r+0x448>
30003408:	e1a0000b 	mov	r0, fp
3000340c:	e1a0100a 	mov	r1, sl
30003410:	e28d20dc 	add	r2, sp, #220	; 0xdc
30003414:	ebfff8a6 	bl	300016b4 <__sprint_r>
30003418:	e3500000 	cmp	r0, #0
3000341c:	1afff9c9 	bne	30001b48 <_svfprintf_r+0x30c>
30003420:	e1a04009 	mov	r4, r9
30003424:	eafffee2 	b	30002fb4 <_svfprintf_r+0x1778>
30003428:	e5846004 	str	r6, [r4, #4]
3000342c:	e59d30e0 	ldr	r3, [sp, #224]	; 0xe0
30003430:	e2832001 	add	r2, r3, #1
30003434:	e59d30e4 	ldr	r3, [sp, #228]	; 0xe4
30003438:	e3520007 	cmp	r2, #7
3000343c:	e0833006 	add	r3, r3, r6
30003440:	e5847000 	str	r7, [r4]
30003444:	e58d30e4 	str	r3, [sp, #228]	; 0xe4
30003448:	e58d20e0 	str	r2, [sp, #224]	; 0xe0
3000344c:	d2844008 	addle	r4, r4, #8
30003450:	da000006 	ble	30003470 <_svfprintf_r+0x1c34>
30003454:	e1a0000b 	mov	r0, fp
30003458:	e1a0100a 	mov	r1, sl
3000345c:	e28d20dc 	add	r2, sp, #220	; 0xdc
30003460:	ebfff893 	bl	300016b4 <__sprint_r>
30003464:	e3500000 	cmp	r0, #0
30003468:	1afff9b6 	bne	30001b48 <_svfprintf_r+0x30c>
3000346c:	e1a04009 	mov	r4, r9
30003470:	e59d0060 	ldr	r0, [sp, #96]	; 0x60
30003474:	e5840004 	str	r0, [r4, #4]
30003478:	e59d30e0 	ldr	r3, [sp, #224]	; 0xe0
3000347c:	e59d20e4 	ldr	r2, [sp, #228]	; 0xe4
30003480:	e2833001 	add	r3, r3, #1
30003484:	e59d1044 	ldr	r1, [sp, #68]	; 0x44
30003488:	e0822000 	add	r2, r2, r0
3000348c:	e3530007 	cmp	r3, #7
30003490:	e5841000 	str	r1, [r4]
30003494:	e58d20e4 	str	r2, [sp, #228]	; 0xe4
30003498:	e58d30e0 	str	r3, [sp, #224]	; 0xe0
3000349c:	dafffaa3 	ble	30001f30 <_svfprintf_r+0x6f4>
300034a0:	eafffc65 	b	3000263c <_svfprintf_r+0xe00>
300034a4:	e1a0000b 	mov	r0, fp
300034a8:	e1a0100a 	mov	r1, sl
300034ac:	e28d20dc 	add	r2, sp, #220	; 0xdc
300034b0:	ebfff87f 	bl	300016b4 <__sprint_r>
300034b4:	e3500000 	cmp	r0, #0
300034b8:	1afff9a2 	bne	30001b48 <_svfprintf_r+0x30c>
300034bc:	e1a04009 	mov	r4, r9
300034c0:	eafffed1 	b	3000300c <_svfprintf_r+0x17d0>
300034c4:	e3a02000 	mov	r2, #0
300034c8:	e3a03000 	mov	r3, #0
300034cc:	e1a00007 	mov	r0, r7
300034d0:	e1a01006 	mov	r1, r6
300034d4:	e58dc024 	str	ip, [sp, #36]	; 0x24
300034d8:	eb0012bd 	bl	30007fd4 <__aeabi_dcmpeq>
300034dc:	e3500000 	cmp	r0, #0
300034e0:	059d2030 	ldreq	r2, [sp, #48]	; 0x30
300034e4:	02623001 	rsbeq	r3, r2, #1
300034e8:	e59dc024 	ldr	ip, [sp, #36]	; 0x24
300034ec:	058d3108 	streq	r3, [sp, #264]	; 0x108
300034f0:	159d3108 	ldrne	r3, [sp, #264]	; 0x108
300034f4:	eaffff40 	b	300031fc <_svfprintf_r+0x19c0>
300034f8:	eb000f1f 	bl	3000717c <strlen>
300034fc:	e3a01000 	mov	r1, #0
30003500:	e58d003c 	str	r0, [sp, #60]	; 0x3c
30003504:	e1c00fc0 	bic	r0, r0, r0, asr #31
30003508:	e58d0030 	str	r0, [sp, #48]	; 0x30
3000350c:	e5dd310f 	ldrb	r3, [sp, #271]	; 0x10f
30003510:	e58d1054 	str	r1, [sp, #84]	; 0x54
30003514:	eafff9da 	b	30001c84 <_svfprintf_r+0x448>
30003518:	e59dc05c 	ldr	ip, [sp, #92]	; 0x5c
3000351c:	e59d0044 	ldr	r0, [sp, #68]	; 0x44
30003520:	e060c00c 	rsb	ip, r0, ip
30003524:	e58dc03c 	str	ip, [sp, #60]	; 0x3c
30003528:	eafff9cf 	b	30001c6c <_svfprintf_r+0x430>
3000352c:	e3580006 	cmp	r8, #6
30003530:	23a08006 	movcs	r8, #6
30003534:	e51f0a78 	ldr	r0, [pc, #-2680]	; 30002ac4 <_svfprintf_r+0x1288>
30003538:	e1c8cfc8 	bic	ip, r8, r8, asr #31
3000353c:	e58d803c 	str	r8, [sp, #60]	; 0x3c
30003540:	e58dc030 	str	ip, [sp, #48]	; 0x30
30003544:	e58d0044 	str	r0, [sp, #68]	; 0x44
30003548:	eafffaa7 	b	30001fec <_svfprintf_r+0x7b0>
3000354c:	e1a0000b 	mov	r0, fp
30003550:	e1a0100a 	mov	r1, sl
30003554:	e28d20dc 	add	r2, sp, #220	; 0xdc
30003558:	ebfff855 	bl	300016b4 <__sprint_r>
3000355c:	e3500000 	cmp	r0, #0
30003560:	1afff978 	bne	30001b48 <_svfprintf_r+0x30c>
30003564:	e1a04009 	mov	r4, r9
30003568:	eafffc23 	b	300025fc <_svfprintf_r+0xdc0>
3000356c:	e1a0000b 	mov	r0, fp
30003570:	e1a0100a 	mov	r1, sl
30003574:	e28d20dc 	add	r2, sp, #220	; 0xdc
30003578:	ebfff84d 	bl	300016b4 <__sprint_r>
3000357c:	e3500000 	cmp	r0, #0
30003580:	1afff970 	bne	30001b48 <_svfprintf_r+0x30c>
30003584:	e1a04009 	mov	r4, r9
30003588:	eafffd62 	b	30002b18 <_svfprintf_r+0x12dc>
3000358c:	e1a0000b 	mov	r0, fp
30003590:	e1a0100a 	mov	r1, sl
30003594:	e28d20dc 	add	r2, sp, #220	; 0xdc
30003598:	ebfff845 	bl	300016b4 <__sprint_r>
3000359c:	e3500000 	cmp	r0, #0
300035a0:	1afff968 	bne	30001b48 <_svfprintf_r+0x30c>
300035a4:	e1a04009 	mov	r4, r9
300035a8:	eafffc05 	b	300025c4 <_svfprintf_r+0xd88>
300035ac:	e58d803c 	str	r8, [sp, #60]	; 0x3c
300035b0:	e1c88fc8 	bic	r8, r8, r8, asr #31
300035b4:	e58d0054 	str	r0, [sp, #84]	; 0x54
300035b8:	e58d8030 	str	r8, [sp, #48]	; 0x30
300035bc:	e5dd310f 	ldrb	r3, [sp, #271]	; 0x10f
300035c0:	eafff9af 	b	30001c84 <_svfprintf_r+0x448>
300035c4:	e59d3050 	ldr	r3, [sp, #80]	; 0x50
300035c8:	e3530065 	cmp	r3, #101	; 0x65
300035cc:	da000035 	ble	300036a8 <_svfprintf_r+0x1e6c>
300035d0:	e59d1050 	ldr	r1, [sp, #80]	; 0x50
300035d4:	e3510066 	cmp	r1, #102	; 0x66
300035d8:	159d2108 	ldrne	r2, [sp, #264]	; 0x108
300035dc:	158d203c 	strne	r2, [sp, #60]	; 0x3c
300035e0:	0a000040 	beq	300036e8 <_svfprintf_r+0x1eac>
300035e4:	e59d3060 	ldr	r3, [sp, #96]	; 0x60
300035e8:	e59dc03c 	ldr	ip, [sp, #60]	; 0x3c
300035ec:	e153000c 	cmp	r3, ip
300035f0:	ca00002f 	bgt	300036b4 <_svfprintf_r+0x1e78>
300035f4:	e59d0028 	ldr	r0, [sp, #40]	; 0x28
300035f8:	e3100001 	tst	r0, #1
300035fc:	1a00004d 	bne	30003738 <_svfprintf_r+0x1efc>
30003600:	e1cc1fcc 	bic	r1, ip, ip, asr #31
30003604:	e3a02067 	mov	r2, #103	; 0x67
30003608:	e58d1030 	str	r1, [sp, #48]	; 0x30
3000360c:	e58d2050 	str	r2, [sp, #80]	; 0x50
30003610:	eaffff3c 	b	30003308 <_svfprintf_r+0x1acc>
30003614:	e59dc03c 	ldr	ip, [sp, #60]	; 0x3c
30003618:	e1cccfcc 	bic	ip, ip, ip, asr #31
3000361c:	e5dd310f 	ldrb	r3, [sp, #271]	; 0x10f
30003620:	e58dc030 	str	ip, [sp, #48]	; 0x30
30003624:	eafff996 	b	30001c84 <_svfprintf_r+0x448>
30003628:	e51f0b68 	ldr	r0, [pc, #-2920]	; 30002ac8 <_svfprintf_r+0x128c>
3000362c:	e28dc0f7 	add	ip, sp, #247	; 0xf7
30003630:	e0c12390 	smull	r2, r1, r0, r3
30003634:	e1a02fc3 	asr	r2, r3, #31
30003638:	e0622141 	rsb	r2, r2, r1, asr #2
3000363c:	e0821102 	add	r1, r2, r2, lsl #2
30003640:	e0431081 	sub	r1, r3, r1, lsl #1
30003644:	e2811030 	add	r1, r1, #48	; 0x30
30003648:	e3520009 	cmp	r2, #9
3000364c:	e1a03002 	mov	r3, r2
30003650:	e56c1001 	strb	r1, [ip, #-1]!
30003654:	cafffff5 	bgt	30003630 <_svfprintf_r+0x1df4>
30003658:	e59d101c 	ldr	r1, [sp, #28]
3000365c:	e2820030 	add	r0, r2, #48	; 0x30
30003660:	e24c3001 	sub	r3, ip, #1
30003664:	e1510003 	cmp	r1, r3
30003668:	e20000ff 	and	r0, r0, #255	; 0xff
3000366c:	e28d10f8 	add	r1, sp, #248	; 0xf8
30003670:	e54c0001 	strb	r0, [ip, #-1]
30003674:	92810002 	addls	r0, r1, #2
30003678:	9affff16 	bls	300032d8 <_svfprintf_r+0x1a9c>
3000367c:	e1a0200c 	mov	r2, ip
30003680:	e2813003 	add	r3, r1, #3
30003684:	ea000000 	b	3000368c <_svfprintf_r+0x1e50>
30003688:	e4d20001 	ldrb	r0, [r2], #1
3000368c:	e59dc01c 	ldr	ip, [sp, #28]
30003690:	e15c0002 	cmp	ip, r2
30003694:	e5430001 	strb	r0, [r3, #-1]
30003698:	e1a00003 	mov	r0, r3
3000369c:	e2833001 	add	r3, r3, #1
300036a0:	8afffff8 	bhi	30003688 <_svfprintf_r+0x1e4c>
300036a4:	eaffff0b 	b	300032d8 <_svfprintf_r+0x1a9c>
300036a8:	e59dc108 	ldr	ip, [sp, #264]	; 0x108
300036ac:	e58dc03c 	str	ip, [sp, #60]	; 0x3c
300036b0:	eafffef5 	b	3000328c <_svfprintf_r+0x1a50>
300036b4:	e59d103c 	ldr	r1, [sp, #60]	; 0x3c
300036b8:	e3510000 	cmp	r1, #0
300036bc:	d59d203c 	ldrle	r2, [sp, #60]	; 0x3c
300036c0:	e59dc060 	ldr	ip, [sp, #96]	; 0x60
300036c4:	c3a03001 	movgt	r3, #1
300036c8:	d2623002 	rsble	r3, r2, #2
300036cc:	e083300c 	add	r3, r3, ip
300036d0:	e1c30fc3 	bic	r0, r3, r3, asr #31
300036d4:	e3a01067 	mov	r1, #103	; 0x67
300036d8:	e58d303c 	str	r3, [sp, #60]	; 0x3c
300036dc:	e58d0030 	str	r0, [sp, #48]	; 0x30
300036e0:	e58d1050 	str	r1, [sp, #80]	; 0x50
300036e4:	eaffff07 	b	30003308 <_svfprintf_r+0x1acc>
300036e8:	e59d3108 	ldr	r3, [sp, #264]	; 0x108
300036ec:	e3530000 	cmp	r3, #0
300036f0:	e58d303c 	str	r3, [sp, #60]	; 0x3c
300036f4:	da000025 	ble	30003790 <_svfprintf_r+0x1f54>
300036f8:	e3580000 	cmp	r8, #0
300036fc:	1a000004 	bne	30003714 <_svfprintf_r+0x1ed8>
30003700:	e59dc028 	ldr	ip, [sp, #40]	; 0x28
30003704:	e31c0001 	tst	ip, #1
30003708:	01c30fc3 	biceq	r0, r3, r3, asr #31
3000370c:	058d0030 	streq	r0, [sp, #48]	; 0x30
30003710:	0afffefc 	beq	30003308 <_svfprintf_r+0x1acc>
30003714:	e59d103c 	ldr	r1, [sp, #60]	; 0x3c
30003718:	e2813001 	add	r3, r1, #1
3000371c:	e0833008 	add	r3, r3, r8
30003720:	e1c32fc3 	bic	r2, r3, r3, asr #31
30003724:	e58d303c 	str	r3, [sp, #60]	; 0x3c
30003728:	e3a03066 	mov	r3, #102	; 0x66
3000372c:	e58d2030 	str	r2, [sp, #48]	; 0x30
30003730:	e58d3050 	str	r3, [sp, #80]	; 0x50
30003734:	eafffef3 	b	30003308 <_svfprintf_r+0x1acc>
30003738:	e59d303c 	ldr	r3, [sp, #60]	; 0x3c
3000373c:	e2833001 	add	r3, r3, #1
30003740:	e1c3cfc3 	bic	ip, r3, r3, asr #31
30003744:	e3a00067 	mov	r0, #103	; 0x67
30003748:	e58d303c 	str	r3, [sp, #60]	; 0x3c
3000374c:	e58dc030 	str	ip, [sp, #48]	; 0x30
30003750:	e58d0050 	str	r0, [sp, #80]	; 0x50
30003754:	eafffeeb 	b	30003308 <_svfprintf_r+0x1acc>
30003758:	e59d102c 	ldr	r1, [sp, #44]	; 0x2c
3000375c:	e5918000 	ldr	r8, [r1]
30003760:	e2811004 	add	r1, r1, #4
30003764:	e3580000 	cmp	r8, #0
30003768:	e5d32000 	ldrb	r2, [r3]
3000376c:	b3e08000 	mvnlt	r8, #0
30003770:	e58d102c 	str	r1, [sp, #44]	; 0x2c
30003774:	eafff87d 	b	30001970 <_svfprintf_r+0x134>
30003778:	e59d2028 	ldr	r2, [sp, #40]	; 0x28
3000377c:	e3120001 	tst	r2, #1
30003780:	01c13fc1 	biceq	r3, r1, r1, asr #31
30003784:	058d3030 	streq	r3, [sp, #48]	; 0x30
30003788:	0afffede 	beq	30003308 <_svfprintf_r+0x1acc>
3000378c:	eafffed8 	b	300032f4 <_svfprintf_r+0x1ab8>
30003790:	e3580000 	cmp	r8, #0
30003794:	1a000005 	bne	300037b0 <_svfprintf_r+0x1f74>
30003798:	e59dc028 	ldr	ip, [sp, #40]	; 0x28
3000379c:	e31c0001 	tst	ip, #1
300037a0:	03a00001 	moveq	r0, #1
300037a4:	058d0030 	streq	r0, [sp, #48]	; 0x30
300037a8:	058d003c 	streq	r0, [sp, #60]	; 0x3c
300037ac:	0afffed5 	beq	30003308 <_svfprintf_r+0x1acc>
300037b0:	e2888002 	add	r8, r8, #2
300037b4:	e1c81fc8 	bic	r1, r8, r8, asr #31
300037b8:	e3a02066 	mov	r2, #102	; 0x66
300037bc:	e58d803c 	str	r8, [sp, #60]	; 0x3c
300037c0:	e58d1030 	str	r1, [sp, #48]	; 0x30
300037c4:	e58d2050 	str	r2, [sp, #80]	; 0x50
300037c8:	eafffece 	b	30003308 <_svfprintf_r+0x1acc>
300037cc:	00000000 	andeq	r0, r0, r0

300037d0 <quorem>:
300037d0:	e92d4ff8 	push	{r3, r4, r5, r6, r7, r8, r9, sl, fp, lr}
300037d4:	e5903010 	ldr	r3, [r0, #16]
300037d8:	e5916010 	ldr	r6, [r1, #16]
300037dc:	e1560003 	cmp	r6, r3
300037e0:	e1a0a000 	mov	sl, r0
300037e4:	e1a09001 	mov	r9, r1
300037e8:	c3a00000 	movgt	r0, #0
300037ec:	ca00006f 	bgt	300039b0 <quorem+0x1e0>
300037f0:	e2863003 	add	r3, r6, #3
300037f4:	e1a03103 	lsl	r3, r3, #2
300037f8:	e0818003 	add	r8, r1, r3
300037fc:	e5981004 	ldr	r1, [r8, #4]
30003800:	e083300a 	add	r3, r3, sl
30003804:	e5930004 	ldr	r0, [r3, #4]
30003808:	e2811001 	add	r1, r1, #1
3000380c:	eb000f49 	bl	30007538 <__aeabi_uidiv>
30003810:	e2507000 	subs	r7, r0, #0
30003814:	e2466001 	sub	r6, r6, #1
30003818:	e2888004 	add	r8, r8, #4
3000381c:	e2895014 	add	r5, r9, #20
30003820:	e28a4014 	add	r4, sl, #20
30003824:	0a000031 	beq	300038f0 <quorem+0x120>
30003828:	e3a03000 	mov	r3, #0
3000382c:	e1a01003 	mov	r1, r3
30003830:	e1a02003 	mov	r2, r3
30003834:	e7950003 	ldr	r0, [r5, r3]
30003838:	e1a0c800 	lsl	ip, r0, #16
3000383c:	e1a0e820 	lsr	lr, r0, #16
30003840:	e1a0c82c 	lsr	ip, ip, #16
30003844:	e021179c 	mla	r1, ip, r7, r1
30003848:	e00e0e97 	mul	lr, r7, lr
3000384c:	e794b003 	ldr	fp, [r4, r3]
30003850:	e1a0080b 	lsl	r0, fp, #16
30003854:	e08ee821 	add	lr, lr, r1, lsr #16
30003858:	e1a00820 	lsr	r0, r0, #16
3000385c:	e1a01801 	lsl	r1, r1, #16
30003860:	e0820000 	add	r0, r2, r0
30003864:	e1a01821 	lsr	r1, r1, #16
30003868:	e1a0280e 	lsl	r2, lr, #16
3000386c:	e0611000 	rsb	r1, r1, r0
30003870:	e1a02822 	lsr	r2, r2, #16
30003874:	e062082b 	rsb	r0, r2, fp, lsr #16
30003878:	e1a02801 	lsl	r2, r1, #16
3000387c:	e0800841 	add	r0, r0, r1, asr #16
30003880:	e1a02822 	lsr	r2, r2, #16
30003884:	e1822800 	orr	r2, r2, r0, lsl #16
30003888:	e7842003 	str	r2, [r4, r3]
3000388c:	e2833004 	add	r3, r3, #4
30003890:	e0832005 	add	r2, r3, r5
30003894:	e1580002 	cmp	r8, r2
30003898:	e1a0182e 	lsr	r1, lr, #16
3000389c:	e1a02840 	asr	r2, r0, #16
300038a0:	2affffe3 	bcs	30003834 <quorem+0x64>
300038a4:	e2862004 	add	r2, r6, #4
300038a8:	e08a3102 	add	r3, sl, r2, lsl #2
300038ac:	e5931004 	ldr	r1, [r3, #4]
300038b0:	e3510000 	cmp	r1, #0
300038b4:	1a00000d 	bne	300038f0 <quorem+0x120>
300038b8:	e1540003 	cmp	r4, r3
300038bc:	2a00000a 	bcs	300038ec <quorem+0x11c>
300038c0:	e79a2102 	ldr	r2, [sl, r2, lsl #2]
300038c4:	e3520000 	cmp	r2, #0
300038c8:	0a000003 	beq	300038dc <quorem+0x10c>
300038cc:	ea000006 	b	300038ec <quorem+0x11c>
300038d0:	e5932000 	ldr	r2, [r3]
300038d4:	e3520000 	cmp	r2, #0
300038d8:	1a000003 	bne	300038ec <quorem+0x11c>
300038dc:	e2433004 	sub	r3, r3, #4
300038e0:	e1540003 	cmp	r4, r3
300038e4:	e2466001 	sub	r6, r6, #1
300038e8:	3afffff8 	bcc	300038d0 <quorem+0x100>
300038ec:	e58a6010 	str	r6, [sl, #16]
300038f0:	e1a01009 	mov	r1, r9
300038f4:	e1a0000a 	mov	r0, sl
300038f8:	eb000996 	bl	30005f58 <__mcmp>
300038fc:	e3500000 	cmp	r0, #0
30003900:	ba000029 	blt	300039ac <quorem+0x1dc>
30003904:	e3a03000 	mov	r3, #0
30003908:	e2877001 	add	r7, r7, #1
3000390c:	e1a00003 	mov	r0, r3
30003910:	e7959003 	ldr	r9, [r5, r3]
30003914:	e794c003 	ldr	ip, [r4, r3]
30003918:	e1a02809 	lsl	r2, r9, #16
3000391c:	e1a0180c 	lsl	r1, ip, #16
30003920:	e1a02822 	lsr	r2, r2, #16
30003924:	e1a01821 	lsr	r1, r1, #16
30003928:	e0621001 	rsb	r1, r2, r1
3000392c:	e0810000 	add	r0, r1, r0
30003930:	e1a01829 	lsr	r1, r9, #16
30003934:	e1a02800 	lsl	r2, r0, #16
30003938:	e061182c 	rsb	r1, r1, ip, lsr #16
3000393c:	e0811840 	add	r1, r1, r0, asr #16
30003940:	e1a02822 	lsr	r2, r2, #16
30003944:	e1822801 	orr	r2, r2, r1, lsl #16
30003948:	e7842003 	str	r2, [r4, r3]
3000394c:	e2833004 	add	r3, r3, #4
30003950:	e0832005 	add	r2, r3, r5
30003954:	e1580002 	cmp	r8, r2
30003958:	e1a00841 	asr	r0, r1, #16
3000395c:	2affffeb 	bcs	30003910 <quorem+0x140>
30003960:	e2862004 	add	r2, r6, #4
30003964:	e08a3102 	add	r3, sl, r2, lsl #2
30003968:	e5931004 	ldr	r1, [r3, #4]
3000396c:	e3510000 	cmp	r1, #0
30003970:	1a00000d 	bne	300039ac <quorem+0x1dc>
30003974:	e1540003 	cmp	r4, r3
30003978:	2a00000a 	bcs	300039a8 <quorem+0x1d8>
3000397c:	e79a2102 	ldr	r2, [sl, r2, lsl #2]
30003980:	e3520000 	cmp	r2, #0
30003984:	0a000003 	beq	30003998 <quorem+0x1c8>
30003988:	ea000006 	b	300039a8 <quorem+0x1d8>
3000398c:	e5932000 	ldr	r2, [r3]
30003990:	e3520000 	cmp	r2, #0
30003994:	1a000003 	bne	300039a8 <quorem+0x1d8>
30003998:	e2433004 	sub	r3, r3, #4
3000399c:	e1540003 	cmp	r4, r3
300039a0:	e2466001 	sub	r6, r6, #1
300039a4:	3afffff8 	bcc	3000398c <quorem+0x1bc>
300039a8:	e58a6010 	str	r6, [sl, #16]
300039ac:	e1a00007 	mov	r0, r7
300039b0:	e8bd4ff8 	pop	{r3, r4, r5, r6, r7, r8, r9, sl, fp, lr}
300039b4:	e12fff1e 	bx	lr

300039b8 <_dtoa_r>:
300039b8:	e92d4ff0 	push	{r4, r5, r6, r7, r8, r9, sl, fp, lr}
300039bc:	e5901040 	ldr	r1, [r0, #64]	; 0x40
300039c0:	e24dd084 	sub	sp, sp, #132	; 0x84
300039c4:	e3510000 	cmp	r1, #0
300039c8:	e1a04000 	mov	r4, r0
300039cc:	e59d80b4 	ldr	r8, [sp, #180]	; 0xb4
300039d0:	e1a05002 	mov	r5, r2
300039d4:	e1a06003 	mov	r6, r3
300039d8:	0a000008 	beq	30003a00 <_dtoa_r+0x48>
300039dc:	e5903044 	ldr	r3, [r0, #68]	; 0x44
300039e0:	e5813004 	str	r3, [r1, #4]
300039e4:	e5903044 	ldr	r3, [r0, #68]	; 0x44
300039e8:	e3a02001 	mov	r2, #1
300039ec:	e1a03312 	lsl	r3, r2, r3
300039f0:	e5813008 	str	r3, [r1, #8]
300039f4:	eb000915 	bl	30005e50 <_Bfree>
300039f8:	e3a03000 	mov	r3, #0
300039fc:	e5843040 	str	r3, [r4, #64]	; 0x40
30003a00:	e2567000 	subs	r7, r6, #0
30003a04:	b3c77102 	biclt	r7, r7, #-2147483648	; 0x80000000
30003a08:	b3a03001 	movlt	r3, #1
30003a0c:	a3a03000 	movge	r3, #0
30003a10:	b5883000 	strlt	r3, [r8]
30003a14:	a5883000 	strge	r3, [r8]
30003a18:	e3c73102 	bic	r3, r7, #-2147483648	; 0x80000000
30003a1c:	e1a03a23 	lsr	r3, r3, #20
30003a20:	e3a0247f 	mov	r2, #2130706432	; 0x7f000000
30003a24:	e282260f 	add	r2, r2, #15728640	; 0xf00000
30003a28:	e1a03a03 	lsl	r3, r3, #20
30003a2c:	b1a06007 	movlt	r6, r7
30003a30:	e1530002 	cmp	r3, r2
30003a34:	0a000015 	beq	30003a90 <_dtoa_r+0xd8>
30003a38:	e1a00005 	mov	r0, r5
30003a3c:	e1a01006 	mov	r1, r6
30003a40:	e3a02000 	mov	r2, #0
30003a44:	e3a03000 	mov	r3, #0
30003a48:	e58d5018 	str	r5, [sp, #24]
30003a4c:	e58d601c 	str	r6, [sp, #28]
30003a50:	eb00115f 	bl	30007fd4 <__aeabi_dcmpeq>
30003a54:	e3500000 	cmp	r0, #0
30003a58:	0a00001d 	beq	30003ad4 <_dtoa_r+0x11c>
30003a5c:	e59d10b8 	ldr	r1, [sp, #184]	; 0xb8
30003a60:	e59d20b0 	ldr	r2, [sp, #176]	; 0xb0
30003a64:	e3510000 	cmp	r1, #0
30003a68:	e3a03001 	mov	r3, #1
30003a6c:	159f029c 	ldrne	r0, [pc, #668]	; 30003d10 <_dtoa_r+0x358>
30003a70:	e5823000 	str	r3, [r2]
30003a74:	159d30b8 	ldrne	r3, [sp, #184]	; 0xb8
30003a78:	059f0294 	ldreq	r0, [pc, #660]	; 30003d14 <_dtoa_r+0x35c>
30003a7c:	15830000 	strne	r0, [r3]
30003a80:	12400001 	subne	r0, r0, #1
30003a84:	e28dd084 	add	sp, sp, #132	; 0x84
30003a88:	e8bd4ff0 	pop	{r4, r5, r6, r7, r8, r9, sl, fp, lr}
30003a8c:	e12fff1e 	bx	lr
30003a90:	e3a03c27 	mov	r3, #9984	; 0x2700
30003a94:	e59d10b0 	ldr	r1, [sp, #176]	; 0xb0
30003a98:	e283300f 	add	r3, r3, #15
30003a9c:	e3550000 	cmp	r5, #0
30003aa0:	e5813000 	str	r3, [r1]
30003aa4:	0a000081 	beq	30003cb0 <_dtoa_r+0x2f8>
30003aa8:	e59f0268 	ldr	r0, [pc, #616]	; 30003d18 <_dtoa_r+0x360>
30003aac:	e59d20b8 	ldr	r2, [sp, #184]	; 0xb8
30003ab0:	e3520000 	cmp	r2, #0
30003ab4:	0afffff2 	beq	30003a84 <_dtoa_r+0xcc>
30003ab8:	e5d03003 	ldrb	r3, [r0, #3]
30003abc:	e59dc0b8 	ldr	ip, [sp, #184]	; 0xb8
30003ac0:	e3530000 	cmp	r3, #0
30003ac4:	e2803003 	add	r3, r0, #3
30003ac8:	12803008 	addne	r3, r0, #8
30003acc:	e58c3000 	str	r3, [ip]
30003ad0:	eaffffeb 	b	30003a84 <_dtoa_r+0xcc>
30003ad4:	e28d1078 	add	r1, sp, #120	; 0x78
30003ad8:	e58d1000 	str	r1, [sp]
30003adc:	e1a00004 	mov	r0, r4
30003ae0:	e28d107c 	add	r1, sp, #124	; 0x7c
30003ae4:	e28d3018 	add	r3, sp, #24
30003ae8:	e893000c 	ldm	r3, {r2, r3}
30003aec:	e58d1004 	str	r1, [sp, #4]
30003af0:	eb000a1b 	bl	30006364 <__d2b>
30003af4:	e1a0aa27 	lsr	sl, r7, #20
30003af8:	e1a0aa8a 	lsl	sl, sl, #21
30003afc:	e1a0aaaa 	lsr	sl, sl, #21
30003b00:	e35a0000 	cmp	sl, #0
30003b04:	e1a08000 	mov	r8, r0
30003b08:	1a00006e 	bne	30003cc8 <_dtoa_r+0x310>
30003b0c:	e28da078 	add	sl, sp, #120	; 0x78
30003b10:	e89a0c00 	ldm	sl, {sl, fp}
30003b14:	e08ba00a 	add	sl, fp, sl
30003b18:	e28aae43 	add	sl, sl, #1072	; 0x430
30003b1c:	e28aa002 	add	sl, sl, #2
30003b20:	e35a0020 	cmp	sl, #32
30003b24:	c24a3020 	subgt	r3, sl, #32
30003b28:	c1a03335 	lsrgt	r3, r5, r3
30003b2c:	c26a0040 	rsbgt	r0, sl, #64	; 0x40
30003b30:	d26a0020 	rsble	r0, sl, #32
30003b34:	c1830017 	orrgt	r0, r3, r7, lsl r0
30003b38:	d1a00015 	lslle	r0, r5, r0
30003b3c:	eb000f8a 	bl	3000796c <__aeabi_ui2d>
30003b40:	e3a02001 	mov	r2, #1
30003b44:	e24aae43 	sub	sl, sl, #1072	; 0x430
30003b48:	e58d205c 	str	r2, [sp, #92]	; 0x5c
30003b4c:	e24aa003 	sub	sl, sl, #3
30003b50:	e241161f 	sub	r1, r1, #32505856	; 0x1f00000
30003b54:	e3a035ff 	mov	r3, #1069547520	; 0x3fc00000
30003b58:	e3a02000 	mov	r2, #0
30003b5c:	e283370e 	add	r3, r3, #3670016	; 0x380000
30003b60:	eb000ebc 	bl	30007658 <__aeabi_dsub>
30003b64:	e28f3f63 	add	r3, pc, #396	; 0x18c
30003b68:	e893000c 	ldm	r3, {r2, r3}
30003b6c:	eb000fbe 	bl	30007a6c <__aeabi_dmul>
30003b70:	e28f3f62 	add	r3, pc, #392	; 0x188
30003b74:	e893000c 	ldm	r3, {r2, r3}
30003b78:	eb000eb7 	bl	3000765c <__adddf3>
30003b7c:	e58d0020 	str	r0, [sp, #32]
30003b80:	e58d1024 	str	r1, [sp, #36]	; 0x24
30003b84:	e1a0000a 	mov	r0, sl
30003b88:	eb000f80 	bl	30007990 <__aeabi_i2d>
30003b8c:	e28f3f5d 	add	r3, pc, #372	; 0x174
30003b90:	e893000c 	ldm	r3, {r2, r3}
30003b94:	eb000fb4 	bl	30007a6c <__aeabi_dmul>
30003b98:	e1a02000 	mov	r2, r0
30003b9c:	e1a03001 	mov	r3, r1
30003ba0:	e28d1020 	add	r1, sp, #32
30003ba4:	e8910003 	ldm	r1, {r0, r1}
30003ba8:	eb000eab 	bl	3000765c <__adddf3>
30003bac:	e58d0020 	str	r0, [sp, #32]
30003bb0:	e58d1024 	str	r1, [sp, #36]	; 0x24
30003bb4:	eb001124 	bl	3000804c <__aeabi_d2iz>
30003bb8:	e3a02000 	mov	r2, #0
30003bbc:	e1a07000 	mov	r7, r0
30003bc0:	e3a03000 	mov	r3, #0
30003bc4:	e28d1020 	add	r1, sp, #32
30003bc8:	e8910003 	ldm	r1, {r0, r1}
30003bcc:	eb001106 	bl	30007fec <__aeabi_dcmplt>
30003bd0:	e3500000 	cmp	r0, #0
30003bd4:	0a000006 	beq	30003bf4 <_dtoa_r+0x23c>
30003bd8:	e1a00007 	mov	r0, r7
30003bdc:	eb000f6b 	bl	30007990 <__aeabi_i2d>
30003be0:	e28d3020 	add	r3, sp, #32
30003be4:	e893000c 	ldm	r3, {r2, r3}
30003be8:	eb0010f9 	bl	30007fd4 <__aeabi_dcmpeq>
30003bec:	e3500000 	cmp	r0, #0
30003bf0:	02477001 	subeq	r7, r7, #1
30003bf4:	e3570016 	cmp	r7, #22
30003bf8:	83a03001 	movhi	r3, #1
30003bfc:	858d3058 	strhi	r3, [sp, #88]	; 0x58
30003c00:	8a00000b 	bhi	30003c34 <_dtoa_r+0x27c>
30003c04:	e59f3118 	ldr	r3, [pc, #280]	; 30003d24 <_dtoa_r+0x36c>
30003c08:	e0833187 	add	r3, r3, r7, lsl #3
30003c0c:	e28d1018 	add	r1, sp, #24
30003c10:	e8910003 	ldm	r1, {r0, r1}
30003c14:	e893000c 	ldm	r3, {r2, r3}
30003c18:	eb0010f3 	bl	30007fec <__aeabi_dcmplt>
30003c1c:	e3500000 	cmp	r0, #0
30003c20:	03a0c000 	moveq	ip, #0
30003c24:	13a01000 	movne	r1, #0
30003c28:	058dc058 	streq	ip, [sp, #88]	; 0x58
30003c2c:	158d1058 	strne	r1, [sp, #88]	; 0x58
30003c30:	12477001 	subne	r7, r7, #1
30003c34:	e24bb001 	sub	fp, fp, #1
30003c38:	e05bb00a 	subs	fp, fp, sl
30003c3c:	426bb000 	rsbmi	fp, fp, #0
30003c40:	53a02000 	movpl	r2, #0
30003c44:	458db02c 	strmi	fp, [sp, #44]	; 0x2c
30003c48:	558d202c 	strpl	r2, [sp, #44]	; 0x2c
30003c4c:	43a0b000 	movmi	fp, #0
30003c50:	e3570000 	cmp	r7, #0
30003c54:	ba000259 	blt	300045c0 <_dtoa_r+0xc08>
30003c58:	e3a03000 	mov	r3, #0
30003c5c:	e58d7054 	str	r7, [sp, #84]	; 0x54
30003c60:	e58d3044 	str	r3, [sp, #68]	; 0x44
30003c64:	e08bb007 	add	fp, fp, r7
30003c68:	e59d30a8 	ldr	r3, [sp, #168]	; 0xa8
30003c6c:	e3530009 	cmp	r3, #9
30003c70:	8a00002c 	bhi	30003d28 <_dtoa_r+0x370>
30003c74:	e3530005 	cmp	r3, #5
30003c78:	c59dc0a8 	ldrgt	ip, [sp, #168]	; 0xa8
30003c7c:	c24cc004 	subgt	ip, ip, #4
30003c80:	c58dc0a8 	strgt	ip, [sp, #168]	; 0xa8
30003c84:	e59d10a8 	ldr	r1, [sp, #168]	; 0xa8
30003c88:	e2413002 	sub	r3, r1, #2
30003c8c:	d3a09001 	movle	r9, #1
30003c90:	c3a09000 	movgt	r9, #0
30003c94:	e3530003 	cmp	r3, #3
30003c98:	979ff103 	ldrls	pc, [pc, r3, lsl #2]
30003c9c:	ea0002c1 	b	300047a8 <_dtoa_r+0xdf0>
30003ca0:	30004790 	mulcc	r0, r0, r7
30003ca4:	30004758 	andcc	r4, r0, r8, asr r7
30003ca8:	300046ec 	andcc	r4, r0, ip, ror #13
30003cac:	3000479c 	mulcc	r0, ip, r7
30003cb0:	e3c774ff 	bic	r7, r7, #-16777216	; 0xff000000
30003cb4:	e3c7760f 	bic	r7, r7, #15728640	; 0xf00000
30003cb8:	e3570000 	cmp	r7, #0
30003cbc:	059f0058 	ldreq	r0, [pc, #88]	; 30003d1c <_dtoa_r+0x364>
30003cc0:	0affff79 	beq	30003aac <_dtoa_r+0xf4>
30003cc4:	eaffff77 	b	30003aa8 <_dtoa_r+0xf0>
30003cc8:	e28d1018 	add	r1, sp, #24
30003ccc:	e8910003 	ldm	r1, {r0, r1}
30003cd0:	e3c134ff 	bic	r3, r1, #-16777216	; 0xff000000
30003cd4:	e3c3360f 	bic	r3, r3, #15728640	; 0xf00000
30003cd8:	e38315ff 	orr	r1, r3, #1069547520	; 0x3fc00000
30003cdc:	e24aafff 	sub	sl, sl, #1020	; 0x3fc
30003ce0:	e3a0c000 	mov	ip, #0
30003ce4:	e24aa003 	sub	sl, sl, #3
30003ce8:	e3811603 	orr	r1, r1, #3145728	; 0x300000
30003cec:	e59db07c 	ldr	fp, [sp, #124]	; 0x7c
30003cf0:	e58dc05c 	str	ip, [sp, #92]	; 0x5c
30003cf4:	eaffff96 	b	30003b54 <_dtoa_r+0x19c>
30003cf8:	636f4361 	cmnvs	pc, #-2080374783	; 0x84000001
30003cfc:	3fd287a7 	svccc	0x00d287a7
30003d00:	8b60c8b3 	blhi	31835fd4 <IRQ_STACK_BASE+0x39fd4>
30003d04:	3fc68a28 	svccc	0x00c68a28
30003d08:	509f79fb 	ldrshpl	r7, [pc], fp
30003d0c:	3fd34413 	svccc	0x00d34413
30003d10:	30008ccd 	andcc	r8, r0, sp, asr #25
30003d14:	30008ccc 	andcc	r8, r0, ip, asr #25
30003d18:	30008cdc 	ldrdcc	r8, [r0], -ip
30003d1c:	30008cd0 	ldrdcc	r8, [r0], -r0
30003d20:	30008c08 	andcc	r8, r0, r8, lsl #24
30003d24:	30008b30 	andcc	r8, r0, r0, lsr fp
30003d28:	e3a02000 	mov	r2, #0
30003d2c:	e3e03000 	mvn	r3, #0
30003d30:	e3a0c001 	mov	ip, #1
30003d34:	e58d20a8 	str	r2, [sp, #168]	; 0xa8
30003d38:	e58d3040 	str	r3, [sp, #64]	; 0x40
30003d3c:	e58dc050 	str	ip, [sp, #80]	; 0x50
30003d40:	e58d3020 	str	r3, [sp, #32]
30003d44:	e58d20ac 	str	r2, [sp, #172]	; 0xac
30003d48:	e1a09002 	mov	r9, r2
30003d4c:	e3a01000 	mov	r1, #0
30003d50:	e5841044 	str	r1, [r4, #68]	; 0x44
30003d54:	e1a00004 	mov	r0, r4
30003d58:	eb00095f 	bl	300062dc <_Balloc>
30003d5c:	e3590000 	cmp	r9, #0
30003d60:	e1a0a000 	mov	sl, r0
30003d64:	e5840040 	str	r0, [r4, #64]	; 0x40
30003d68:	0a0000fa 	beq	30004158 <_dtoa_r+0x7a0>
30003d6c:	e3570000 	cmp	r7, #0
30003d70:	da00031d 	ble	300049ec <_dtoa_r+0x1034>
30003d74:	e51f3058 	ldr	r3, [pc, #-88]	; 30003d24 <_dtoa_r+0x36c>
30003d78:	e207200f 	and	r2, r7, #15
30003d7c:	e0833182 	add	r3, r3, r2, lsl #3
30003d80:	e1a05247 	asr	r5, r7, #4
30003d84:	e8930006 	ldm	r3, {r1, r2}
30003d88:	e3150010 	tst	r5, #16
30003d8c:	e58d1030 	str	r1, [sp, #48]	; 0x30
30003d90:	e58d2034 	str	r2, [sp, #52]	; 0x34
30003d94:	1a000211 	bne	300045e0 <_dtoa_r+0xc28>
30003d98:	e28d3018 	add	r3, sp, #24
30003d9c:	e893000c 	ldm	r3, {r2, r3}
30003da0:	e58d2038 	str	r2, [sp, #56]	; 0x38
30003da4:	e58d303c 	str	r3, [sp, #60]	; 0x3c
30003da8:	e3a09002 	mov	r9, #2
30003dac:	e3550000 	cmp	r5, #0
30003db0:	0a00000b 	beq	30003de4 <_dtoa_r+0x42c>
30003db4:	e51f609c 	ldr	r6, [pc, #-156]	; 30003d20 <_dtoa_r+0x368>
30003db8:	e28d1030 	add	r1, sp, #48	; 0x30
30003dbc:	e8910003 	ldm	r1, {r0, r1}
30003dc0:	e3150001 	tst	r5, #1
30003dc4:	1896000c 	ldmne	r6, {r2, r3}
30003dc8:	12899001 	addne	r9, r9, #1
30003dcc:	1b000f26 	blne	30007a6c <__aeabi_dmul>
30003dd0:	e1b050c5 	asrs	r5, r5, #1
30003dd4:	e2866008 	add	r6, r6, #8
30003dd8:	1afffff8 	bne	30003dc0 <_dtoa_r+0x408>
30003ddc:	e58d0030 	str	r0, [sp, #48]	; 0x30
30003de0:	e58d1034 	str	r1, [sp, #52]	; 0x34
30003de4:	e28d1038 	add	r1, sp, #56	; 0x38
30003de8:	e8910003 	ldm	r1, {r0, r1}
30003dec:	e28d3030 	add	r3, sp, #48	; 0x30
30003df0:	e893000c 	ldm	r3, {r2, r3}
30003df4:	eb000fc0 	bl	30007cfc <__aeabi_ddiv>
30003df8:	e58d0038 	str	r0, [sp, #56]	; 0x38
30003dfc:	e58d103c 	str	r1, [sp, #60]	; 0x3c
30003e00:	e59d2058 	ldr	r2, [sp, #88]	; 0x58
30003e04:	e3520000 	cmp	r2, #0
30003e08:	0a0000a7 	beq	300040ac <_dtoa_r+0x6f4>
30003e0c:	e3a035ff 	mov	r3, #1069547520	; 0x3fc00000
30003e10:	e2833603 	add	r3, r3, #3145728	; 0x300000
30003e14:	e28d1038 	add	r1, sp, #56	; 0x38
30003e18:	e8910003 	ldm	r1, {r0, r1}
30003e1c:	e3a02000 	mov	r2, #0
30003e20:	eb001071 	bl	30007fec <__aeabi_dcmplt>
30003e24:	e59dc020 	ldr	ip, [sp, #32]
30003e28:	e3500000 	cmp	r0, #0
30003e2c:	e3a03000 	mov	r3, #0
30003e30:	13a03001 	movne	r3, #1
30003e34:	e35c0000 	cmp	ip, #0
30003e38:	d3a03000 	movle	r3, #0
30003e3c:	c2033001 	andgt	r3, r3, #1
30003e40:	e3530000 	cmp	r3, #0
30003e44:	0a000098 	beq	300040ac <_dtoa_r+0x6f4>
30003e48:	e59d1040 	ldr	r1, [sp, #64]	; 0x40
30003e4c:	e3510000 	cmp	r1, #0
30003e50:	da0000be 	ble	30004150 <_dtoa_r+0x798>
30003e54:	e3a03101 	mov	r3, #1073741824	; 0x40000000
30003e58:	e3a02000 	mov	r2, #0
30003e5c:	e2833709 	add	r3, r3, #2359296	; 0x240000
30003e60:	e28d1038 	add	r1, sp, #56	; 0x38
30003e64:	e8910003 	ldm	r1, {r0, r1}
30003e68:	eb000eff 	bl	30007a6c <__aeabi_dmul>
30003e6c:	e58d0038 	str	r0, [sp, #56]	; 0x38
30003e70:	e58d103c 	str	r1, [sp, #60]	; 0x3c
30003e74:	e2890001 	add	r0, r9, #1
30003e78:	eb000ec4 	bl	30007990 <__aeabi_i2d>
30003e7c:	e1a02000 	mov	r2, r0
30003e80:	e1a03001 	mov	r3, r1
30003e84:	e28d1038 	add	r1, sp, #56	; 0x38
30003e88:	e8910003 	ldm	r1, {r0, r1}
30003e8c:	eb000ef6 	bl	30007a6c <__aeabi_dmul>
30003e90:	e3a03101 	mov	r3, #1073741824	; 0x40000000
30003e94:	e3a02000 	mov	r2, #0
30003e98:	e2833707 	add	r3, r3, #1835008	; 0x1c0000
30003e9c:	eb000dee 	bl	3000765c <__adddf3>
30003ea0:	e1a03001 	mov	r3, r1
30003ea4:	e1a02000 	mov	r2, r0
30003ea8:	e58d2048 	str	r2, [sp, #72]	; 0x48
30003eac:	e58d304c 	str	r3, [sp, #76]	; 0x4c
30003eb0:	e59dc04c 	ldr	ip, [sp, #76]	; 0x4c
30003eb4:	e2473001 	sub	r3, r7, #1
30003eb8:	e24cc50d 	sub	ip, ip, #54525952	; 0x3400000
30003ebc:	e58d3030 	str	r3, [sp, #48]	; 0x30
30003ec0:	e58dc04c 	str	ip, [sp, #76]	; 0x4c
30003ec4:	e59d9040 	ldr	r9, [sp, #64]	; 0x40
30003ec8:	e59d2050 	ldr	r2, [sp, #80]	; 0x50
30003ecc:	e3520000 	cmp	r2, #0
30003ed0:	0a0002ce 	beq	30004a10 <_dtoa_r+0x1058>
30003ed4:	e51f31b8 	ldr	r3, [pc, #-440]	; 30003d24 <_dtoa_r+0x36c>
30003ed8:	e28d6048 	add	r6, sp, #72	; 0x48
30003edc:	e8960060 	ldm	r6, {r5, r6}
30003ee0:	e0833189 	add	r3, r3, r9, lsl #3
30003ee4:	e3a015ff 	mov	r1, #1069547520	; 0x3fc00000
30003ee8:	e913000c 	ldmdb	r3, {r2, r3}
30003eec:	e3a00000 	mov	r0, #0
30003ef0:	e2811602 	add	r1, r1, #2097152	; 0x200000
30003ef4:	eb000f80 	bl	30007cfc <__aeabi_ddiv>
30003ef8:	e1a02005 	mov	r2, r5
30003efc:	e1a03006 	mov	r3, r6
30003f00:	eb000dd4 	bl	30007658 <__aeabi_dsub>
30003f04:	e58d0048 	str	r0, [sp, #72]	; 0x48
30003f08:	e58d104c 	str	r1, [sp, #76]	; 0x4c
30003f0c:	e28d1038 	add	r1, sp, #56	; 0x38
30003f10:	e8910003 	ldm	r1, {r0, r1}
30003f14:	eb00104c 	bl	3000804c <__aeabi_d2iz>
30003f18:	e1a06000 	mov	r6, r0
30003f1c:	eb000e9b 	bl	30007990 <__aeabi_i2d>
30003f20:	e1a02000 	mov	r2, r0
30003f24:	e1a03001 	mov	r3, r1
30003f28:	e28d1038 	add	r1, sp, #56	; 0x38
30003f2c:	e8910003 	ldm	r1, {r0, r1}
30003f30:	eb000dc8 	bl	30007658 <__aeabi_dsub>
30003f34:	e1a0500a 	mov	r5, sl
30003f38:	e2863030 	add	r3, r6, #48	; 0x30
30003f3c:	e58d0060 	str	r0, [sp, #96]	; 0x60
30003f40:	e58d1064 	str	r1, [sp, #100]	; 0x64
30003f44:	e4c53001 	strb	r3, [r5], #1
30003f48:	e28d1048 	add	r1, sp, #72	; 0x48
30003f4c:	e8910003 	ldm	r1, {r0, r1}
30003f50:	e28d3060 	add	r3, sp, #96	; 0x60
30003f54:	e893000c 	ldm	r3, {r2, r3}
30003f58:	eb001035 	bl	30008034 <__aeabi_dcmpgt>
30003f5c:	e3500000 	cmp	r0, #0
30003f60:	1a000187 	bne	30004584 <_dtoa_r+0xbcc>
30003f64:	e3a015ff 	mov	r1, #1069547520	; 0x3fc00000
30003f68:	e28d3060 	add	r3, sp, #96	; 0x60
30003f6c:	e893000c 	ldm	r3, {r2, r3}
30003f70:	e3a00000 	mov	r0, #0
30003f74:	e2811603 	add	r1, r1, #3145728	; 0x300000
30003f78:	eb000db6 	bl	30007658 <__aeabi_dsub>
30003f7c:	e1a02000 	mov	r2, r0
30003f80:	e1a03001 	mov	r3, r1
30003f84:	e28d1048 	add	r1, sp, #72	; 0x48
30003f88:	e8910003 	ldm	r1, {r0, r1}
30003f8c:	eb001028 	bl	30008034 <__aeabi_dcmpgt>
30003f90:	e3500000 	cmp	r0, #0
30003f94:	1a0002fd 	bne	30004b90 <_dtoa_r+0x11d8>
30003f98:	e3590001 	cmp	r9, #1
30003f9c:	da00006b 	ble	30004150 <_dtoa_r+0x798>
30003fa0:	e58d9038 	str	r9, [sp, #56]	; 0x38
30003fa4:	e58db070 	str	fp, [sp, #112]	; 0x70
30003fa8:	e58d7074 	str	r7, [sp, #116]	; 0x74
30003fac:	e1a0900a 	mov	r9, sl
30003fb0:	e1a07005 	mov	r7, r5
30003fb4:	e28db060 	add	fp, sp, #96	; 0x60
30003fb8:	e89b0c00 	ldm	fp, {sl, fp}
30003fbc:	e3a06001 	mov	r6, #1
30003fc0:	e58d4060 	str	r4, [sp, #96]	; 0x60
30003fc4:	e58d806c 	str	r8, [sp, #108]	; 0x6c
30003fc8:	e28d5048 	add	r5, sp, #72	; 0x48
30003fcc:	e8950030 	ldm	r5, {r4, r5}
30003fd0:	ea000008 	b	30003ff8 <_dtoa_r+0x640>
30003fd4:	eb000d9f 	bl	30007658 <__aeabi_dsub>
30003fd8:	e1a02004 	mov	r2, r4
30003fdc:	e1a03005 	mov	r3, r5
30003fe0:	eb001001 	bl	30007fec <__aeabi_dcmplt>
30003fe4:	e3500000 	cmp	r0, #0
30003fe8:	1a0002e4 	bne	30004b80 <_dtoa_r+0x11c8>
30003fec:	e59d3038 	ldr	r3, [sp, #56]	; 0x38
30003ff0:	e1560003 	cmp	r6, r3
30003ff4:	aa000386 	bge	30004e14 <_dtoa_r+0x145c>
30003ff8:	e3a03101 	mov	r3, #1073741824	; 0x40000000
30003ffc:	e1a00004 	mov	r0, r4
30004000:	e1a01005 	mov	r1, r5
30004004:	e3a02000 	mov	r2, #0
30004008:	e2833709 	add	r3, r3, #2359296	; 0x240000
3000400c:	eb000e96 	bl	30007a6c <__aeabi_dmul>
30004010:	e3a03101 	mov	r3, #1073741824	; 0x40000000
30004014:	e3a02000 	mov	r2, #0
30004018:	e2833709 	add	r3, r3, #2359296	; 0x240000
3000401c:	e1a04000 	mov	r4, r0
30004020:	e1a05001 	mov	r5, r1
30004024:	e1a0000a 	mov	r0, sl
30004028:	e1a0100b 	mov	r1, fp
3000402c:	eb000e8e 	bl	30007a6c <__aeabi_dmul>
30004030:	e1a0b001 	mov	fp, r1
30004034:	e1a0a000 	mov	sl, r0
30004038:	eb001003 	bl	3000804c <__aeabi_d2iz>
3000403c:	e1a08000 	mov	r8, r0
30004040:	eb000e52 	bl	30007990 <__aeabi_i2d>
30004044:	e1a02000 	mov	r2, r0
30004048:	e1a03001 	mov	r3, r1
3000404c:	e1a0000a 	mov	r0, sl
30004050:	e1a0100b 	mov	r1, fp
30004054:	eb000d7f 	bl	30007658 <__aeabi_dsub>
30004058:	e2888030 	add	r8, r8, #48	; 0x30
3000405c:	e7c98006 	strb	r8, [r9, r6]
30004060:	e1a02004 	mov	r2, r4
30004064:	e1a03005 	mov	r3, r5
30004068:	e1a0b001 	mov	fp, r1
3000406c:	e1a0a000 	mov	sl, r0
30004070:	eb000fdd 	bl	30007fec <__aeabi_dcmplt>
30004074:	e3a015ff 	mov	r1, #1069547520	; 0x3fc00000
30004078:	e3500000 	cmp	r0, #0
3000407c:	e1a0200a 	mov	r2, sl
30004080:	e1a0300b 	mov	r3, fp
30004084:	e2866001 	add	r6, r6, #1
30004088:	e3a00000 	mov	r0, #0
3000408c:	e2811603 	add	r1, r1, #3145728	; 0x300000
30004090:	e2877001 	add	r7, r7, #1
30004094:	0affffce 	beq	30003fd4 <_dtoa_r+0x61c>
30004098:	e1a05007 	mov	r5, r7
3000409c:	e59d806c 	ldr	r8, [sp, #108]	; 0x6c
300040a0:	e1a0a009 	mov	sl, r9
300040a4:	e59d4060 	ldr	r4, [sp, #96]	; 0x60
300040a8:	ea000135 	b	30004584 <_dtoa_r+0xbcc>
300040ac:	e1a00009 	mov	r0, r9
300040b0:	eb000e36 	bl	30007990 <__aeabi_i2d>
300040b4:	e28d3038 	add	r3, sp, #56	; 0x38
300040b8:	e893000c 	ldm	r3, {r2, r3}
300040bc:	eb000e6a 	bl	30007a6c <__aeabi_dmul>
300040c0:	e3a03101 	mov	r3, #1073741824	; 0x40000000
300040c4:	e3a02000 	mov	r2, #0
300040c8:	e2833707 	add	r3, r3, #1835008	; 0x1c0000
300040cc:	eb000d62 	bl	3000765c <__adddf3>
300040d0:	e1a03001 	mov	r3, r1
300040d4:	e1a02000 	mov	r2, r0
300040d8:	e58d2048 	str	r2, [sp, #72]	; 0x48
300040dc:	e58d304c 	str	r3, [sp, #76]	; 0x4c
300040e0:	e59dc04c 	ldr	ip, [sp, #76]	; 0x4c
300040e4:	e59d3020 	ldr	r3, [sp, #32]
300040e8:	e24c550d 	sub	r5, ip, #54525952	; 0x3400000
300040ec:	e3530000 	cmp	r3, #0
300040f0:	e58d504c 	str	r5, [sp, #76]	; 0x4c
300040f4:	1a000239 	bne	300049e0 <_dtoa_r+0x1028>
300040f8:	e3a03101 	mov	r3, #1073741824	; 0x40000000
300040fc:	e3a02000 	mov	r2, #0
30004100:	e2833705 	add	r3, r3, #1310720	; 0x140000
30004104:	e28d1038 	add	r1, sp, #56	; 0x38
30004108:	e8910003 	ldm	r1, {r0, r1}
3000410c:	eb000d51 	bl	30007658 <__aeabi_dsub>
30004110:	e59dc048 	ldr	ip, [sp, #72]	; 0x48
30004114:	e1a03005 	mov	r3, r5
30004118:	e1a0200c 	mov	r2, ip
3000411c:	e58d0030 	str	r0, [sp, #48]	; 0x30
30004120:	e58d1034 	str	r1, [sp, #52]	; 0x34
30004124:	eb000fc2 	bl	30008034 <__aeabi_dcmpgt>
30004128:	e3500000 	cmp	r0, #0
3000412c:	1a0001b4 	bne	30004804 <_dtoa_r+0xe4c>
30004130:	e59d1048 	ldr	r1, [sp, #72]	; 0x48
30004134:	e2853102 	add	r3, r5, #-2147483648	; 0x80000000
30004138:	e1a02001 	mov	r2, r1
3000413c:	e28d1030 	add	r1, sp, #48	; 0x30
30004140:	e8910003 	ldm	r1, {r0, r1}
30004144:	eb000fa8 	bl	30007fec <__aeabi_dcmplt>
30004148:	e3500000 	cmp	r0, #0
3000414c:	1a00015d 	bne	300046c8 <_dtoa_r+0xd10>
30004150:	e28d6018 	add	r6, sp, #24
30004154:	e8960060 	ldm	r6, {r5, r6}
30004158:	e59d3078 	ldr	r3, [sp, #120]	; 0x78
3000415c:	e357000e 	cmp	r7, #14
30004160:	c3a0c000 	movgt	ip, #0
30004164:	d3a0c001 	movle	ip, #1
30004168:	e3530000 	cmp	r3, #0
3000416c:	b3a0c000 	movlt	ip, #0
30004170:	e35c0000 	cmp	ip, #0
30004174:	0a00007d 	beq	30004370 <_dtoa_r+0x9b8>
30004178:	e59dc0ac 	ldr	ip, [sp, #172]	; 0xac
3000417c:	e59d1020 	ldr	r1, [sp, #32]
30004180:	e1a03fac 	lsr	r3, ip, #31
30004184:	e3510000 	cmp	r1, #0
30004188:	c3a03000 	movgt	r3, #0
3000418c:	d2033001 	andle	r3, r3, #1
30004190:	e3530000 	cmp	r3, #0
30004194:	e51f3478 	ldr	r3, [pc, #-1144]	; 30003d24 <_dtoa_r+0x36c>
30004198:	e0833187 	add	r3, r3, r7, lsl #3
3000419c:	e8930006 	ldm	r3, {r1, r2}
300041a0:	e58d1010 	str	r1, [sp, #16]
300041a4:	e58d2014 	str	r2, [sp, #20]
300041a8:	1a000138 	bne	30004690 <_dtoa_r+0xcd8>
300041ac:	e1a03002 	mov	r3, r2
300041b0:	e1a00005 	mov	r0, r5
300041b4:	e1a02001 	mov	r2, r1
300041b8:	e1a01006 	mov	r1, r6
300041bc:	eb000ece 	bl	30007cfc <__aeabi_ddiv>
300041c0:	eb000fa1 	bl	3000804c <__aeabi_d2iz>
300041c4:	e1a0b000 	mov	fp, r0
300041c8:	eb000df0 	bl	30007990 <__aeabi_i2d>
300041cc:	e28d3010 	add	r3, sp, #16
300041d0:	e893000c 	ldm	r3, {r2, r3}
300041d4:	eb000e24 	bl	30007a6c <__aeabi_dmul>
300041d8:	e1a02000 	mov	r2, r0
300041dc:	e1a03001 	mov	r3, r1
300041e0:	e1a00005 	mov	r0, r5
300041e4:	e1a01006 	mov	r1, r6
300041e8:	eb000d1a 	bl	30007658 <__aeabi_dsub>
300041ec:	e59d2020 	ldr	r2, [sp, #32]
300041f0:	e1a0500a 	mov	r5, sl
300041f4:	e28b3030 	add	r3, fp, #48	; 0x30
300041f8:	e3520001 	cmp	r2, #1
300041fc:	e58d0018 	str	r0, [sp, #24]
30004200:	e58d101c 	str	r1, [sp, #28]
30004204:	e4c53001 	strb	r3, [r5], #1
30004208:	0a00003f 	beq	3000430c <_dtoa_r+0x954>
3000420c:	e3a03101 	mov	r3, #1073741824	; 0x40000000
30004210:	e3a02000 	mov	r2, #0
30004214:	e2833709 	add	r3, r3, #2359296	; 0x240000
30004218:	eb000e13 	bl	30007a6c <__aeabi_dmul>
3000421c:	e3a02000 	mov	r2, #0
30004220:	e3a03000 	mov	r3, #0
30004224:	e58d0018 	str	r0, [sp, #24]
30004228:	e58d101c 	str	r1, [sp, #28]
3000422c:	eb000f68 	bl	30007fd4 <__aeabi_dcmpeq>
30004230:	e3500000 	cmp	r0, #0
30004234:	1a00004b 	bne	30004368 <_dtoa_r+0x9b0>
30004238:	e28a6002 	add	r6, sl, #2
3000423c:	e58d8028 	str	r8, [sp, #40]	; 0x28
30004240:	e3a09001 	mov	r9, #1
30004244:	e59d8020 	ldr	r8, [sp, #32]
30004248:	e58d702c 	str	r7, [sp, #44]	; 0x2c
3000424c:	e58da020 	str	sl, [sp, #32]
30004250:	e1a0a004 	mov	sl, r4
30004254:	e28d5018 	add	r5, sp, #24
30004258:	e8950030 	ldm	r5, {r4, r5}
3000425c:	ea000008 	b	30004284 <_dtoa_r+0x8cc>
30004260:	eb000e01 	bl	30007a6c <__aeabi_dmul>
30004264:	e3a02000 	mov	r2, #0
30004268:	e3a03000 	mov	r3, #0
3000426c:	e1a04000 	mov	r4, r0
30004270:	e1a05001 	mov	r5, r1
30004274:	eb000f56 	bl	30007fd4 <__aeabi_dcmpeq>
30004278:	e3500000 	cmp	r0, #0
3000427c:	e2866001 	add	r6, r6, #1
30004280:	1a0002ab 	bne	30004d34 <_dtoa_r+0x137c>
30004284:	e28d3010 	add	r3, sp, #16
30004288:	e893000c 	ldm	r3, {r2, r3}
3000428c:	e1a00004 	mov	r0, r4
30004290:	e1a01005 	mov	r1, r5
30004294:	eb000e98 	bl	30007cfc <__aeabi_ddiv>
30004298:	eb000f6b 	bl	3000804c <__aeabi_d2iz>
3000429c:	e1a0b000 	mov	fp, r0
300042a0:	eb000dba 	bl	30007990 <__aeabi_i2d>
300042a4:	e28d3010 	add	r3, sp, #16
300042a8:	e893000c 	ldm	r3, {r2, r3}
300042ac:	eb000dee 	bl	30007a6c <__aeabi_dmul>
300042b0:	e1a02000 	mov	r2, r0
300042b4:	e1a03001 	mov	r3, r1
300042b8:	e1a00004 	mov	r0, r4
300042bc:	e1a01005 	mov	r1, r5
300042c0:	eb000ce4 	bl	30007658 <__aeabi_dsub>
300042c4:	e2899001 	add	r9, r9, #1
300042c8:	e3a03101 	mov	r3, #1073741824	; 0x40000000
300042cc:	e28bc030 	add	ip, fp, #48	; 0x30
300042d0:	e1580009 	cmp	r8, r9
300042d4:	e1a04000 	mov	r4, r0
300042d8:	e1a05001 	mov	r5, r1
300042dc:	e3a02000 	mov	r2, #0
300042e0:	e2833709 	add	r3, r3, #2359296	; 0x240000
300042e4:	e546c001 	strb	ip, [r6, #-1]
300042e8:	e1a07006 	mov	r7, r6
300042ec:	1affffdb 	bne	30004260 <_dtoa_r+0x8a8>
300042f0:	e58d4018 	str	r4, [sp, #24]
300042f4:	e58d501c 	str	r5, [sp, #28]
300042f8:	e59d8028 	ldr	r8, [sp, #40]	; 0x28
300042fc:	e1a0400a 	mov	r4, sl
30004300:	e59d702c 	ldr	r7, [sp, #44]	; 0x2c
30004304:	e59da020 	ldr	sl, [sp, #32]
30004308:	e1a05006 	mov	r5, r6
3000430c:	e28d1018 	add	r1, sp, #24
30004310:	e8910003 	ldm	r1, {r0, r1}
30004314:	e1a02000 	mov	r2, r0
30004318:	e1a03001 	mov	r3, r1
3000431c:	eb000cce 	bl	3000765c <__adddf3>
30004320:	e58d0018 	str	r0, [sp, #24]
30004324:	e58d101c 	str	r1, [sp, #28]
30004328:	e28d3018 	add	r3, sp, #24
3000432c:	e893000c 	ldm	r3, {r2, r3}
30004330:	e28d1010 	add	r1, sp, #16
30004334:	e8910003 	ldm	r1, {r0, r1}
30004338:	eb000f2b 	bl	30007fec <__aeabi_dcmplt>
3000433c:	e3500000 	cmp	r0, #0
30004340:	1a000121 	bne	300047cc <_dtoa_r+0xe14>
30004344:	e28d1010 	add	r1, sp, #16
30004348:	e8910003 	ldm	r1, {r0, r1}
3000434c:	e28d3018 	add	r3, sp, #24
30004350:	e893000c 	ldm	r3, {r2, r3}
30004354:	eb000f1e 	bl	30007fd4 <__aeabi_dcmpeq>
30004358:	e3500000 	cmp	r0, #0
3000435c:	0a000001 	beq	30004368 <_dtoa_r+0x9b0>
30004360:	e31b0001 	tst	fp, #1
30004364:	1a000118 	bne	300047cc <_dtoa_r+0xe14>
30004368:	e58d7030 	str	r7, [sp, #48]	; 0x30
3000436c:	ea000084 	b	30004584 <_dtoa_r+0xbcc>
30004370:	e59d1050 	ldr	r1, [sp, #80]	; 0x50
30004374:	e3510000 	cmp	r1, #0
30004378:	1a0000a3 	bne	3000460c <_dtoa_r+0xc54>
3000437c:	e59dc044 	ldr	ip, [sp, #68]	; 0x44
30004380:	e59d902c 	ldr	r9, [sp, #44]	; 0x2c
30004384:	e58d1030 	str	r1, [sp, #48]	; 0x30
30004388:	e35b0000 	cmp	fp, #0
3000438c:	c3590000 	cmpgt	r9, #0
30004390:	da000007 	ble	300043b4 <_dtoa_r+0x9fc>
30004394:	e59d102c 	ldr	r1, [sp, #44]	; 0x2c
30004398:	e15b0009 	cmp	fp, r9
3000439c:	b1a0300b 	movlt	r3, fp
300043a0:	a1a03009 	movge	r3, r9
300043a4:	e0631001 	rsb	r1, r3, r1
300043a8:	e58d102c 	str	r1, [sp, #44]	; 0x2c
300043ac:	e063b00b 	rsb	fp, r3, fp
300043b0:	e0639009 	rsb	r9, r3, r9
300043b4:	e59d2044 	ldr	r2, [sp, #68]	; 0x44
300043b8:	e3520000 	cmp	r2, #0
300043bc:	da000019 	ble	30004428 <_dtoa_r+0xa70>
300043c0:	e59d3050 	ldr	r3, [sp, #80]	; 0x50
300043c4:	e3530000 	cmp	r3, #0
300043c8:	0a000260 	beq	30004d50 <_dtoa_r+0x1398>
300043cc:	e35c0000 	cmp	ip, #0
300043d0:	da000011 	ble	3000441c <_dtoa_r+0xa64>
300043d4:	e1a0200c 	mov	r2, ip
300043d8:	e59d1030 	ldr	r1, [sp, #48]	; 0x30
300043dc:	e1a00004 	mov	r0, r4
300043e0:	e58dc008 	str	ip, [sp, #8]
300043e4:	eb000986 	bl	30006a04 <__pow5mult>
300043e8:	e58d0030 	str	r0, [sp, #48]	; 0x30
300043ec:	e1a02008 	mov	r2, r8
300043f0:	e59d1030 	ldr	r1, [sp, #48]	; 0x30
300043f4:	e1a00004 	mov	r0, r4
300043f8:	eb0008c2 	bl	30006708 <__multiply>
300043fc:	e1a01008 	mov	r1, r8
30004400:	e1a03000 	mov	r3, r0
30004404:	e1a00004 	mov	r0, r4
30004408:	e58d300c 	str	r3, [sp, #12]
3000440c:	eb00068f 	bl	30005e50 <_Bfree>
30004410:	e59d300c 	ldr	r3, [sp, #12]
30004414:	e59dc008 	ldr	ip, [sp, #8]
30004418:	e1a08003 	mov	r8, r3
3000441c:	e59d1044 	ldr	r1, [sp, #68]	; 0x44
30004420:	e051200c 	subs	r2, r1, ip
30004424:	1a000269 	bne	30004dd0 <_dtoa_r+0x1418>
30004428:	e1a00004 	mov	r0, r4
3000442c:	e3a01001 	mov	r1, #1
30004430:	eb000931 	bl	300068fc <__i2b>
30004434:	e59d2054 	ldr	r2, [sp, #84]	; 0x54
30004438:	e3520000 	cmp	r2, #0
3000443c:	e58d0018 	str	r0, [sp, #24]
30004440:	da000003 	ble	30004454 <_dtoa_r+0xa9c>
30004444:	e1a01000 	mov	r1, r0
30004448:	e1a00004 	mov	r0, r4
3000444c:	eb00096c 	bl	30006a04 <__pow5mult>
30004450:	e58d0018 	str	r0, [sp, #24]
30004454:	e59d30a8 	ldr	r3, [sp, #168]	; 0xa8
30004458:	e3530001 	cmp	r3, #1
3000445c:	da0001f4 	ble	30004c34 <_dtoa_r+0x127c>
30004460:	e3a02000 	mov	r2, #0
30004464:	e58d2044 	str	r2, [sp, #68]	; 0x44
30004468:	e59d3054 	ldr	r3, [sp, #84]	; 0x54
3000446c:	e3530000 	cmp	r3, #0
30004470:	03a03001 	moveq	r3, #1
30004474:	1a0001c7 	bne	30004b98 <_dtoa_r+0x11e0>
30004478:	e083300b 	add	r3, r3, fp
3000447c:	e213301f 	ands	r3, r3, #31
30004480:	03a0301c 	moveq	r3, #28
30004484:	1a0000e6 	bne	30004824 <_dtoa_r+0xe6c>
30004488:	e59d202c 	ldr	r2, [sp, #44]	; 0x2c
3000448c:	e0822003 	add	r2, r2, r3
30004490:	e58d202c 	str	r2, [sp, #44]	; 0x2c
30004494:	e08bb003 	add	fp, fp, r3
30004498:	e0899003 	add	r9, r9, r3
3000449c:	e59d302c 	ldr	r3, [sp, #44]	; 0x2c
300044a0:	e3530000 	cmp	r3, #0
300044a4:	da000004 	ble	300044bc <_dtoa_r+0xb04>
300044a8:	e1a01008 	mov	r1, r8
300044ac:	e1a02003 	mov	r2, r3
300044b0:	e1a00004 	mov	r0, r4
300044b4:	eb00084e 	bl	300065f4 <__lshift>
300044b8:	e1a08000 	mov	r8, r0
300044bc:	e35b0000 	cmp	fp, #0
300044c0:	da000004 	ble	300044d8 <_dtoa_r+0xb20>
300044c4:	e59d1018 	ldr	r1, [sp, #24]
300044c8:	e1a0200b 	mov	r2, fp
300044cc:	e1a00004 	mov	r0, r4
300044d0:	eb000847 	bl	300065f4 <__lshift>
300044d4:	e58d0018 	str	r0, [sp, #24]
300044d8:	e59dc058 	ldr	ip, [sp, #88]	; 0x58
300044dc:	e35c0000 	cmp	ip, #0
300044e0:	1a0001b3 	bne	30004bb4 <_dtoa_r+0x11fc>
300044e4:	e59dc020 	ldr	ip, [sp, #32]
300044e8:	e59d10a8 	ldr	r1, [sp, #168]	; 0xa8
300044ec:	e35c0000 	cmp	ip, #0
300044f0:	c3a03000 	movgt	r3, #0
300044f4:	d3a03001 	movle	r3, #1
300044f8:	e3510002 	cmp	r1, #2
300044fc:	d3a03000 	movle	r3, #0
30004500:	e3530000 	cmp	r3, #0
30004504:	0a0000d0 	beq	3000484c <_dtoa_r+0xe94>
30004508:	e35c0000 	cmp	ip, #0
3000450c:	1a000070 	bne	300046d4 <_dtoa_r+0xd1c>
30004510:	e1a0300c 	mov	r3, ip
30004514:	e59d1018 	ldr	r1, [sp, #24]
30004518:	e3a02005 	mov	r2, #5
3000451c:	e1a00004 	mov	r0, r4
30004520:	eb0008fe 	bl	30006920 <__multadd>
30004524:	e58d0018 	str	r0, [sp, #24]
30004528:	e59d1018 	ldr	r1, [sp, #24]
3000452c:	e1a00008 	mov	r0, r8
30004530:	eb000688 	bl	30005f58 <__mcmp>
30004534:	e3500000 	cmp	r0, #0
30004538:	da000065 	ble	300046d4 <_dtoa_r+0xd1c>
3000453c:	e1a0500a 	mov	r5, sl
30004540:	e3a03031 	mov	r3, #49	; 0x31
30004544:	e4c53001 	strb	r3, [r5], #1
30004548:	e59d9030 	ldr	r9, [sp, #48]	; 0x30
3000454c:	e2877001 	add	r7, r7, #1
30004550:	e3a06000 	mov	r6, #0
30004554:	e59d1018 	ldr	r1, [sp, #24]
30004558:	e1a00004 	mov	r0, r4
3000455c:	eb00063b 	bl	30005e50 <_Bfree>
30004560:	e3590000 	cmp	r9, #0
30004564:	0affff7f 	beq	30004368 <_dtoa_r+0x9b0>
30004568:	e1560009 	cmp	r6, r9
3000456c:	13560000 	cmpne	r6, #0
30004570:	1a0000a7 	bne	30004814 <_dtoa_r+0xe5c>
30004574:	e1a01009 	mov	r1, r9
30004578:	e1a00004 	mov	r0, r4
3000457c:	eb000633 	bl	30005e50 <_Bfree>
30004580:	e58d7030 	str	r7, [sp, #48]	; 0x30
30004584:	e1a00004 	mov	r0, r4
30004588:	e1a01008 	mov	r1, r8
3000458c:	eb00062f 	bl	30005e50 <_Bfree>
30004590:	e59d20b8 	ldr	r2, [sp, #184]	; 0xb8
30004594:	e3520000 	cmp	r2, #0
30004598:	e3a02000 	mov	r2, #0
3000459c:	e59d1030 	ldr	r1, [sp, #48]	; 0x30
300045a0:	e5c52000 	strb	r2, [r5]
300045a4:	e2813001 	add	r3, r1, #1
300045a8:	e59dc0b0 	ldr	ip, [sp, #176]	; 0xb0
300045ac:	159d10b8 	ldrne	r1, [sp, #184]	; 0xb8
300045b0:	e58c3000 	str	r3, [ip]
300045b4:	15815000 	strne	r5, [r1]
300045b8:	e1a0000a 	mov	r0, sl
300045bc:	eafffd30 	b	30003a84 <_dtoa_r+0xcc>
300045c0:	e59dc02c 	ldr	ip, [sp, #44]	; 0x2c
300045c4:	e2671000 	rsb	r1, r7, #0
300045c8:	e067c00c 	rsb	ip, r7, ip
300045cc:	e3a02000 	mov	r2, #0
300045d0:	e58dc02c 	str	ip, [sp, #44]	; 0x2c
300045d4:	e58d1044 	str	r1, [sp, #68]	; 0x44
300045d8:	e58d2054 	str	r2, [sp, #84]	; 0x54
300045dc:	eafffda1 	b	30003c68 <_dtoa_r+0x2b0>
300045e0:	e51f38c8 	ldr	r3, [pc, #-2248]	; 30003d20 <_dtoa_r+0x368>
300045e4:	e28d1018 	add	r1, sp, #24
300045e8:	e8910003 	ldm	r1, {r0, r1}
300045ec:	e2833020 	add	r3, r3, #32
300045f0:	e893000c 	ldm	r3, {r2, r3}
300045f4:	eb000dc0 	bl	30007cfc <__aeabi_ddiv>
300045f8:	e205500f 	and	r5, r5, #15
300045fc:	e3a09003 	mov	r9, #3
30004600:	e58d0038 	str	r0, [sp, #56]	; 0x38
30004604:	e58d103c 	str	r1, [sp, #60]	; 0x3c
30004608:	eafffde7 	b	30003dac <_dtoa_r+0x3f4>
3000460c:	e59d20a8 	ldr	r2, [sp, #168]	; 0xa8
30004610:	e3520001 	cmp	r2, #1
30004614:	da0001f2 	ble	30004de4 <_dtoa_r+0x142c>
30004618:	e59d1020 	ldr	r1, [sp, #32]
3000461c:	e59d2044 	ldr	r2, [sp, #68]	; 0x44
30004620:	e2413001 	sub	r3, r1, #1
30004624:	e1520003 	cmp	r2, r3
30004628:	b59d1044 	ldrlt	r1, [sp, #68]	; 0x44
3000462c:	b59d2054 	ldrlt	r2, [sp, #84]	; 0x54
30004630:	b0613003 	rsblt	r3, r1, r3
30004634:	b0811003 	addlt	r1, r1, r3
30004638:	b0822003 	addlt	r2, r2, r3
3000463c:	a063c002 	rsbge	ip, r3, r2
30004640:	e59d3020 	ldr	r3, [sp, #32]
30004644:	b58d1044 	strlt	r1, [sp, #68]	; 0x44
30004648:	b58d2054 	strlt	r2, [sp, #84]	; 0x54
3000464c:	e3530000 	cmp	r3, #0
30004650:	b59d102c 	ldrlt	r1, [sp, #44]	; 0x2c
30004654:	b59d2020 	ldrlt	r2, [sp, #32]
30004658:	a59d902c 	ldrge	r9, [sp, #44]	; 0x2c
3000465c:	b0629001 	rsblt	r9, r2, r1
30004660:	b3a03000 	movlt	r3, #0
30004664:	e59d202c 	ldr	r2, [sp, #44]	; 0x2c
30004668:	e1a00004 	mov	r0, r4
3000466c:	e0822003 	add	r2, r2, r3
30004670:	e3a01001 	mov	r1, #1
30004674:	e58dc008 	str	ip, [sp, #8]
30004678:	e08bb003 	add	fp, fp, r3
3000467c:	e58d202c 	str	r2, [sp, #44]	; 0x2c
30004680:	eb00089d 	bl	300068fc <__i2b>
30004684:	e59dc008 	ldr	ip, [sp, #8]
30004688:	e58d0030 	str	r0, [sp, #48]	; 0x30
3000468c:	eaffff3d 	b	30004388 <_dtoa_r+0x9d0>
30004690:	e59d3020 	ldr	r3, [sp, #32]
30004694:	e3530000 	cmp	r3, #0
30004698:	1a00000a 	bne	300046c8 <_dtoa_r+0xd10>
3000469c:	e3a03101 	mov	r3, #1073741824	; 0x40000000
300046a0:	e3a02000 	mov	r2, #0
300046a4:	e2833705 	add	r3, r3, #1310720	; 0x140000
300046a8:	e28d1010 	add	r1, sp, #16
300046ac:	e8910003 	ldm	r1, {r0, r1}
300046b0:	eb000ced 	bl	30007a6c <__aeabi_dmul>
300046b4:	e1a02005 	mov	r2, r5
300046b8:	e1a03006 	mov	r3, r6
300046bc:	eb000e56 	bl	3000801c <__aeabi_dcmpge>
300046c0:	e3500000 	cmp	r0, #0
300046c4:	0a00004e 	beq	30004804 <_dtoa_r+0xe4c>
300046c8:	e3a02000 	mov	r2, #0
300046cc:	e58d2018 	str	r2, [sp, #24]
300046d0:	e58d2030 	str	r2, [sp, #48]	; 0x30
300046d4:	e59d30ac 	ldr	r3, [sp, #172]	; 0xac
300046d8:	e59d9030 	ldr	r9, [sp, #48]	; 0x30
300046dc:	e1e07003 	mvn	r7, r3
300046e0:	e1a0500a 	mov	r5, sl
300046e4:	e3a06000 	mov	r6, #0
300046e8:	eaffff99 	b	30004554 <_dtoa_r+0xb9c>
300046ec:	e3a02001 	mov	r2, #1
300046f0:	e58d2050 	str	r2, [sp, #80]	; 0x50
300046f4:	e59d30ac 	ldr	r3, [sp, #172]	; 0xac
300046f8:	e3530000 	cmp	r3, #0
300046fc:	da000146 	ble	30004c1c <_dtoa_r+0x1264>
30004700:	e59d30ac 	ldr	r3, [sp, #172]	; 0xac
30004704:	e58d3040 	str	r3, [sp, #64]	; 0x40
30004708:	e58d3020 	str	r3, [sp, #32]
3000470c:	e1a00003 	mov	r0, r3
30004710:	e3500017 	cmp	r0, #23
30004714:	e3a01000 	mov	r1, #0
30004718:	e5841044 	str	r1, [r4, #68]	; 0x44
3000471c:	83a02001 	movhi	r2, #1
30004720:	83a03004 	movhi	r3, #4
30004724:	9a00021a 	bls	30004f94 <_dtoa_r+0x15dc>
30004728:	e1a03083 	lsl	r3, r3, #1
3000472c:	e2831014 	add	r1, r3, #20
30004730:	e1510000 	cmp	r1, r0
30004734:	e1a01002 	mov	r1, r2
30004738:	e2822001 	add	r2, r2, #1
3000473c:	9afffff9 	bls	30004728 <_dtoa_r+0xd70>
30004740:	e59d2020 	ldr	r2, [sp, #32]
30004744:	e5841044 	str	r1, [r4, #68]	; 0x44
30004748:	e352000e 	cmp	r2, #14
3000474c:	83a09000 	movhi	r9, #0
30004750:	92099001 	andls	r9, r9, #1
30004754:	eafffd7e 	b	30003d54 <_dtoa_r+0x39c>
30004758:	e3a01000 	mov	r1, #0
3000475c:	e58d1050 	str	r1, [sp, #80]	; 0x50
30004760:	e59d20ac 	ldr	r2, [sp, #172]	; 0xac
30004764:	e0872002 	add	r2, r7, r2
30004768:	e2820001 	add	r0, r2, #1
3000476c:	e3500000 	cmp	r0, #0
30004770:	e58d2040 	str	r2, [sp, #64]	; 0x40
30004774:	c58d0020 	strgt	r0, [sp, #32]
30004778:	caffffe4 	bgt	30004710 <_dtoa_r+0xd58>
3000477c:	e350000e 	cmp	r0, #14
30004780:	83a09000 	movhi	r9, #0
30004784:	92099001 	andls	r9, r9, #1
30004788:	e58d0020 	str	r0, [sp, #32]
3000478c:	eafffd6e 	b	30003d4c <_dtoa_r+0x394>
30004790:	e3a0c000 	mov	ip, #0
30004794:	e58dc050 	str	ip, [sp, #80]	; 0x50
30004798:	eaffffd5 	b	300046f4 <_dtoa_r+0xd3c>
3000479c:	e3a01001 	mov	r1, #1
300047a0:	e58d1050 	str	r1, [sp, #80]	; 0x50
300047a4:	eaffffed 	b	30004760 <_dtoa_r+0xda8>
300047a8:	e3e02000 	mvn	r2, #0
300047ac:	e3a09000 	mov	r9, #0
300047b0:	e3a03001 	mov	r3, #1
300047b4:	e58d2040 	str	r2, [sp, #64]	; 0x40
300047b8:	e58d3050 	str	r3, [sp, #80]	; 0x50
300047bc:	e58d2020 	str	r2, [sp, #32]
300047c0:	e58d90ac 	str	r9, [sp, #172]	; 0xac
300047c4:	eafffd60 	b	30003d4c <_dtoa_r+0x394>
300047c8:	e1a05003 	mov	r5, r3
300047cc:	e5552001 	ldrb	r2, [r5, #-1]
300047d0:	e3520039 	cmp	r2, #57	; 0x39
300047d4:	e2453001 	sub	r3, r5, #1
300047d8:	1a00018a 	bne	30004e08 <_dtoa_r+0x1450>
300047dc:	e153000a 	cmp	r3, sl
300047e0:	1afffff8 	bne	300047c8 <_dtoa_r+0xe10>
300047e4:	e3a03030 	mov	r3, #48	; 0x30
300047e8:	e5ca3000 	strb	r3, [sl]
300047ec:	e2877001 	add	r7, r7, #1
300047f0:	e1a0300a 	mov	r3, sl
300047f4:	e3a02031 	mov	r2, #49	; 0x31
300047f8:	e5c32000 	strb	r2, [r3]
300047fc:	e58d7030 	str	r7, [sp, #48]	; 0x30
30004800:	eaffff5f 	b	30004584 <_dtoa_r+0xbcc>
30004804:	e3a0c000 	mov	ip, #0
30004808:	e58dc018 	str	ip, [sp, #24]
3000480c:	e58dc030 	str	ip, [sp, #48]	; 0x30
30004810:	eaffff49 	b	3000453c <_dtoa_r+0xb84>
30004814:	e1a01006 	mov	r1, r6
30004818:	e1a00004 	mov	r0, r4
3000481c:	eb00058b 	bl	30005e50 <_Bfree>
30004820:	eaffff53 	b	30004574 <_dtoa_r+0xbbc>
30004824:	e2633020 	rsb	r3, r3, #32
30004828:	e3530004 	cmp	r3, #4
3000482c:	da0001d5 	ble	30004f88 <_dtoa_r+0x15d0>
30004830:	e59d102c 	ldr	r1, [sp, #44]	; 0x2c
30004834:	e2433004 	sub	r3, r3, #4
30004838:	e0811003 	add	r1, r1, r3
3000483c:	e08bb003 	add	fp, fp, r3
30004840:	e58d102c 	str	r1, [sp, #44]	; 0x2c
30004844:	e0899003 	add	r9, r9, r3
30004848:	eaffff13 	b	3000449c <_dtoa_r+0xae4>
3000484c:	e59d1050 	ldr	r1, [sp, #80]	; 0x50
30004850:	e3510000 	cmp	r1, #0
30004854:	0a000108 	beq	30004c7c <_dtoa_r+0x12c4>
30004858:	e3590000 	cmp	r9, #0
3000485c:	da000004 	ble	30004874 <_dtoa_r+0xebc>
30004860:	e59d1030 	ldr	r1, [sp, #48]	; 0x30
30004864:	e1a02009 	mov	r2, r9
30004868:	e1a00004 	mov	r0, r4
3000486c:	eb000760 	bl	300065f4 <__lshift>
30004870:	e58d0030 	str	r0, [sp, #48]	; 0x30
30004874:	e59d2044 	ldr	r2, [sp, #68]	; 0x44
30004878:	e3520000 	cmp	r2, #0
3000487c:	059d9030 	ldreq	r9, [sp, #48]	; 0x30
30004880:	1a000189 	bne	30004eac <_dtoa_r+0x14f4>
30004884:	e2051001 	and	r1, r5, #1
30004888:	e59d6030 	ldr	r6, [sp, #48]	; 0x30
3000488c:	e3a03001 	mov	r3, #1
30004890:	e58d1040 	str	r1, [sp, #64]	; 0x40
30004894:	e58da02c 	str	sl, [sp, #44]	; 0x2c
30004898:	e58d7044 	str	r7, [sp, #68]	; 0x44
3000489c:	e58da030 	str	sl, [sp, #48]	; 0x30
300048a0:	e1a05003 	mov	r5, r3
300048a4:	e59d1018 	ldr	r1, [sp, #24]
300048a8:	e1a00008 	mov	r0, r8
300048ac:	ebfffbc7 	bl	300037d0 <quorem>
300048b0:	e2800030 	add	r0, r0, #48	; 0x30
300048b4:	e58d0028 	str	r0, [sp, #40]	; 0x28
300048b8:	e1a01006 	mov	r1, r6
300048bc:	e1a00008 	mov	r0, r8
300048c0:	eb0005a4 	bl	30005f58 <__mcmp>
300048c4:	e59d1018 	ldr	r1, [sp, #24]
300048c8:	e1a07000 	mov	r7, r0
300048cc:	e1a02009 	mov	r2, r9
300048d0:	e1a00004 	mov	r0, r4
300048d4:	eb0006e6 	bl	30006474 <__mdiff>
300048d8:	e590300c 	ldr	r3, [r0, #12]
300048dc:	e3530000 	cmp	r3, #0
300048e0:	e1a0a000 	mov	sl, r0
300048e4:	13a0b001 	movne	fp, #1
300048e8:	0a00002f 	beq	300049ac <_dtoa_r+0xff4>
300048ec:	e1a0100a 	mov	r1, sl
300048f0:	e1a00004 	mov	r0, r4
300048f4:	eb000555 	bl	30005e50 <_Bfree>
300048f8:	e59d20a8 	ldr	r2, [sp, #168]	; 0xa8
300048fc:	e19b2002 	orrs	r2, fp, r2
30004900:	1a000002 	bne	30004910 <_dtoa_r+0xf58>
30004904:	e59d3040 	ldr	r3, [sp, #64]	; 0x40
30004908:	e3530000 	cmp	r3, #0
3000490c:	0a00018b 	beq	30004f40 <_dtoa_r+0x1588>
30004910:	e3570000 	cmp	r7, #0
30004914:	ba000144 	blt	30004e2c <_dtoa_r+0x1474>
30004918:	e59d20a8 	ldr	r2, [sp, #168]	; 0xa8
3000491c:	e1972002 	orrs	r2, r7, r2
30004920:	1a000002 	bne	30004930 <_dtoa_r+0xf78>
30004924:	e59d3040 	ldr	r3, [sp, #64]	; 0x40
30004928:	e3530000 	cmp	r3, #0
3000492c:	0a00013e 	beq	30004e2c <_dtoa_r+0x1474>
30004930:	e35b0000 	cmp	fp, #0
30004934:	ca000175 	bgt	30004f10 <_dtoa_r+0x1558>
30004938:	e28d2028 	add	r2, sp, #40	; 0x28
3000493c:	e892000c 	ldm	r2, {r2, r3}
30004940:	e59d1020 	ldr	r1, [sp, #32]
30004944:	e4c32001 	strb	r2, [r3], #1
30004948:	e1550001 	cmp	r5, r1
3000494c:	e58d302c 	str	r3, [sp, #44]	; 0x2c
30004950:	0a00016a 	beq	30004f00 <_dtoa_r+0x1548>
30004954:	e1a01008 	mov	r1, r8
30004958:	e1a00004 	mov	r0, r4
3000495c:	e3a0200a 	mov	r2, #10
30004960:	e3a03000 	mov	r3, #0
30004964:	eb0007ed 	bl	30006920 <__multadd>
30004968:	e1560009 	cmp	r6, r9
3000496c:	e1a08000 	mov	r8, r0
30004970:	e1a01006 	mov	r1, r6
30004974:	0a000011 	beq	300049c0 <_dtoa_r+0x1008>
30004978:	e3a0200a 	mov	r2, #10
3000497c:	e3a03000 	mov	r3, #0
30004980:	e1a00004 	mov	r0, r4
30004984:	eb0007e5 	bl	30006920 <__multadd>
30004988:	e1a01009 	mov	r1, r9
3000498c:	e1a06000 	mov	r6, r0
30004990:	e3a0200a 	mov	r2, #10
30004994:	e1a00004 	mov	r0, r4
30004998:	e3a03000 	mov	r3, #0
3000499c:	eb0007df 	bl	30006920 <__multadd>
300049a0:	e2855001 	add	r5, r5, #1
300049a4:	e1a09000 	mov	r9, r0
300049a8:	eaffffbd 	b	300048a4 <_dtoa_r+0xeec>
300049ac:	e1a00008 	mov	r0, r8
300049b0:	e1a0100a 	mov	r1, sl
300049b4:	eb000567 	bl	30005f58 <__mcmp>
300049b8:	e1a0b000 	mov	fp, r0
300049bc:	eaffffca 	b	300048ec <_dtoa_r+0xf34>
300049c0:	e1a00004 	mov	r0, r4
300049c4:	e3a0200a 	mov	r2, #10
300049c8:	e3a03000 	mov	r3, #0
300049cc:	eb0007d3 	bl	30006920 <__multadd>
300049d0:	e2855001 	add	r5, r5, #1
300049d4:	e1a06000 	mov	r6, r0
300049d8:	e1a09000 	mov	r9, r0
300049dc:	eaffffb0 	b	300048a4 <_dtoa_r+0xeec>
300049e0:	e58d7030 	str	r7, [sp, #48]	; 0x30
300049e4:	e59d9020 	ldr	r9, [sp, #32]
300049e8:	eafffd36 	b	30003ec8 <_dtoa_r+0x510>
300049ec:	e2675000 	rsb	r5, r7, #0
300049f0:	e3550000 	cmp	r5, #0
300049f4:	1a0000db 	bne	30004d68 <_dtoa_r+0x13b0>
300049f8:	e28d2018 	add	r2, sp, #24
300049fc:	e8920006 	ldm	r2, {r1, r2}
30004a00:	e3a09002 	mov	r9, #2
30004a04:	e58d1038 	str	r1, [sp, #56]	; 0x38
30004a08:	e58d203c 	str	r2, [sp, #60]	; 0x3c
30004a0c:	eafffcfb 	b	30003e00 <_dtoa_r+0x448>
30004a10:	e51f1cf4 	ldr	r1, [pc, #-3316]	; 30003d24 <_dtoa_r+0x36c>
30004a14:	e0811189 	add	r1, r1, r9, lsl #3
30004a18:	e28d3048 	add	r3, sp, #72	; 0x48
30004a1c:	e893000c 	ldm	r3, {r2, r3}
30004a20:	e9110003 	ldmdb	r1, {r0, r1}
30004a24:	eb000c10 	bl	30007a6c <__aeabi_dmul>
30004a28:	e58d0048 	str	r0, [sp, #72]	; 0x48
30004a2c:	e58d104c 	str	r1, [sp, #76]	; 0x4c
30004a30:	e28d1038 	add	r1, sp, #56	; 0x38
30004a34:	e8910003 	ldm	r1, {r0, r1}
30004a38:	eb000d83 	bl	3000804c <__aeabi_d2iz>
30004a3c:	e1a06000 	mov	r6, r0
30004a40:	eb000bd2 	bl	30007990 <__aeabi_i2d>
30004a44:	e1a03001 	mov	r3, r1
30004a48:	e1a02000 	mov	r2, r0
30004a4c:	e28d1038 	add	r1, sp, #56	; 0x38
30004a50:	e8910003 	ldm	r1, {r0, r1}
30004a54:	eb000aff 	bl	30007658 <__aeabi_dsub>
30004a58:	e1a0500a 	mov	r5, sl
30004a5c:	e2863030 	add	r3, r6, #48	; 0x30
30004a60:	e3590001 	cmp	r9, #1
30004a64:	e58d0038 	str	r0, [sp, #56]	; 0x38
30004a68:	e58d103c 	str	r1, [sp, #60]	; 0x3c
30004a6c:	e4c53001 	strb	r3, [r5], #1
30004a70:	0a000022 	beq	30004b00 <_dtoa_r+0x1148>
30004a74:	e28d1038 	add	r1, sp, #56	; 0x38
30004a78:	e8910003 	ldm	r1, {r0, r1}
30004a7c:	e58d5060 	str	r5, [sp, #96]	; 0x60
30004a80:	e58d806c 	str	r8, [sp, #108]	; 0x6c
30004a84:	e3a06001 	mov	r6, #1
30004a88:	e1a0800b 	mov	r8, fp
30004a8c:	e1a05004 	mov	r5, r4
30004a90:	e3a03101 	mov	r3, #1073741824	; 0x40000000
30004a94:	e3a02000 	mov	r2, #0
30004a98:	e2833709 	add	r3, r3, #2359296	; 0x240000
30004a9c:	eb000bf2 	bl	30007a6c <__aeabi_dmul>
30004aa0:	e1a0b000 	mov	fp, r0
30004aa4:	e58d1008 	str	r1, [sp, #8]
30004aa8:	eb000d67 	bl	3000804c <__aeabi_d2iz>
30004aac:	e1a04000 	mov	r4, r0
30004ab0:	eb000bb6 	bl	30007990 <__aeabi_i2d>
30004ab4:	e59dc008 	ldr	ip, [sp, #8]
30004ab8:	e1a02000 	mov	r2, r0
30004abc:	e1a03001 	mov	r3, r1
30004ac0:	e1a0000b 	mov	r0, fp
30004ac4:	e1a0100c 	mov	r1, ip
30004ac8:	e2844030 	add	r4, r4, #48	; 0x30
30004acc:	eb000ae1 	bl	30007658 <__aeabi_dsub>
30004ad0:	e7ca4006 	strb	r4, [sl, r6]
30004ad4:	e2866001 	add	r6, r6, #1
30004ad8:	e1560009 	cmp	r6, r9
30004adc:	1affffeb 	bne	30004a90 <_dtoa_r+0x10d8>
30004ae0:	e1a04005 	mov	r4, r5
30004ae4:	e58d0038 	str	r0, [sp, #56]	; 0x38
30004ae8:	e58d103c 	str	r1, [sp, #60]	; 0x3c
30004aec:	e59d5060 	ldr	r5, [sp, #96]	; 0x60
30004af0:	e1a0b008 	mov	fp, r8
30004af4:	e2466001 	sub	r6, r6, #1
30004af8:	e59d806c 	ldr	r8, [sp, #108]	; 0x6c
30004afc:	e0855006 	add	r5, r5, r6
30004b00:	e3a035ff 	mov	r3, #1069547520	; 0x3fc00000
30004b04:	e3a02000 	mov	r2, #0
30004b08:	e2833602 	add	r3, r3, #2097152	; 0x200000
30004b0c:	e28d1048 	add	r1, sp, #72	; 0x48
30004b10:	e8910003 	ldm	r1, {r0, r1}
30004b14:	eb000ad0 	bl	3000765c <__adddf3>
30004b18:	e1a02000 	mov	r2, r0
30004b1c:	e1a03001 	mov	r3, r1
30004b20:	e28d1038 	add	r1, sp, #56	; 0x38
30004b24:	e8910003 	ldm	r1, {r0, r1}
30004b28:	eb000d41 	bl	30008034 <__aeabi_dcmpgt>
30004b2c:	e3500000 	cmp	r0, #0
30004b30:	1a000016 	bne	30004b90 <_dtoa_r+0x11d8>
30004b34:	e3a015ff 	mov	r1, #1069547520	; 0x3fc00000
30004b38:	e28d3048 	add	r3, sp, #72	; 0x48
30004b3c:	e893000c 	ldm	r3, {r2, r3}
30004b40:	e3a00000 	mov	r0, #0
30004b44:	e2811602 	add	r1, r1, #2097152	; 0x200000
30004b48:	eb000ac2 	bl	30007658 <__aeabi_dsub>
30004b4c:	e1a02000 	mov	r2, r0
30004b50:	e1a03001 	mov	r3, r1
30004b54:	e28d1038 	add	r1, sp, #56	; 0x38
30004b58:	e8910003 	ldm	r1, {r0, r1}
30004b5c:	eb000d22 	bl	30007fec <__aeabi_dcmplt>
30004b60:	e3500000 	cmp	r0, #0
30004b64:	0afffd79 	beq	30004150 <_dtoa_r+0x798>
30004b68:	e1a03005 	mov	r3, r5
30004b6c:	e1a05003 	mov	r5, r3
30004b70:	e5732001 	ldrb	r2, [r3, #-1]!
30004b74:	e3520030 	cmp	r2, #48	; 0x30
30004b78:	0afffffb 	beq	30004b6c <_dtoa_r+0x11b4>
30004b7c:	eafffe80 	b	30004584 <_dtoa_r+0xbcc>
30004b80:	e59d806c 	ldr	r8, [sp, #108]	; 0x6c
30004b84:	e59d4060 	ldr	r4, [sp, #96]	; 0x60
30004b88:	e1a05007 	mov	r5, r7
30004b8c:	e1a0a009 	mov	sl, r9
30004b90:	e59d7030 	ldr	r7, [sp, #48]	; 0x30
30004b94:	eaffff0c 	b	300047cc <_dtoa_r+0xe14>
30004b98:	e59dc018 	ldr	ip, [sp, #24]
30004b9c:	e59c3010 	ldr	r3, [ip, #16]
30004ba0:	e08c3103 	add	r3, ip, r3, lsl #2
30004ba4:	e5930010 	ldr	r0, [r3, #16]
30004ba8:	eb0004af 	bl	30005e6c <__hi0bits>
30004bac:	e2603020 	rsb	r3, r0, #32
30004bb0:	eafffe30 	b	30004478 <_dtoa_r+0xac0>
30004bb4:	e1a00008 	mov	r0, r8
30004bb8:	e59d1018 	ldr	r1, [sp, #24]
30004bbc:	eb0004e5 	bl	30005f58 <__mcmp>
30004bc0:	e3500000 	cmp	r0, #0
30004bc4:	aafffe46 	bge	300044e4 <_dtoa_r+0xb2c>
30004bc8:	e1a01008 	mov	r1, r8
30004bcc:	e3a0200a 	mov	r2, #10
30004bd0:	e1a00004 	mov	r0, r4
30004bd4:	e3a03000 	mov	r3, #0
30004bd8:	eb000750 	bl	30006920 <__multadd>
30004bdc:	e59d1050 	ldr	r1, [sp, #80]	; 0x50
30004be0:	e3510000 	cmp	r1, #0
30004be4:	059d2040 	ldreq	r2, [sp, #64]	; 0x40
30004be8:	e1a08000 	mov	r8, r0
30004bec:	e2477001 	sub	r7, r7, #1
30004bf0:	058d2020 	streq	r2, [sp, #32]
30004bf4:	0afffe3a 	beq	300044e4 <_dtoa_r+0xb2c>
30004bf8:	e3a03000 	mov	r3, #0
30004bfc:	e59d1030 	ldr	r1, [sp, #48]	; 0x30
30004c00:	e1a00004 	mov	r0, r4
30004c04:	e3a0200a 	mov	r2, #10
30004c08:	eb000744 	bl	30006920 <__multadd>
30004c0c:	e59d3040 	ldr	r3, [sp, #64]	; 0x40
30004c10:	e58d0030 	str	r0, [sp, #48]	; 0x30
30004c14:	e58d3020 	str	r3, [sp, #32]
30004c18:	eafffe31 	b	300044e4 <_dtoa_r+0xb2c>
30004c1c:	e3a0c001 	mov	ip, #1
30004c20:	e58dc040 	str	ip, [sp, #64]	; 0x40
30004c24:	e009900c 	and	r9, r9, ip
30004c28:	e58dc020 	str	ip, [sp, #32]
30004c2c:	e58dc0ac 	str	ip, [sp, #172]	; 0xac
30004c30:	eafffc45 	b	30003d4c <_dtoa_r+0x394>
30004c34:	e3550000 	cmp	r5, #0
30004c38:	1afffe08 	bne	30004460 <_dtoa_r+0xaa8>
30004c3c:	e3c634ff 	bic	r3, r6, #-16777216	; 0xff000000
30004c40:	e3c3360f 	bic	r3, r3, #15728640	; 0xf00000
30004c44:	e3530000 	cmp	r3, #0
30004c48:	1afffe04 	bne	30004460 <_dtoa_r+0xaa8>
30004c4c:	e3c63102 	bic	r3, r6, #-2147483648	; 0x80000000
30004c50:	e1a03a23 	lsr	r3, r3, #20
30004c54:	e1a03a03 	lsl	r3, r3, #20
30004c58:	e3530000 	cmp	r3, #0
30004c5c:	0afffdff 	beq	30004460 <_dtoa_r+0xaa8>
30004c60:	e59dc02c 	ldr	ip, [sp, #44]	; 0x2c
30004c64:	e3a01001 	mov	r1, #1
30004c68:	e28cc001 	add	ip, ip, #1
30004c6c:	e58dc02c 	str	ip, [sp, #44]	; 0x2c
30004c70:	e28bb001 	add	fp, fp, #1
30004c74:	e58d1044 	str	r1, [sp, #68]	; 0x44
30004c78:	eafffdfa 	b	30004468 <_dtoa_r+0xab0>
30004c7c:	e1a0b007 	mov	fp, r7
30004c80:	e59d6050 	ldr	r6, [sp, #80]	; 0x50
30004c84:	e1a0500a 	mov	r5, sl
30004c88:	e59d9018 	ldr	r9, [sp, #24]
30004c8c:	e59d7020 	ldr	r7, [sp, #32]
30004c90:	ea000005 	b	30004cac <_dtoa_r+0x12f4>
30004c94:	e1a01008 	mov	r1, r8
30004c98:	e1a00004 	mov	r0, r4
30004c9c:	e3a0200a 	mov	r2, #10
30004ca0:	e3a03000 	mov	r3, #0
30004ca4:	eb00071d 	bl	30006920 <__multadd>
30004ca8:	e1a08000 	mov	r8, r0
30004cac:	e1a01009 	mov	r1, r9
30004cb0:	e1a00008 	mov	r0, r8
30004cb4:	ebfffac5 	bl	300037d0 <quorem>
30004cb8:	e2800030 	add	r0, r0, #48	; 0x30
30004cbc:	e7ca0006 	strb	r0, [sl, r6]
30004cc0:	e2866001 	add	r6, r6, #1
30004cc4:	e1570006 	cmp	r7, r6
30004cc8:	e2855001 	add	r5, r5, #1
30004ccc:	cafffff0 	bgt	30004c94 <_dtoa_r+0x12dc>
30004cd0:	e58d0028 	str	r0, [sp, #40]	; 0x28
30004cd4:	e59d9030 	ldr	r9, [sp, #48]	; 0x30
30004cd8:	e1a0700b 	mov	r7, fp
30004cdc:	e3a06000 	mov	r6, #0
30004ce0:	e1a01008 	mov	r1, r8
30004ce4:	e3a02001 	mov	r2, #1
30004ce8:	e1a00004 	mov	r0, r4
30004cec:	eb000640 	bl	300065f4 <__lshift>
30004cf0:	e59d1018 	ldr	r1, [sp, #24]
30004cf4:	e1a08000 	mov	r8, r0
30004cf8:	eb000496 	bl	30005f58 <__mcmp>
30004cfc:	e3500000 	cmp	r0, #0
30004d00:	ca000001 	bgt	30004d0c <_dtoa_r+0x1354>
30004d04:	ea00005e 	b	30004e84 <_dtoa_r+0x14cc>
30004d08:	e1a05003 	mov	r5, r3
30004d0c:	e5552001 	ldrb	r2, [r5, #-1]
30004d10:	e3520039 	cmp	r2, #57	; 0x39
30004d14:	e2453001 	sub	r3, r5, #1
30004d18:	1a000075 	bne	30004ef4 <_dtoa_r+0x153c>
30004d1c:	e153000a 	cmp	r3, sl
30004d20:	1afffff8 	bne	30004d08 <_dtoa_r+0x1350>
30004d24:	e3a03031 	mov	r3, #49	; 0x31
30004d28:	e5ca3000 	strb	r3, [sl]
30004d2c:	e2877001 	add	r7, r7, #1
30004d30:	eafffe07 	b	30004554 <_dtoa_r+0xb9c>
30004d34:	e1a05007 	mov	r5, r7
30004d38:	e59d702c 	ldr	r7, [sp, #44]	; 0x2c
30004d3c:	e1a0400a 	mov	r4, sl
30004d40:	e59d8028 	ldr	r8, [sp, #40]	; 0x28
30004d44:	e59da020 	ldr	sl, [sp, #32]
30004d48:	e58d7030 	str	r7, [sp, #48]	; 0x30
30004d4c:	eafffe0c 	b	30004584 <_dtoa_r+0xbcc>
30004d50:	e1a01008 	mov	r1, r8
30004d54:	e59d2044 	ldr	r2, [sp, #68]	; 0x44
30004d58:	e1a00004 	mov	r0, r4
30004d5c:	eb000728 	bl	30006a04 <__pow5mult>
30004d60:	e1a08000 	mov	r8, r0
30004d64:	eafffdaf 	b	30004428 <_dtoa_r+0xa70>
30004d68:	e59f3238 	ldr	r3, [pc, #568]	; 30004fa8 <_dtoa_r+0x15f0>
30004d6c:	e205200f 	and	r2, r5, #15
30004d70:	e0833182 	add	r3, r3, r2, lsl #3
30004d74:	e893000c 	ldm	r3, {r2, r3}
30004d78:	e28d1018 	add	r1, sp, #24
30004d7c:	e8910003 	ldm	r1, {r0, r1}
30004d80:	eb000b39 	bl	30007a6c <__aeabi_dmul>
30004d84:	e1b05245 	asrs	r5, r5, #4
30004d88:	e58d0038 	str	r0, [sp, #56]	; 0x38
30004d8c:	e58d103c 	str	r1, [sp, #60]	; 0x3c
30004d90:	03a09002 	moveq	r9, #2
30004d94:	0afffc19 	beq	30003e00 <_dtoa_r+0x448>
30004d98:	e59f620c 	ldr	r6, [pc, #524]	; 30004fac <_dtoa_r+0x15f4>
30004d9c:	e28d1038 	add	r1, sp, #56	; 0x38
30004da0:	e8910003 	ldm	r1, {r0, r1}
30004da4:	e3a09002 	mov	r9, #2
30004da8:	e3150001 	tst	r5, #1
30004dac:	1896000c 	ldmne	r6, {r2, r3}
30004db0:	12899001 	addne	r9, r9, #1
30004db4:	1b000b2c 	blne	30007a6c <__aeabi_dmul>
30004db8:	e1b050c5 	asrs	r5, r5, #1
30004dbc:	e2866008 	add	r6, r6, #8
30004dc0:	1afffff8 	bne	30004da8 <_dtoa_r+0x13f0>
30004dc4:	e58d0038 	str	r0, [sp, #56]	; 0x38
30004dc8:	e58d103c 	str	r1, [sp, #60]	; 0x3c
30004dcc:	eafffc0b 	b	30003e00 <_dtoa_r+0x448>
30004dd0:	e1a01008 	mov	r1, r8
30004dd4:	e1a00004 	mov	r0, r4
30004dd8:	eb000709 	bl	30006a04 <__pow5mult>
30004ddc:	e1a08000 	mov	r8, r0
30004de0:	eafffd90 	b	30004428 <_dtoa_r+0xa70>
30004de4:	e59dc05c 	ldr	ip, [sp, #92]	; 0x5c
30004de8:	e35c0000 	cmp	ip, #0
30004dec:	059d307c 	ldreq	r3, [sp, #124]	; 0x7c
30004df0:	12833e43 	addne	r3, r3, #1072	; 0x430
30004df4:	12833003 	addne	r3, r3, #3
30004df8:	02633036 	rsbeq	r3, r3, #54	; 0x36
30004dfc:	e59dc044 	ldr	ip, [sp, #68]	; 0x44
30004e00:	e59d902c 	ldr	r9, [sp, #44]	; 0x2c
30004e04:	eafffe16 	b	30004664 <_dtoa_r+0xcac>
30004e08:	e2822001 	add	r2, r2, #1
30004e0c:	e20220ff 	and	r2, r2, #255	; 0xff
30004e10:	eafffe78 	b	300047f8 <_dtoa_r+0xe40>
30004e14:	e28d806c 	add	r8, sp, #108	; 0x6c
30004e18:	e8980900 	ldm	r8, {r8, fp}
30004e1c:	e59d7074 	ldr	r7, [sp, #116]	; 0x74
30004e20:	e1a0a009 	mov	sl, r9
30004e24:	e59d4060 	ldr	r4, [sp, #96]	; 0x60
30004e28:	eafffcc8 	b	30004150 <_dtoa_r+0x798>
30004e2c:	e35b0000 	cmp	fp, #0
30004e30:	e59d502c 	ldr	r5, [sp, #44]	; 0x2c
30004e34:	e59d7044 	ldr	r7, [sp, #68]	; 0x44
30004e38:	e59da030 	ldr	sl, [sp, #48]	; 0x30
30004e3c:	da00000d 	ble	30004e78 <_dtoa_r+0x14c0>
30004e40:	e1a01008 	mov	r1, r8
30004e44:	e3a02001 	mov	r2, #1
30004e48:	e1a00004 	mov	r0, r4
30004e4c:	eb0005e8 	bl	300065f4 <__lshift>
30004e50:	e59d1018 	ldr	r1, [sp, #24]
30004e54:	e1a08000 	mov	r8, r0
30004e58:	eb00043e 	bl	30005f58 <__mcmp>
30004e5c:	e3500000 	cmp	r0, #0
30004e60:	da000043 	ble	30004f74 <_dtoa_r+0x15bc>
30004e64:	e59d1028 	ldr	r1, [sp, #40]	; 0x28
30004e68:	e3510039 	cmp	r1, #57	; 0x39
30004e6c:	0a000030 	beq	30004f34 <_dtoa_r+0x157c>
30004e70:	e2811001 	add	r1, r1, #1
30004e74:	e58d1028 	str	r1, [sp, #40]	; 0x28
30004e78:	e59d2028 	ldr	r2, [sp, #40]	; 0x28
30004e7c:	e4c52001 	strb	r2, [r5], #1
30004e80:	eafffdb3 	b	30004554 <_dtoa_r+0xb9c>
30004e84:	1a000002 	bne	30004e94 <_dtoa_r+0x14dc>
30004e88:	e59dc028 	ldr	ip, [sp, #40]	; 0x28
30004e8c:	e31c0001 	tst	ip, #1
30004e90:	1affff9d 	bne	30004d0c <_dtoa_r+0x1354>
30004e94:	e1a03005 	mov	r3, r5
30004e98:	e1a05003 	mov	r5, r3
30004e9c:	e5732001 	ldrb	r2, [r3, #-1]!
30004ea0:	e3520030 	cmp	r2, #48	; 0x30
30004ea4:	0afffffb 	beq	30004e98 <_dtoa_r+0x14e0>
30004ea8:	eafffda9 	b	30004554 <_dtoa_r+0xb9c>
30004eac:	e59d3030 	ldr	r3, [sp, #48]	; 0x30
30004eb0:	e1a00004 	mov	r0, r4
30004eb4:	e5931004 	ldr	r1, [r3, #4]
30004eb8:	eb000507 	bl	300062dc <_Balloc>
30004ebc:	e59dc030 	ldr	ip, [sp, #48]	; 0x30
30004ec0:	e59c2010 	ldr	r2, [ip, #16]
30004ec4:	e2822002 	add	r2, r2, #2
30004ec8:	e1a09000 	mov	r9, r0
30004ecc:	e28c100c 	add	r1, ip, #12
30004ed0:	e1a02102 	lsl	r2, r2, #2
30004ed4:	e280000c 	add	r0, r0, #12
30004ed8:	eb00030c 	bl	30005b10 <memcpy>
30004edc:	e1a01009 	mov	r1, r9
30004ee0:	e1a00004 	mov	r0, r4
30004ee4:	e3a02001 	mov	r2, #1
30004ee8:	eb0005c1 	bl	300065f4 <__lshift>
30004eec:	e1a09000 	mov	r9, r0
30004ef0:	eafffe63 	b	30004884 <_dtoa_r+0xecc>
30004ef4:	e2822001 	add	r2, r2, #1
30004ef8:	e5c32000 	strb	r2, [r3]
30004efc:	eafffd94 	b	30004554 <_dtoa_r+0xb9c>
30004f00:	e59d502c 	ldr	r5, [sp, #44]	; 0x2c
30004f04:	e59d7044 	ldr	r7, [sp, #68]	; 0x44
30004f08:	e59da030 	ldr	sl, [sp, #48]	; 0x30
30004f0c:	eaffff73 	b	30004ce0 <_dtoa_r+0x1328>
30004f10:	e59d3028 	ldr	r3, [sp, #40]	; 0x28
30004f14:	e3530039 	cmp	r3, #57	; 0x39
30004f18:	e59d502c 	ldr	r5, [sp, #44]	; 0x2c
30004f1c:	e59d7044 	ldr	r7, [sp, #68]	; 0x44
30004f20:	e59da030 	ldr	sl, [sp, #48]	; 0x30
30004f24:	159dc028 	ldrne	ip, [sp, #40]	; 0x28
30004f28:	128c3001 	addne	r3, ip, #1
30004f2c:	14c53001 	strbne	r3, [r5], #1
30004f30:	1afffd87 	bne	30004554 <_dtoa_r+0xb9c>
30004f34:	e3a03039 	mov	r3, #57	; 0x39
30004f38:	e4c53001 	strb	r3, [r5], #1
30004f3c:	eaffff72 	b	30004d0c <_dtoa_r+0x1354>
30004f40:	e59dc028 	ldr	ip, [sp, #40]	; 0x28
30004f44:	e35c0039 	cmp	ip, #57	; 0x39
30004f48:	e1a03007 	mov	r3, r7
30004f4c:	e59d502c 	ldr	r5, [sp, #44]	; 0x2c
30004f50:	e59d7044 	ldr	r7, [sp, #68]	; 0x44
30004f54:	e59da030 	ldr	sl, [sp, #48]	; 0x30
30004f58:	0afffff5 	beq	30004f34 <_dtoa_r+0x157c>
30004f5c:	e3530000 	cmp	r3, #0
30004f60:	c28cc001 	addgt	ip, ip, #1
30004f64:	c58dc028 	strgt	ip, [sp, #40]	; 0x28
30004f68:	e59d1028 	ldr	r1, [sp, #40]	; 0x28
30004f6c:	e4c51001 	strb	r1, [r5], #1
30004f70:	eafffd77 	b	30004554 <_dtoa_r+0xb9c>
30004f74:	1affffbf 	bne	30004e78 <_dtoa_r+0x14c0>
30004f78:	e59dc028 	ldr	ip, [sp, #40]	; 0x28
30004f7c:	e31c0001 	tst	ip, #1
30004f80:	0affffbc 	beq	30004e78 <_dtoa_r+0x14c0>
30004f84:	eaffffb6 	b	30004e64 <_dtoa_r+0x14ac>
30004f88:	0afffd43 	beq	3000449c <_dtoa_r+0xae4>
30004f8c:	e283301c 	add	r3, r3, #28
30004f90:	eafffd3c 	b	30004488 <_dtoa_r+0xad0>
30004f94:	e59dc020 	ldr	ip, [sp, #32]
30004f98:	e35c000e 	cmp	ip, #14
30004f9c:	83a09000 	movhi	r9, #0
30004fa0:	92099001 	andls	r9, r9, #1
30004fa4:	eafffb6a 	b	30003d54 <_dtoa_r+0x39c>
30004fa8:	30008b30 	andcc	r8, r0, r0, lsr fp
30004fac:	30008c08 	andcc	r8, r0, r8, lsl #24

30004fb0 <_malloc_trim_r>:
30004fb0:	e92d40f8 	push	{r3, r4, r5, r6, r7, lr}
30004fb4:	e59f50e4 	ldr	r5, [pc, #228]	; 300050a0 <_malloc_trim_r+0xf0>
30004fb8:	e1a07001 	mov	r7, r1
30004fbc:	e1a04000 	mov	r4, r0
30004fc0:	eb0003a0 	bl	30005e48 <__malloc_lock>
30004fc4:	e5953008 	ldr	r3, [r5, #8]
30004fc8:	e5936004 	ldr	r6, [r3, #4]
30004fcc:	e3c66003 	bic	r6, r6, #3
30004fd0:	e2863efe 	add	r3, r6, #4064	; 0xfe0
30004fd4:	e283300f 	add	r3, r3, #15
30004fd8:	e0677003 	rsb	r7, r7, r3
30004fdc:	e1a07627 	lsr	r7, r7, #12
30004fe0:	e2477001 	sub	r7, r7, #1
30004fe4:	e1a07607 	lsl	r7, r7, #12
30004fe8:	e3570a01 	cmp	r7, #4096	; 0x1000
30004fec:	ba000006 	blt	3000500c <_malloc_trim_r+0x5c>
30004ff0:	e1a00004 	mov	r0, r4
30004ff4:	e3a01000 	mov	r1, #0
30004ff8:	eb00084f 	bl	3000713c <_sbrk_r>
30004ffc:	e5953008 	ldr	r3, [r5, #8]
30005000:	e0863003 	add	r3, r6, r3
30005004:	e1530000 	cmp	r3, r0
30005008:	0a000004 	beq	30005020 <_malloc_trim_r+0x70>
3000500c:	e1a00004 	mov	r0, r4
30005010:	eb00038d 	bl	30005e4c <__malloc_unlock>
30005014:	e3a00000 	mov	r0, #0
30005018:	e8bd40f8 	pop	{r3, r4, r5, r6, r7, lr}
3000501c:	e12fff1e 	bx	lr
30005020:	e1a00004 	mov	r0, r4
30005024:	e2671000 	rsb	r1, r7, #0
30005028:	eb000843 	bl	3000713c <_sbrk_r>
3000502c:	e3700001 	cmn	r0, #1
30005030:	0a00000b 	beq	30005064 <_malloc_trim_r+0xb4>
30005034:	e5953008 	ldr	r3, [r5, #8]
30005038:	e0676006 	rsb	r6, r7, r6
3000503c:	e3866001 	orr	r6, r6, #1
30005040:	e5836004 	str	r6, [r3, #4]
30005044:	e59f3058 	ldr	r3, [pc, #88]	; 300050a4 <_malloc_trim_r+0xf4>
30005048:	e5932000 	ldr	r2, [r3]
3000504c:	e0677002 	rsb	r7, r7, r2
30005050:	e1a00004 	mov	r0, r4
30005054:	e5837000 	str	r7, [r3]
30005058:	eb00037b 	bl	30005e4c <__malloc_unlock>
3000505c:	e3a00001 	mov	r0, #1
30005060:	eaffffec 	b	30005018 <_malloc_trim_r+0x68>
30005064:	e1a00004 	mov	r0, r4
30005068:	e3a01000 	mov	r1, #0
3000506c:	eb000832 	bl	3000713c <_sbrk_r>
30005070:	e5953008 	ldr	r3, [r5, #8]
30005074:	e0632000 	rsb	r2, r3, r0
30005078:	e352000f 	cmp	r2, #15
3000507c:	daffffe2 	ble	3000500c <_malloc_trim_r+0x5c>
30005080:	e59f1020 	ldr	r1, [pc, #32]	; 300050a8 <_malloc_trim_r+0xf8>
30005084:	e5911000 	ldr	r1, [r1]
30005088:	e0610000 	rsb	r0, r1, r0
3000508c:	e59f1010 	ldr	r1, [pc, #16]	; 300050a4 <_malloc_trim_r+0xf4>
30005090:	e3822001 	orr	r2, r2, #1
30005094:	e5810000 	str	r0, [r1]
30005098:	e5832004 	str	r2, [r3, #4]
3000509c:	eaffffda 	b	3000500c <_malloc_trim_r+0x5c>
300050a0:	30009170 	andcc	r9, r0, r0, ror r1
300050a4:	30009590 	mulcc	r0, r0, r5
300050a8:	30009578 	andcc	r9, r0, r8, ror r5

300050ac <_free_r>:
300050ac:	e92d40f8 	push	{r3, r4, r5, r6, r7, lr}
300050b0:	e2515000 	subs	r5, r1, #0
300050b4:	e1a04000 	mov	r4, r0
300050b8:	0a000052 	beq	30005208 <_free_r+0x15c>
300050bc:	eb000361 	bl	30005e48 <__malloc_lock>
300050c0:	e2452008 	sub	r2, r5, #8
300050c4:	e5920004 	ldr	r0, [r2, #4]
300050c8:	e59fc240 	ldr	ip, [pc, #576]	; 30005310 <_free_r+0x264>
300050cc:	e3c03001 	bic	r3, r0, #1
300050d0:	e0821003 	add	r1, r2, r3
300050d4:	e59c6008 	ldr	r6, [ip, #8]
300050d8:	e591e004 	ldr	lr, [r1, #4]
300050dc:	e1560001 	cmp	r6, r1
300050e0:	e3cee003 	bic	lr, lr, #3
300050e4:	0a000065 	beq	30005280 <_free_r+0x1d4>
300050e8:	e2100001 	ands	r0, r0, #1
300050ec:	e581e004 	str	lr, [r1, #4]
300050f0:	13a00000 	movne	r0, #0
300050f4:	0a000045 	beq	30005210 <_free_r+0x164>
300050f8:	e081500e 	add	r5, r1, lr
300050fc:	e5955004 	ldr	r5, [r5, #4]
30005100:	e3150001 	tst	r5, #1
30005104:	1a000009 	bne	30005130 <_free_r+0x84>
30005108:	e3500000 	cmp	r0, #0
3000510c:	e083300e 	add	r3, r3, lr
30005110:	e591e008 	ldr	lr, [r1, #8]
30005114:	1a000002 	bne	30005124 <_free_r+0x78>
30005118:	e59f51f4 	ldr	r5, [pc, #500]	; 30005314 <_free_r+0x268>
3000511c:	e15e0005 	cmp	lr, r5
30005120:	0a00006c 	beq	300052d8 <_free_r+0x22c>
30005124:	e591100c 	ldr	r1, [r1, #12]
30005128:	e581e008 	str	lr, [r1, #8]
3000512c:	e58e100c 	str	r1, [lr, #12]
30005130:	e3831001 	orr	r1, r3, #1
30005134:	e3500000 	cmp	r0, #0
30005138:	e5821004 	str	r1, [r2, #4]
3000513c:	e7823003 	str	r3, [r2, r3]
30005140:	1a00002e 	bne	30005200 <_free_r+0x154>
30005144:	e3530c02 	cmp	r3, #512	; 0x200
30005148:	3a00003f 	bcc	3000524c <_free_r+0x1a0>
3000514c:	e1a014a3 	lsr	r1, r3, #9
30005150:	e3510004 	cmp	r1, #4
30005154:	91a00323 	lsrls	r0, r3, #6
30005158:	92800038 	addls	r0, r0, #56	; 0x38
3000515c:	91a0e180 	lslls	lr, r0, #3
30005160:	9a000015 	bls	300051bc <_free_r+0x110>
30005164:	e3510014 	cmp	r1, #20
30005168:	9281005b 	addls	r0, r1, #91	; 0x5b
3000516c:	91a0e180 	lslls	lr, r0, #3
30005170:	9a000011 	bls	300051bc <_free_r+0x110>
30005174:	e3510054 	cmp	r1, #84	; 0x54
30005178:	91a00623 	lsrls	r0, r3, #12
3000517c:	9280006e 	addls	r0, r0, #110	; 0x6e
30005180:	91a0e180 	lslls	lr, r0, #3
30005184:	9a00000c 	bls	300051bc <_free_r+0x110>
30005188:	e3510f55 	cmp	r1, #340	; 0x154
3000518c:	91a007a3 	lsrls	r0, r3, #15
30005190:	92800077 	addls	r0, r0, #119	; 0x77
30005194:	91a0e180 	lslls	lr, r0, #3
30005198:	9a000007 	bls	300051bc <_free_r+0x110>
3000519c:	e3a00e55 	mov	r0, #1360	; 0x550
300051a0:	e2800004 	add	r0, r0, #4
300051a4:	e1510000 	cmp	r1, r0
300051a8:	91a00923 	lsrls	r0, r3, #18
300051ac:	9280007c 	addls	r0, r0, #124	; 0x7c
300051b0:	83a0ee3f 	movhi	lr, #1008	; 0x3f0
300051b4:	83a0007e 	movhi	r0, #126	; 0x7e
300051b8:	91a0e180 	lslls	lr, r0, #3
300051bc:	e08ce00e 	add	lr, ip, lr
300051c0:	e59e1008 	ldr	r1, [lr, #8]
300051c4:	e151000e 	cmp	r1, lr
300051c8:	1a000003 	bne	300051dc <_free_r+0x130>
300051cc:	ea000048 	b	300052f4 <_free_r+0x248>
300051d0:	e5911008 	ldr	r1, [r1, #8]
300051d4:	e15e0001 	cmp	lr, r1
300051d8:	0a000003 	beq	300051ec <_free_r+0x140>
300051dc:	e5910004 	ldr	r0, [r1, #4]
300051e0:	e3c00003 	bic	r0, r0, #3
300051e4:	e1530000 	cmp	r3, r0
300051e8:	3afffff8 	bcc	300051d0 <_free_r+0x124>
300051ec:	e591300c 	ldr	r3, [r1, #12]
300051f0:	e582300c 	str	r3, [r2, #12]
300051f4:	e5821008 	str	r1, [r2, #8]
300051f8:	e581200c 	str	r2, [r1, #12]
300051fc:	e5832008 	str	r2, [r3, #8]
30005200:	e1a00004 	mov	r0, r4
30005204:	eb000310 	bl	30005e4c <__malloc_unlock>
30005208:	e8bd40f8 	pop	{r3, r4, r5, r6, r7, lr}
3000520c:	e12fff1e 	bx	lr
30005210:	e5156008 	ldr	r6, [r5, #-8]
30005214:	e0662002 	rsb	r2, r6, r2
30005218:	e5925008 	ldr	r5, [r2, #8]
3000521c:	e28c7008 	add	r7, ip, #8
30005220:	e1550007 	cmp	r5, r7
30005224:	e0833006 	add	r3, r3, r6
30005228:	1592600c 	ldrne	r6, [r2, #12]
3000522c:	15865008 	strne	r5, [r6, #8]
30005230:	1585600c 	strne	r6, [r5, #12]
30005234:	e081500e 	add	r5, r1, lr
30005238:	e5955004 	ldr	r5, [r5, #4]
3000523c:	03a00001 	moveq	r0, #1
30005240:	e3150001 	tst	r5, #1
30005244:	1affffb9 	bne	30005130 <_free_r+0x84>
30005248:	eaffffae 	b	30005108 <_free_r+0x5c>
3000524c:	e59c1004 	ldr	r1, [ip, #4]
30005250:	e1a031a3 	lsr	r3, r3, #3
30005254:	e1a00143 	asr	r0, r3, #2
30005258:	e3a0e001 	mov	lr, #1
3000525c:	e181001e 	orr	r0, r1, lr, lsl r0
30005260:	e08c3183 	add	r3, ip, r3, lsl #3
30005264:	e5931008 	ldr	r1, [r3, #8]
30005268:	e582300c 	str	r3, [r2, #12]
3000526c:	e5821008 	str	r1, [r2, #8]
30005270:	e58c0004 	str	r0, [ip, #4]
30005274:	e581200c 	str	r2, [r1, #12]
30005278:	e5832008 	str	r2, [r3, #8]
3000527c:	eaffffdf 	b	30005200 <_free_r+0x154>
30005280:	e3100001 	tst	r0, #1
30005284:	e08e3003 	add	r3, lr, r3
30005288:	1a000006 	bne	300052a8 <_free_r+0x1fc>
3000528c:	e5151008 	ldr	r1, [r5, #-8]
30005290:	e0612002 	rsb	r2, r1, r2
30005294:	e2820008 	add	r0, r2, #8
30005298:	e8904001 	ldm	r0, {r0, lr}
3000529c:	e58e0008 	str	r0, [lr, #8]
300052a0:	e580e00c 	str	lr, [r0, #12]
300052a4:	e0833001 	add	r3, r3, r1
300052a8:	e59f1068 	ldr	r1, [pc, #104]	; 30005318 <_free_r+0x26c>
300052ac:	e5911000 	ldr	r1, [r1]
300052b0:	e1530001 	cmp	r3, r1
300052b4:	e3833001 	orr	r3, r3, #1
300052b8:	e58c2008 	str	r2, [ip, #8]
300052bc:	e5823004 	str	r3, [r2, #4]
300052c0:	3affffce 	bcc	30005200 <_free_r+0x154>
300052c4:	e59f3050 	ldr	r3, [pc, #80]	; 3000531c <_free_r+0x270>
300052c8:	e1a00004 	mov	r0, r4
300052cc:	e5931000 	ldr	r1, [r3]
300052d0:	ebffff36 	bl	30004fb0 <_malloc_trim_r>
300052d4:	eaffffc9 	b	30005200 <_free_r+0x154>
300052d8:	e3831001 	orr	r1, r3, #1
300052dc:	e58e200c 	str	r2, [lr, #12]
300052e0:	e58e2008 	str	r2, [lr, #8]
300052e4:	e7823003 	str	r3, [r2, r3]
300052e8:	e9824002 	stmib	r2, {r1, lr}
300052ec:	e582e00c 	str	lr, [r2, #12]
300052f0:	eaffffc2 	b	30005200 <_free_r+0x154>
300052f4:	e59ce004 	ldr	lr, [ip, #4]
300052f8:	e1a00140 	asr	r0, r0, #2
300052fc:	e3a03001 	mov	r3, #1
30005300:	e18e3013 	orr	r3, lr, r3, lsl r0
30005304:	e58c3004 	str	r3, [ip, #4]
30005308:	e1a03001 	mov	r3, r1
3000530c:	eaffffb7 	b	300051f0 <_free_r+0x144>
30005310:	30009170 	andcc	r9, r0, r0, ror r1
30005314:	30009178 	andcc	r9, r0, r8, ror r1
30005318:	3000957c 	andcc	r9, r0, ip, ror r5
3000531c:	3000958c 	andcc	r9, r0, ip, lsl #11

30005320 <_malloc_r>:
30005320:	e92d4ff0 	push	{r4, r5, r6, r7, r8, r9, sl, fp, lr}
30005324:	e281400b 	add	r4, r1, #11
30005328:	e3540016 	cmp	r4, #22
3000532c:	83c44007 	bichi	r4, r4, #7
30005330:	93a03000 	movls	r3, #0
30005334:	81a03fa4 	lsrhi	r3, r4, #31
30005338:	93a04010 	movls	r4, #16
3000533c:	e1540001 	cmp	r4, r1
30005340:	21a01003 	movcs	r1, r3
30005344:	33831001 	orrcc	r1, r3, #1
30005348:	e3510000 	cmp	r1, #0
3000534c:	13a0300c 	movne	r3, #12
30005350:	e24dd00c 	sub	sp, sp, #12
30005354:	e1a05000 	mov	r5, r0
30005358:	15803000 	strne	r3, [r0]
3000535c:	13a08000 	movne	r8, #0
30005360:	1a000015 	bne	300053bc <_malloc_r+0x9c>
30005364:	eb0002b7 	bl	30005e48 <__malloc_lock>
30005368:	e3540f7e 	cmp	r4, #504	; 0x1f8
3000536c:	2a000016 	bcs	300053cc <_malloc_r+0xac>
30005370:	e59f66bc 	ldr	r6, [pc, #1724]	; 30005a34 <_malloc_r+0x714>
30005374:	e1a0a1a4 	lsr	sl, r4, #3
30005378:	e086318a 	add	r3, r6, sl, lsl #3
3000537c:	e593800c 	ldr	r8, [r3, #12]
30005380:	e1580003 	cmp	r8, r3
30005384:	0a000155 	beq	300058e0 <_malloc_r+0x5c0>
30005388:	e5981004 	ldr	r1, [r8, #4]
3000538c:	e3c11003 	bic	r1, r1, #3
30005390:	e0881001 	add	r1, r8, r1
30005394:	e5910004 	ldr	r0, [r1, #4]
30005398:	e598200c 	ldr	r2, [r8, #12]
3000539c:	e5983008 	ldr	r3, [r8, #8]
300053a0:	e3800001 	orr	r0, r0, #1
300053a4:	e5810004 	str	r0, [r1, #4]
300053a8:	e5823008 	str	r3, [r2, #8]
300053ac:	e583200c 	str	r2, [r3, #12]
300053b0:	e1a00005 	mov	r0, r5
300053b4:	eb0002a4 	bl	30005e4c <__malloc_unlock>
300053b8:	e2888008 	add	r8, r8, #8
300053bc:	e1a00008 	mov	r0, r8
300053c0:	e28dd00c 	add	sp, sp, #12
300053c4:	e8bd4ff0 	pop	{r4, r5, r6, r7, r8, r9, sl, fp, lr}
300053c8:	e12fff1e 	bx	lr
300053cc:	e1b0a4a4 	lsrs	sl, r4, #9
300053d0:	01a0a1a4 	lsreq	sl, r4, #3
300053d4:	01a0118a 	lsleq	r1, sl, #3
300053d8:	1a000060 	bne	30005560 <_malloc_r+0x240>
300053dc:	e59f6650 	ldr	r6, [pc, #1616]	; 30005a34 <_malloc_r+0x714>
300053e0:	e0861001 	add	r1, r6, r1
300053e4:	e591800c 	ldr	r8, [r1, #12]
300053e8:	e1510008 	cmp	r1, r8
300053ec:	1a000005 	bne	30005408 <_malloc_r+0xe8>
300053f0:	ea00000a 	b	30005420 <_malloc_r+0x100>
300053f4:	e3530000 	cmp	r3, #0
300053f8:	aa000110 	bge	30005840 <_malloc_r+0x520>
300053fc:	e598800c 	ldr	r8, [r8, #12]
30005400:	e1510008 	cmp	r1, r8
30005404:	0a000005 	beq	30005420 <_malloc_r+0x100>
30005408:	e5982004 	ldr	r2, [r8, #4]
3000540c:	e3c22003 	bic	r2, r2, #3
30005410:	e0643002 	rsb	r3, r4, r2
30005414:	e353000f 	cmp	r3, #15
30005418:	dafffff5 	ble	300053f4 <_malloc_r+0xd4>
3000541c:	e24aa001 	sub	sl, sl, #1
30005420:	e28aa001 	add	sl, sl, #1
30005424:	e59f7608 	ldr	r7, [pc, #1544]	; 30005a34 <_malloc_r+0x714>
30005428:	e2873008 	add	r3, r7, #8
3000542c:	e5938008 	ldr	r8, [r3, #8]
30005430:	e1530008 	cmp	r3, r8
30005434:	0a00009b 	beq	300056a8 <_malloc_r+0x388>
30005438:	e5981004 	ldr	r1, [r8, #4]
3000543c:	e3c11003 	bic	r1, r1, #3
30005440:	e0642001 	rsb	r2, r4, r1
30005444:	e352000f 	cmp	r2, #15
30005448:	ca000112 	bgt	30005898 <_malloc_r+0x578>
3000544c:	e3520000 	cmp	r2, #0
30005450:	e583300c 	str	r3, [r3, #12]
30005454:	e5833008 	str	r3, [r3, #8]
30005458:	aa00005c 	bge	300055d0 <_malloc_r+0x2b0>
3000545c:	e3510c02 	cmp	r1, #512	; 0x200
30005460:	2a000062 	bcs	300055f0 <_malloc_r+0x2d0>
30005464:	e5970004 	ldr	r0, [r7, #4]
30005468:	e1a011a1 	lsr	r1, r1, #3
3000546c:	e1a02141 	asr	r2, r1, #2
30005470:	e3a0c001 	mov	ip, #1
30005474:	e0871181 	add	r1, r7, r1, lsl #3
30005478:	e180221c 	orr	r2, r0, ip, lsl r2
3000547c:	e5910008 	ldr	r0, [r1, #8]
30005480:	e588100c 	str	r1, [r8, #12]
30005484:	e5880008 	str	r0, [r8, #8]
30005488:	e3a0c001 	mov	ip, #1
3000548c:	e5818008 	str	r8, [r1, #8]
30005490:	e1a0114a 	asr	r1, sl, #2
30005494:	e1a0c11c 	lsl	ip, ip, r1
30005498:	e15c0002 	cmp	ip, r2
3000549c:	e580800c 	str	r8, [r0, #12]
300054a0:	e5872004 	str	r2, [r7, #4]
300054a4:	8a000085 	bhi	300056c0 <_malloc_r+0x3a0>
300054a8:	e112000c 	tst	r2, ip
300054ac:	1a000008 	bne	300054d4 <_malloc_r+0x1b4>
300054b0:	e1a0c08c 	lsl	ip, ip, #1
300054b4:	e3caa003 	bic	sl, sl, #3
300054b8:	e112000c 	tst	r2, ip
300054bc:	e28aa004 	add	sl, sl, #4
300054c0:	1a000003 	bne	300054d4 <_malloc_r+0x1b4>
300054c4:	e1a0c08c 	lsl	ip, ip, #1
300054c8:	e11c0002 	tst	ip, r2
300054cc:	e28aa004 	add	sl, sl, #4
300054d0:	0afffffb 	beq	300054c4 <_malloc_r+0x1a4>
300054d4:	e087918a 	add	r9, r7, sl, lsl #3
300054d8:	e1a0e009 	mov	lr, r9
300054dc:	e1a0800a 	mov	r8, sl
300054e0:	e59e200c 	ldr	r2, [lr, #12]
300054e4:	e15e0002 	cmp	lr, r2
300054e8:	1a000005 	bne	30005504 <_malloc_r+0x1e4>
300054ec:	ea0000f6 	b	300058cc <_malloc_r+0x5ac>
300054f0:	e3510000 	cmp	r1, #0
300054f4:	aa0000ff 	bge	300058f8 <_malloc_r+0x5d8>
300054f8:	e592200c 	ldr	r2, [r2, #12]
300054fc:	e15e0002 	cmp	lr, r2
30005500:	0a0000f1 	beq	300058cc <_malloc_r+0x5ac>
30005504:	e5920004 	ldr	r0, [r2, #4]
30005508:	e3c00003 	bic	r0, r0, #3
3000550c:	e0641000 	rsb	r1, r4, r0
30005510:	e351000f 	cmp	r1, #15
30005514:	dafffff5 	ble	300054f0 <_malloc_r+0x1d0>
30005518:	e1a08002 	mov	r8, r2
3000551c:	e5b80008 	ldr	r0, [r8, #8]!
30005520:	e592c00c 	ldr	ip, [r2, #12]
30005524:	e3846001 	orr	r6, r4, #1
30005528:	e381e001 	orr	lr, r1, #1
3000552c:	e0824004 	add	r4, r2, r4
30005530:	e58c0008 	str	r0, [ip, #8]
30005534:	e580c00c 	str	ip, [r0, #12]
30005538:	e5826004 	str	r6, [r2, #4]
3000553c:	e5834008 	str	r4, [r3, #8]
30005540:	e583400c 	str	r4, [r3, #12]
30005544:	e7841001 	str	r1, [r4, r1]
30005548:	e584e004 	str	lr, [r4, #4]
3000554c:	e5843008 	str	r3, [r4, #8]
30005550:	e1a00005 	mov	r0, r5
30005554:	e584300c 	str	r3, [r4, #12]
30005558:	eb00023b 	bl	30005e4c <__malloc_unlock>
3000555c:	eaffff96 	b	300053bc <_malloc_r+0x9c>
30005560:	e35a0004 	cmp	sl, #4
30005564:	91a0a324 	lsrls	sl, r4, #6
30005568:	928aa038 	addls	sl, sl, #56	; 0x38
3000556c:	91a0118a 	lslls	r1, sl, #3
30005570:	9affff99 	bls	300053dc <_malloc_r+0xbc>
30005574:	e35a0014 	cmp	sl, #20
30005578:	928aa05b 	addls	sl, sl, #91	; 0x5b
3000557c:	91a0118a 	lslls	r1, sl, #3
30005580:	9affff95 	bls	300053dc <_malloc_r+0xbc>
30005584:	e35a0054 	cmp	sl, #84	; 0x54
30005588:	91a0a624 	lsrls	sl, r4, #12
3000558c:	928aa06e 	addls	sl, sl, #110	; 0x6e
30005590:	91a0118a 	lslls	r1, sl, #3
30005594:	9affff90 	bls	300053dc <_malloc_r+0xbc>
30005598:	e35a0f55 	cmp	sl, #340	; 0x154
3000559c:	91a0a7a4 	lsrls	sl, r4, #15
300055a0:	928aa077 	addls	sl, sl, #119	; 0x77
300055a4:	91a0118a 	lslls	r1, sl, #3
300055a8:	9affff8b 	bls	300053dc <_malloc_r+0xbc>
300055ac:	e3a03e55 	mov	r3, #1360	; 0x550
300055b0:	e2833004 	add	r3, r3, #4
300055b4:	e15a0003 	cmp	sl, r3
300055b8:	91a0a924 	lsrls	sl, r4, #18
300055bc:	928aa07c 	addls	sl, sl, #124	; 0x7c
300055c0:	83a01e3f 	movhi	r1, #1008	; 0x3f0
300055c4:	83a0a07e 	movhi	sl, #126	; 0x7e
300055c8:	91a0118a 	lslls	r1, sl, #3
300055cc:	eaffff82 	b	300053dc <_malloc_r+0xbc>
300055d0:	e0881001 	add	r1, r8, r1
300055d4:	e5913004 	ldr	r3, [r1, #4]
300055d8:	e3833001 	orr	r3, r3, #1
300055dc:	e5813004 	str	r3, [r1, #4]
300055e0:	e1a00005 	mov	r0, r5
300055e4:	eb000218 	bl	30005e4c <__malloc_unlock>
300055e8:	e2888008 	add	r8, r8, #8
300055ec:	eaffff72 	b	300053bc <_malloc_r+0x9c>
300055f0:	e1a024a1 	lsr	r2, r1, #9
300055f4:	e3520004 	cmp	r2, #4
300055f8:	91a00321 	lsrls	r0, r1, #6
300055fc:	92800038 	addls	r0, r0, #56	; 0x38
30005600:	91a0c180 	lslls	ip, r0, #3
30005604:	9a000015 	bls	30005660 <_malloc_r+0x340>
30005608:	e3520014 	cmp	r2, #20
3000560c:	9282005b 	addls	r0, r2, #91	; 0x5b
30005610:	91a0c180 	lslls	ip, r0, #3
30005614:	9a000011 	bls	30005660 <_malloc_r+0x340>
30005618:	e3520054 	cmp	r2, #84	; 0x54
3000561c:	91a00621 	lsrls	r0, r1, #12
30005620:	9280006e 	addls	r0, r0, #110	; 0x6e
30005624:	91a0c180 	lslls	ip, r0, #3
30005628:	9a00000c 	bls	30005660 <_malloc_r+0x340>
3000562c:	e3520f55 	cmp	r2, #340	; 0x154
30005630:	91a007a1 	lsrls	r0, r1, #15
30005634:	92800077 	addls	r0, r0, #119	; 0x77
30005638:	91a0c180 	lslls	ip, r0, #3
3000563c:	9a000007 	bls	30005660 <_malloc_r+0x340>
30005640:	e3a00e55 	mov	r0, #1360	; 0x550
30005644:	e2800004 	add	r0, r0, #4
30005648:	e1520000 	cmp	r2, r0
3000564c:	91a00921 	lsrls	r0, r1, #18
30005650:	9280007c 	addls	r0, r0, #124	; 0x7c
30005654:	83a0ce3f 	movhi	ip, #1008	; 0x3f0
30005658:	83a0007e 	movhi	r0, #126	; 0x7e
3000565c:	91a0c180 	lslls	ip, r0, #3
30005660:	e086c00c 	add	ip, r6, ip
30005664:	e59c2008 	ldr	r2, [ip, #8]
30005668:	e152000c 	cmp	r2, ip
3000566c:	e59f73c0 	ldr	r7, [pc, #960]	; 30005a34 <_malloc_r+0x714>
30005670:	1a000003 	bne	30005684 <_malloc_r+0x364>
30005674:	ea0000da 	b	300059e4 <_malloc_r+0x6c4>
30005678:	e5922008 	ldr	r2, [r2, #8]
3000567c:	e15c0002 	cmp	ip, r2
30005680:	0a000003 	beq	30005694 <_malloc_r+0x374>
30005684:	e5920004 	ldr	r0, [r2, #4]
30005688:	e3c00003 	bic	r0, r0, #3
3000568c:	e1510000 	cmp	r1, r0
30005690:	3afffff8 	bcc	30005678 <_malloc_r+0x358>
30005694:	e592100c 	ldr	r1, [r2, #12]
30005698:	e588100c 	str	r1, [r8, #12]
3000569c:	e5882008 	str	r2, [r8, #8]
300056a0:	e582800c 	str	r8, [r2, #12]
300056a4:	e5818008 	str	r8, [r1, #8]
300056a8:	e1a0114a 	asr	r1, sl, #2
300056ac:	e3a0c001 	mov	ip, #1
300056b0:	e1a0c11c 	lsl	ip, ip, r1
300056b4:	e5972004 	ldr	r2, [r7, #4]
300056b8:	e15c0002 	cmp	ip, r2
300056bc:	9affff79 	bls	300054a8 <_malloc_r+0x188>
300056c0:	e5978008 	ldr	r8, [r7, #8]
300056c4:	e5989004 	ldr	r9, [r8, #4]
300056c8:	e3c99003 	bic	r9, r9, #3
300056cc:	e1540009 	cmp	r4, r9
300056d0:	93a03000 	movls	r3, #0
300056d4:	83a03001 	movhi	r3, #1
300056d8:	e0642009 	rsb	r2, r4, r9
300056dc:	e352000f 	cmp	r2, #15
300056e0:	d3833001 	orrle	r3, r3, #1
300056e4:	e3530000 	cmp	r3, #0
300056e8:	0a000060 	beq	30005870 <_malloc_r+0x550>
300056ec:	e59fb344 	ldr	fp, [pc, #836]	; 30005a38 <_malloc_r+0x718>
300056f0:	e59b3000 	ldr	r3, [fp]
300056f4:	e5962408 	ldr	r2, [r6, #1032]	; 0x408
300056f8:	e2833010 	add	r3, r3, #16
300056fc:	e0833004 	add	r3, r3, r4
30005700:	e3720001 	cmn	r2, #1
30005704:	12833eff 	addne	r3, r3, #4080	; 0xff0
30005708:	1283300f 	addne	r3, r3, #15
3000570c:	13c33eff 	bicne	r3, r3, #4080	; 0xff0
30005710:	13c3300f 	bicne	r3, r3, #15
30005714:	e1a01003 	mov	r1, r3
30005718:	e1a00005 	mov	r0, r5
3000571c:	e58d3004 	str	r3, [sp, #4]
30005720:	eb000685 	bl	3000713c <_sbrk_r>
30005724:	e3700001 	cmn	r0, #1
30005728:	e1a0a000 	mov	sl, r0
3000572c:	e59d3004 	ldr	r3, [sp, #4]
30005730:	0a00008f 	beq	30005974 <_malloc_r+0x654>
30005734:	e0881009 	add	r1, r8, r9
30005738:	e1510000 	cmp	r1, r0
3000573c:	8a00008a 	bhi	3000596c <_malloc_r+0x64c>
30005740:	e59b2004 	ldr	r2, [fp, #4]
30005744:	e151000a 	cmp	r1, sl
30005748:	e0832002 	add	r2, r3, r2
3000574c:	e58b2004 	str	r2, [fp, #4]
30005750:	0a0000aa 	beq	30005a00 <_malloc_r+0x6e0>
30005754:	e5960408 	ldr	r0, [r6, #1032]	; 0x408
30005758:	e3700001 	cmn	r0, #1
3000575c:	1082200a 	addne	r2, r2, sl
30005760:	059f22cc 	ldreq	r2, [pc, #716]	; 30005a34 <_malloc_r+0x714>
30005764:	10611002 	rsbne	r1, r1, r2
30005768:	0582a408 	streq	sl, [r2, #1032]	; 0x408
3000576c:	158b1004 	strne	r1, [fp, #4]
30005770:	e21a6007 	ands	r6, sl, #7
30005774:	12666008 	rsbne	r6, r6, #8
30005778:	108aa006 	addne	sl, sl, r6
3000577c:	e08a3003 	add	r3, sl, r3
30005780:	e1a03a03 	lsl	r3, r3, #20
30005784:	e1a03a23 	lsr	r3, r3, #20
30005788:	03a06a01 	moveq	r6, #4096	; 0x1000
3000578c:	12866a01 	addne	r6, r6, #4096	; 0x1000
30005790:	e0636006 	rsb	r6, r3, r6
30005794:	e1a01006 	mov	r1, r6
30005798:	e1a00005 	mov	r0, r5
3000579c:	eb000666 	bl	3000713c <_sbrk_r>
300057a0:	e3700001 	cmn	r0, #1
300057a4:	106a3000 	rsbne	r3, sl, r0
300057a8:	e59b2004 	ldr	r2, [fp, #4]
300057ac:	10833006 	addne	r3, r3, r6
300057b0:	03a06000 	moveq	r6, #0
300057b4:	03a03001 	moveq	r3, #1
300057b8:	13833001 	orrne	r3, r3, #1
300057bc:	e0862002 	add	r2, r6, r2
300057c0:	e1580007 	cmp	r8, r7
300057c4:	e58b2004 	str	r2, [fp, #4]
300057c8:	e587a008 	str	sl, [r7, #8]
300057cc:	e58a3004 	str	r3, [sl, #4]
300057d0:	0a000010 	beq	30005818 <_malloc_r+0x4f8>
300057d4:	e359000f 	cmp	r9, #15
300057d8:	93a03001 	movls	r3, #1
300057dc:	958a3004 	strls	r3, [sl, #4]
300057e0:	91a0800a 	movls	r8, sl
300057e4:	9a000063 	bls	30005978 <_malloc_r+0x658>
300057e8:	e249300c 	sub	r3, r9, #12
300057ec:	e3c33007 	bic	r3, r3, #7
300057f0:	e0881003 	add	r1, r8, r3
300057f4:	e3a00005 	mov	r0, #5
300057f8:	e5810008 	str	r0, [r1, #8]
300057fc:	e5810004 	str	r0, [r1, #4]
30005800:	e5981004 	ldr	r1, [r8, #4]
30005804:	e2011001 	and	r1, r1, #1
30005808:	e353000f 	cmp	r3, #15
3000580c:	e1833001 	orr	r3, r3, r1
30005810:	e5883004 	str	r3, [r8, #4]
30005814:	8a000065 	bhi	300059b0 <_malloc_r+0x690>
30005818:	e1a0800a 	mov	r8, sl
3000581c:	e59b302c 	ldr	r3, [fp, #44]	; 0x2c
30005820:	e1520003 	cmp	r2, r3
30005824:	859f320c 	ldrhi	r3, [pc, #524]	; 30005a38 <_malloc_r+0x718>
30005828:	8583202c 	strhi	r2, [r3, #44]	; 0x2c
3000582c:	e59b3030 	ldr	r3, [fp, #48]	; 0x30
30005830:	e1520003 	cmp	r2, r3
30005834:	859f31fc 	ldrhi	r3, [pc, #508]	; 30005a38 <_malloc_r+0x718>
30005838:	85832030 	strhi	r2, [r3, #48]	; 0x30
3000583c:	ea00004d 	b	30005978 <_malloc_r+0x658>
30005840:	e0882002 	add	r2, r8, r2
30005844:	e5920004 	ldr	r0, [r2, #4]
30005848:	e598100c 	ldr	r1, [r8, #12]
3000584c:	e5983008 	ldr	r3, [r8, #8]
30005850:	e3800001 	orr	r0, r0, #1
30005854:	e5820004 	str	r0, [r2, #4]
30005858:	e5813008 	str	r3, [r1, #8]
3000585c:	e583100c 	str	r1, [r3, #12]
30005860:	e1a00005 	mov	r0, r5
30005864:	eb000178 	bl	30005e4c <__malloc_unlock>
30005868:	e2888008 	add	r8, r8, #8
3000586c:	eafffed2 	b	300053bc <_malloc_r+0x9c>
30005870:	e0883004 	add	r3, r8, r4
30005874:	e3822001 	orr	r2, r2, #1
30005878:	e3844001 	orr	r4, r4, #1
3000587c:	e5884004 	str	r4, [r8, #4]
30005880:	e1a00005 	mov	r0, r5
30005884:	e5832004 	str	r2, [r3, #4]
30005888:	e5873008 	str	r3, [r7, #8]
3000588c:	e2888008 	add	r8, r8, #8
30005890:	eb00016d 	bl	30005e4c <__malloc_unlock>
30005894:	eafffec8 	b	300053bc <_malloc_r+0x9c>
30005898:	e3840001 	orr	r0, r4, #1
3000589c:	e3821001 	orr	r1, r2, #1
300058a0:	e0884004 	add	r4, r8, r4
300058a4:	e5880004 	str	r0, [r8, #4]
300058a8:	e583400c 	str	r4, [r3, #12]
300058ac:	e5834008 	str	r4, [r3, #8]
300058b0:	e7842002 	str	r2, [r4, r2]
300058b4:	e984000a 	stmib	r4, {r1, r3}
300058b8:	e584300c 	str	r3, [r4, #12]
300058bc:	e1a00005 	mov	r0, r5
300058c0:	eb000161 	bl	30005e4c <__malloc_unlock>
300058c4:	e2888008 	add	r8, r8, #8
300058c8:	eafffebb 	b	300053bc <_malloc_r+0x9c>
300058cc:	e2888001 	add	r8, r8, #1
300058d0:	e3180003 	tst	r8, #3
300058d4:	0a000014 	beq	3000592c <_malloc_r+0x60c>
300058d8:	e282e008 	add	lr, r2, #8
300058dc:	eafffeff 	b	300054e0 <_malloc_r+0x1c0>
300058e0:	e2883008 	add	r3, r8, #8
300058e4:	e593800c 	ldr	r8, [r3, #12]
300058e8:	e1530008 	cmp	r3, r8
300058ec:	028aa002 	addeq	sl, sl, #2
300058f0:	0afffecb 	beq	30005424 <_malloc_r+0x104>
300058f4:	eafffea3 	b	30005388 <_malloc_r+0x68>
300058f8:	e0820000 	add	r0, r2, r0
300058fc:	e1a08002 	mov	r8, r2
30005900:	e5901004 	ldr	r1, [r0, #4]
30005904:	e592200c 	ldr	r2, [r2, #12]
30005908:	e5b83008 	ldr	r3, [r8, #8]!
3000590c:	e3811001 	orr	r1, r1, #1
30005910:	e5801004 	str	r1, [r0, #4]
30005914:	e5823008 	str	r3, [r2, #8]
30005918:	e583200c 	str	r2, [r3, #12]
3000591c:	e1a00005 	mov	r0, r5
30005920:	eb000149 	bl	30005e4c <__malloc_unlock>
30005924:	eafffea4 	b	300053bc <_malloc_r+0x9c>
30005928:	e24aa001 	sub	sl, sl, #1
3000592c:	e31a0003 	tst	sl, #3
30005930:	e1a02009 	mov	r2, r9
30005934:	0a00003a 	beq	30005a24 <_malloc_r+0x704>
30005938:	e4129008 	ldr	r9, [r2], #-8
3000593c:	e1590002 	cmp	r9, r2
30005940:	0afffff8 	beq	30005928 <_malloc_r+0x608>
30005944:	e5972004 	ldr	r2, [r7, #4]
30005948:	e1a0c08c 	lsl	ip, ip, #1
3000594c:	e15c0002 	cmp	ip, r2
30005950:	8affff5a 	bhi	300056c0 <_malloc_r+0x3a0>
30005954:	e35c0000 	cmp	ip, #0
30005958:	0affff58 	beq	300056c0 <_malloc_r+0x3a0>
3000595c:	e11c0002 	tst	ip, r2
30005960:	0a000019 	beq	300059cc <_malloc_r+0x6ac>
30005964:	e1a0a008 	mov	sl, r8
30005968:	eafffed9 	b	300054d4 <_malloc_r+0x1b4>
3000596c:	e1580007 	cmp	r8, r7
30005970:	0affff72 	beq	30005740 <_malloc_r+0x420>
30005974:	e5978008 	ldr	r8, [r7, #8]
30005978:	e5982004 	ldr	r2, [r8, #4]
3000597c:	e3c22003 	bic	r2, r2, #3
30005980:	e1540002 	cmp	r4, r2
30005984:	93a03000 	movls	r3, #0
30005988:	83a03001 	movhi	r3, #1
3000598c:	e0642002 	rsb	r2, r4, r2
30005990:	e352000f 	cmp	r2, #15
30005994:	d3833001 	orrle	r3, r3, #1
30005998:	e3530000 	cmp	r3, #0
3000599c:	0affffb3 	beq	30005870 <_malloc_r+0x550>
300059a0:	e1a00005 	mov	r0, r5
300059a4:	eb000128 	bl	30005e4c <__malloc_unlock>
300059a8:	e3a08000 	mov	r8, #0
300059ac:	eafffe82 	b	300053bc <_malloc_r+0x9c>
300059b0:	e2881008 	add	r1, r8, #8
300059b4:	e1a00005 	mov	r0, r5
300059b8:	ebfffdbb 	bl	300050ac <_free_r>
300059bc:	e59f3074 	ldr	r3, [pc, #116]	; 30005a38 <_malloc_r+0x718>
300059c0:	e5978008 	ldr	r8, [r7, #8]
300059c4:	e5932004 	ldr	r2, [r3, #4]
300059c8:	eaffff93 	b	3000581c <_malloc_r+0x4fc>
300059cc:	e1a0c08c 	lsl	ip, ip, #1
300059d0:	e11c0002 	tst	ip, r2
300059d4:	e2888004 	add	r8, r8, #4
300059d8:	0afffffb 	beq	300059cc <_malloc_r+0x6ac>
300059dc:	e1a0a008 	mov	sl, r8
300059e0:	eafffebb 	b	300054d4 <_malloc_r+0x1b4>
300059e4:	e597c004 	ldr	ip, [r7, #4]
300059e8:	e1a00140 	asr	r0, r0, #2
300059ec:	e3a01001 	mov	r1, #1
300059f0:	e18c1011 	orr	r1, ip, r1, lsl r0
300059f4:	e5871004 	str	r1, [r7, #4]
300059f8:	e1a01002 	mov	r1, r2
300059fc:	eaffff25 	b	30005698 <_malloc_r+0x378>
30005a00:	e1a00a01 	lsl	r0, r1, #20
30005a04:	e1a00a20 	lsr	r0, r0, #20
30005a08:	e3500000 	cmp	r0, #0
30005a0c:	1affff50 	bne	30005754 <_malloc_r+0x434>
30005a10:	e0833009 	add	r3, r3, r9
30005a14:	e5978008 	ldr	r8, [r7, #8]
30005a18:	e3833001 	orr	r3, r3, #1
30005a1c:	e5883004 	str	r3, [r8, #4]
30005a20:	eaffff7d 	b	3000581c <_malloc_r+0x4fc>
30005a24:	e5972004 	ldr	r2, [r7, #4]
30005a28:	e1c2200c 	bic	r2, r2, ip
30005a2c:	e5872004 	str	r2, [r7, #4]
30005a30:	eaffffc4 	b	30005948 <_malloc_r+0x628>
30005a34:	30009170 	andcc	r9, r0, r0, ror r1
30005a38:	3000958c 	andcc	r9, r0, ip, lsl #11

30005a3c <memchr>:
30005a3c:	e3100003 	tst	r0, #3
30005a40:	e52d4004 	push	{r4}		; (str r4, [sp, #-4]!)
30005a44:	e20110ff 	and	r1, r1, #255	; 0xff
30005a48:	1a000007 	bne	30005a6c <memchr+0x30>
30005a4c:	ea00000b 	b	30005a80 <memchr+0x44>
30005a50:	e5d03000 	ldrb	r3, [r0]
30005a54:	e1530001 	cmp	r3, r1
30005a58:	0a000006 	beq	30005a78 <memchr+0x3c>
30005a5c:	e2800001 	add	r0, r0, #1
30005a60:	e3100003 	tst	r0, #3
30005a64:	e2422001 	sub	r2, r2, #1
30005a68:	0a000004 	beq	30005a80 <memchr+0x44>
30005a6c:	e3520000 	cmp	r2, #0
30005a70:	1afffff6 	bne	30005a50 <memchr+0x14>
30005a74:	e3a00000 	mov	r0, #0
30005a78:	e49d4004 	pop	{r4}		; (ldr r4, [sp], #4)
30005a7c:	e12fff1e 	bx	lr
30005a80:	e3520003 	cmp	r2, #3
30005a84:	8a00000d 	bhi	30005ac0 <memchr+0x84>
30005a88:	e3520000 	cmp	r2, #0
30005a8c:	0afffff8 	beq	30005a74 <memchr+0x38>
30005a90:	e5d03000 	ldrb	r3, [r0]
30005a94:	e1530001 	cmp	r3, r1
30005a98:	12422001 	subne	r2, r2, #1
30005a9c:	1a000004 	bne	30005ab4 <memchr+0x78>
30005aa0:	eafffff4 	b	30005a78 <memchr+0x3c>
30005aa4:	e5f03001 	ldrb	r3, [r0, #1]!
30005aa8:	e1530001 	cmp	r3, r1
30005aac:	e2422001 	sub	r2, r2, #1
30005ab0:	0afffff0 	beq	30005a78 <memchr+0x3c>
30005ab4:	e3520000 	cmp	r2, #0
30005ab8:	1afffff9 	bne	30005aa4 <memchr+0x68>
30005abc:	eaffffec 	b	30005a74 <memchr+0x38>
30005ac0:	e1814401 	orr	r4, r1, r1, lsl #8
30005ac4:	e1844804 	orr	r4, r4, r4, lsl #16
30005ac8:	e590c000 	ldr	ip, [r0]
30005acc:	e024c00c 	eor	ip, r4, ip
30005ad0:	e28c34ff 	add	r3, ip, #-16777216	; 0xff000000
30005ad4:	e2433801 	sub	r3, r3, #65536	; 0x10000
30005ad8:	e2433c01 	sub	r3, r3, #256	; 0x100
30005adc:	e2433001 	sub	r3, r3, #1
30005ae0:	e1c3300c 	bic	r3, r3, ip
30005ae4:	e3c3347f 	bic	r3, r3, #2130706432	; 0x7f000000
30005ae8:	e3c3387f 	bic	r3, r3, #8323072	; 0x7f0000
30005aec:	e3c33c7f 	bic	r3, r3, #32512	; 0x7f00
30005af0:	e3c3307f 	bic	r3, r3, #127	; 0x7f
30005af4:	e3530000 	cmp	r3, #0
30005af8:	1affffe2 	bne	30005a88 <memchr+0x4c>
30005afc:	e2422004 	sub	r2, r2, #4
30005b00:	e3520003 	cmp	r2, #3
30005b04:	e2800004 	add	r0, r0, #4
30005b08:	8affffee 	bhi	30005ac8 <memchr+0x8c>
30005b0c:	eaffffdd 	b	30005a88 <memchr+0x4c>

30005b10 <memcpy>:
30005b10:	e3520003 	cmp	r2, #3
30005b14:	e92d07f0 	push	{r4, r5, r6, r7, r8, r9, sl}
30005b18:	8a000009 	bhi	30005b44 <memcpy+0x34>
30005b1c:	e3520000 	cmp	r2, #0
30005b20:	0a000005 	beq	30005b3c <memcpy+0x2c>
30005b24:	e3a03000 	mov	r3, #0
30005b28:	e7d1c003 	ldrb	ip, [r1, r3]
30005b2c:	e7c0c003 	strb	ip, [r0, r3]
30005b30:	e2833001 	add	r3, r3, #1
30005b34:	e1530002 	cmp	r3, r2
30005b38:	1afffffa 	bne	30005b28 <memcpy+0x18>
30005b3c:	e8bd07f0 	pop	{r4, r5, r6, r7, r8, r9, sl}
30005b40:	e12fff1e 	bx	lr
30005b44:	e0802002 	add	r2, r0, r2
30005b48:	e1a03001 	mov	r3, r1
30005b4c:	e1a0c000 	mov	ip, r0
30005b50:	ea000001 	b	30005b5c <memcpy+0x4c>
30005b54:	e5531001 	ldrb	r1, [r3, #-1]
30005b58:	e54c1001 	strb	r1, [ip, #-1]
30005b5c:	e20c5003 	and	r5, ip, #3
30005b60:	e3550000 	cmp	r5, #0
30005b64:	e1a0100c 	mov	r1, ip
30005b68:	e1a06003 	mov	r6, r3
30005b6c:	e28cc001 	add	ip, ip, #1
30005b70:	e2833001 	add	r3, r3, #1
30005b74:	1afffff6 	bne	30005b54 <memcpy+0x44>
30005b78:	e2164003 	ands	r4, r6, #3
30005b7c:	e1a03006 	mov	r3, r6
30005b80:	0061c002 	rsbeq	ip, r1, r2
30005b84:	0a00003d 	beq	30005c80 <memcpy+0x170>
30005b88:	e2643000 	rsb	r3, r4, #0
30005b8c:	e264a004 	rsb	sl, r4, #4
30005b90:	e1a0c006 	mov	ip, r6
30005b94:	e7bc8003 	ldr	r8, [ip, r3]!
30005b98:	e1a0a18a 	lsl	sl, sl, #3
30005b9c:	e1a03005 	mov	r3, r5
30005ba0:	e1a09184 	lsl	r9, r4, #3
30005ba4:	e0615002 	rsb	r5, r1, r2
30005ba8:	ea000006 	b	30005bc8 <memcpy+0xb8>
30005bac:	e5bc4004 	ldr	r4, [ip, #4]!
30005bb0:	e1a07a14 	lsl	r7, r4, sl
30005bb4:	e1878938 	orr	r8, r7, r8, lsr r9
30005bb8:	e2455004 	sub	r5, r5, #4
30005bbc:	e7818003 	str	r8, [r1, r3]
30005bc0:	e2833004 	add	r3, r3, #4
30005bc4:	e1a08004 	mov	r8, r4
30005bc8:	e3550003 	cmp	r5, #3
30005bcc:	e0867003 	add	r7, r6, r3
30005bd0:	e0834001 	add	r4, r3, r1
30005bd4:	cafffff4 	bgt	30005bac <memcpy+0x9c>
30005bd8:	e3a03000 	mov	r3, #0
30005bdc:	ea000002 	b	30005bec <memcpy+0xdc>
30005be0:	e7d71003 	ldrb	r1, [r7, r3]
30005be4:	e7c41003 	strb	r1, [r4, r3]
30005be8:	e2833001 	add	r3, r3, #1
30005bec:	e0831004 	add	r1, r3, r4
30005bf0:	e1510002 	cmp	r1, r2
30005bf4:	3afffff9 	bcc	30005be0 <memcpy+0xd0>
30005bf8:	eaffffcf 	b	30005b3c <memcpy+0x2c>
30005bfc:	e5134040 	ldr	r4, [r3, #-64]	; 0x40
30005c00:	e5014040 	str	r4, [r1, #-64]	; 0x40
30005c04:	e513403c 	ldr	r4, [r3, #-60]	; 0x3c
30005c08:	e501403c 	str	r4, [r1, #-60]	; 0x3c
30005c0c:	e5134038 	ldr	r4, [r3, #-56]	; 0x38
30005c10:	e5014038 	str	r4, [r1, #-56]	; 0x38
30005c14:	e5134034 	ldr	r4, [r3, #-52]	; 0x34
30005c18:	e5014034 	str	r4, [r1, #-52]	; 0x34
30005c1c:	e5134030 	ldr	r4, [r3, #-48]	; 0x30
30005c20:	e5014030 	str	r4, [r1, #-48]	; 0x30
30005c24:	e513402c 	ldr	r4, [r3, #-44]	; 0x2c
30005c28:	e501402c 	str	r4, [r1, #-44]	; 0x2c
30005c2c:	e5134028 	ldr	r4, [r3, #-40]	; 0x28
30005c30:	e5014028 	str	r4, [r1, #-40]	; 0x28
30005c34:	e5134024 	ldr	r4, [r3, #-36]	; 0x24
30005c38:	e5014024 	str	r4, [r1, #-36]	; 0x24
30005c3c:	e5134020 	ldr	r4, [r3, #-32]
30005c40:	e5014020 	str	r4, [r1, #-32]
30005c44:	e513401c 	ldr	r4, [r3, #-28]
30005c48:	e501401c 	str	r4, [r1, #-28]
30005c4c:	e5134018 	ldr	r4, [r3, #-24]
30005c50:	e5014018 	str	r4, [r1, #-24]
30005c54:	e5134014 	ldr	r4, [r3, #-20]
30005c58:	e5014014 	str	r4, [r1, #-20]
30005c5c:	e5134010 	ldr	r4, [r3, #-16]
30005c60:	e5014010 	str	r4, [r1, #-16]
30005c64:	e513400c 	ldr	r4, [r3, #-12]
30005c68:	e501400c 	str	r4, [r1, #-12]
30005c6c:	e5134008 	ldr	r4, [r3, #-8]
30005c70:	e5014008 	str	r4, [r1, #-8]
30005c74:	e5134004 	ldr	r4, [r3, #-4]
30005c78:	e5014004 	str	r4, [r1, #-4]
30005c7c:	e24cc040 	sub	ip, ip, #64	; 0x40
30005c80:	e35c003f 	cmp	ip, #63	; 0x3f
30005c84:	e1a04003 	mov	r4, r3
30005c88:	e1a05001 	mov	r5, r1
30005c8c:	e2833040 	add	r3, r3, #64	; 0x40
30005c90:	e2811040 	add	r1, r1, #64	; 0x40
30005c94:	caffffd8 	bgt	30005bfc <memcpy+0xec>
30005c98:	e1a01004 	mov	r1, r4
30005c9c:	e1a03005 	mov	r3, r5
30005ca0:	e0654002 	rsb	r4, r5, r2
30005ca4:	ea000008 	b	30005ccc <memcpy+0x1bc>
30005ca8:	e511c010 	ldr	ip, [r1, #-16]
30005cac:	e503c010 	str	ip, [r3, #-16]
30005cb0:	e511c00c 	ldr	ip, [r1, #-12]
30005cb4:	e503c00c 	str	ip, [r3, #-12]
30005cb8:	e511c008 	ldr	ip, [r1, #-8]
30005cbc:	e503c008 	str	ip, [r3, #-8]
30005cc0:	e511c004 	ldr	ip, [r1, #-4]
30005cc4:	e503c004 	str	ip, [r3, #-4]
30005cc8:	e2444010 	sub	r4, r4, #16
30005ccc:	e354000f 	cmp	r4, #15
30005cd0:	e1a05001 	mov	r5, r1
30005cd4:	e1a0c003 	mov	ip, r3
30005cd8:	e2811010 	add	r1, r1, #16
30005cdc:	e2833010 	add	r3, r3, #16
30005ce0:	cafffff0 	bgt	30005ca8 <memcpy+0x198>
30005ce4:	e06c1002 	rsb	r1, ip, r2
30005ce8:	e3a03000 	mov	r3, #0
30005cec:	ea000003 	b	30005d00 <memcpy+0x1f0>
30005cf0:	e7954003 	ldr	r4, [r5, r3]
30005cf4:	e2411004 	sub	r1, r1, #4
30005cf8:	e78c4003 	str	r4, [ip, r3]
30005cfc:	e2833004 	add	r3, r3, #4
30005d00:	e3510003 	cmp	r1, #3
30005d04:	e0837005 	add	r7, r3, r5
30005d08:	e083400c 	add	r4, r3, ip
30005d0c:	cafffff7 	bgt	30005cf0 <memcpy+0x1e0>
30005d10:	eaffffb0 	b	30005bd8 <memcpy+0xc8>

30005d14 <memmove>:
30005d14:	e1500001 	cmp	r0, r1
30005d18:	e92d0070 	push	{r4, r5, r6}
30005d1c:	e1a0c002 	mov	ip, r2
30005d20:	e1a05000 	mov	r5, r0
30005d24:	e1a04001 	mov	r4, r1
30005d28:	9a00000d 	bls	30005d64 <memmove+0x50>
30005d2c:	e0813002 	add	r3, r1, r2
30005d30:	e1500003 	cmp	r0, r3
30005d34:	2a00000a 	bcs	30005d64 <memmove+0x50>
30005d38:	e3520000 	cmp	r2, #0
30005d3c:	0a000006 	beq	30005d5c <memmove+0x48>
30005d40:	e062c003 	rsb	ip, r2, r3
30005d44:	e1a01000 	mov	r1, r0
30005d48:	e2423001 	sub	r3, r2, #1
30005d4c:	e7dc2003 	ldrb	r2, [ip, r3]
30005d50:	e7c12003 	strb	r2, [r1, r3]
30005d54:	e2533001 	subs	r3, r3, #1
30005d58:	2afffffb 	bcs	30005d4c <memmove+0x38>
30005d5c:	e8bd0070 	pop	{r4, r5, r6}
30005d60:	e12fff1e 	bx	lr
30005d64:	e352000f 	cmp	r2, #15
30005d68:	8a000008 	bhi	30005d90 <memmove+0x7c>
30005d6c:	e35c0000 	cmp	ip, #0
30005d70:	0afffff9 	beq	30005d5c <memmove+0x48>
30005d74:	e3a03000 	mov	r3, #0
30005d78:	e7d42003 	ldrb	r2, [r4, r3]
30005d7c:	e7c52003 	strb	r2, [r5, r3]
30005d80:	e2833001 	add	r3, r3, #1
30005d84:	e153000c 	cmp	r3, ip
30005d88:	1afffffa 	bne	30005d78 <memmove+0x64>
30005d8c:	eafffff2 	b	30005d5c <memmove+0x48>
30005d90:	e1813000 	orr	r3, r1, r0
30005d94:	e3130003 	tst	r3, #3
30005d98:	1afffff3 	bne	30005d6c <memmove+0x58>
30005d9c:	e1a04002 	mov	r4, r2
30005da0:	e1a03001 	mov	r3, r1
30005da4:	e1a0c000 	mov	ip, r0
30005da8:	e5935000 	ldr	r5, [r3]
30005dac:	e58c5000 	str	r5, [ip]
30005db0:	e5935004 	ldr	r5, [r3, #4]
30005db4:	e58c5004 	str	r5, [ip, #4]
30005db8:	e5935008 	ldr	r5, [r3, #8]
30005dbc:	e58c5008 	str	r5, [ip, #8]
30005dc0:	e2444010 	sub	r4, r4, #16
30005dc4:	e593500c 	ldr	r5, [r3, #12]
30005dc8:	e354000f 	cmp	r4, #15
30005dcc:	e58c500c 	str	r5, [ip, #12]
30005dd0:	e2833010 	add	r3, r3, #16
30005dd4:	e28cc010 	add	ip, ip, #16
30005dd8:	8afffff2 	bhi	30005da8 <memmove+0x94>
30005ddc:	e2422010 	sub	r2, r2, #16
30005de0:	e1a0c222 	lsr	ip, r2, #4
30005de4:	e06c6e0c 	rsb	r6, ip, ip, lsl #28
30005de8:	e0826206 	add	r6, r2, r6, lsl #4
30005dec:	e28c5001 	add	r5, ip, #1
30005df0:	e1a05205 	lsl	r5, r5, #4
30005df4:	e3560003 	cmp	r6, #3
30005df8:	e0814005 	add	r4, r1, r5
30005dfc:	e1a0c006 	mov	ip, r6
30005e00:	e0805005 	add	r5, r0, r5
30005e04:	9affffd8 	bls	30005d6c <memmove+0x58>
30005e08:	e3a03000 	mov	r3, #0
30005e0c:	e7942003 	ldr	r2, [r4, r3]
30005e10:	e7852003 	str	r2, [r5, r3]
30005e14:	e2833004 	add	r3, r3, #4
30005e18:	e0632006 	rsb	r2, r3, r6
30005e1c:	e3520003 	cmp	r2, #3
30005e20:	8afffff9 	bhi	30005e0c <memmove+0xf8>
30005e24:	e2466004 	sub	r6, r6, #4
30005e28:	e1a03126 	lsr	r3, r6, #2
30005e2c:	e2832001 	add	r2, r3, #1
30005e30:	e1a02102 	lsl	r2, r2, #2
30005e34:	e0633f03 	rsb	r3, r3, r3, lsl #30
30005e38:	e0844002 	add	r4, r4, r2
30005e3c:	e086c103 	add	ip, r6, r3, lsl #2
30005e40:	e0855002 	add	r5, r5, r2
30005e44:	eaffffc8 	b	30005d6c <memmove+0x58>

30005e48 <__malloc_lock>:
30005e48:	e12fff1e 	bx	lr

30005e4c <__malloc_unlock>:
30005e4c:	e12fff1e 	bx	lr

30005e50 <_Bfree>:
30005e50:	e3510000 	cmp	r1, #0
30005e54:	1590304c 	ldrne	r3, [r0, #76]	; 0x4c
30005e58:	15912004 	ldrne	r2, [r1, #4]
30005e5c:	17930102 	ldrne	r0, [r3, r2, lsl #2]
30005e60:	15810000 	strne	r0, [r1]
30005e64:	17831102 	strne	r1, [r3, r2, lsl #2]
30005e68:	e12fff1e 	bx	lr

30005e6c <__hi0bits>:
30005e6c:	e1a02820 	lsr	r2, r0, #16
30005e70:	e1a02802 	lsl	r2, r2, #16
30005e74:	e1a03000 	mov	r3, r0
30005e78:	e3520000 	cmp	r2, #0
30005e7c:	01a03803 	lsleq	r3, r3, #16
30005e80:	13a00000 	movne	r0, #0
30005e84:	03a00010 	moveq	r0, #16
30005e88:	e31304ff 	tst	r3, #-16777216	; 0xff000000
30005e8c:	01a03403 	lsleq	r3, r3, #8
30005e90:	02800008 	addeq	r0, r0, #8
30005e94:	e313020f 	tst	r3, #-268435456	; 0xf0000000
30005e98:	01a03203 	lsleq	r3, r3, #4
30005e9c:	02800004 	addeq	r0, r0, #4
30005ea0:	e3130103 	tst	r3, #-1073741824	; 0xc0000000
30005ea4:	01a03103 	lsleq	r3, r3, #2
30005ea8:	02800002 	addeq	r0, r0, #2
30005eac:	e3530000 	cmp	r3, #0
30005eb0:	b12fff1e 	bxlt	lr
30005eb4:	e3130101 	tst	r3, #1073741824	; 0x40000000
30005eb8:	03a00020 	moveq	r0, #32
30005ebc:	12800001 	addne	r0, r0, #1
30005ec0:	e12fff1e 	bx	lr

30005ec4 <__lo0bits>:
30005ec4:	e5903000 	ldr	r3, [r0]
30005ec8:	e1a02000 	mov	r2, r0
30005ecc:	e2130007 	ands	r0, r3, #7
30005ed0:	0a00000a 	beq	30005f00 <__lo0bits+0x3c>
30005ed4:	e3130001 	tst	r3, #1
30005ed8:	13a00000 	movne	r0, #0
30005edc:	112fff1e 	bxne	lr
30005ee0:	e3130002 	tst	r3, #2
30005ee4:	11a030a3 	lsrne	r3, r3, #1
30005ee8:	01a03123 	lsreq	r3, r3, #2
30005eec:	15823000 	strne	r3, [r2]
30005ef0:	13a00001 	movne	r0, #1
30005ef4:	05823000 	streq	r3, [r2]
30005ef8:	03a00002 	moveq	r0, #2
30005efc:	e12fff1e 	bx	lr
30005f00:	e1a01803 	lsl	r1, r3, #16
30005f04:	e1a01821 	lsr	r1, r1, #16
30005f08:	e3510000 	cmp	r1, #0
30005f0c:	01a03823 	lsreq	r3, r3, #16
30005f10:	03a00010 	moveq	r0, #16
30005f14:	e31300ff 	tst	r3, #255	; 0xff
30005f18:	01a03423 	lsreq	r3, r3, #8
30005f1c:	02800008 	addeq	r0, r0, #8
30005f20:	e313000f 	tst	r3, #15
30005f24:	01a03223 	lsreq	r3, r3, #4
30005f28:	02800004 	addeq	r0, r0, #4
30005f2c:	e3130003 	tst	r3, #3
30005f30:	01a03123 	lsreq	r3, r3, #2
30005f34:	02800002 	addeq	r0, r0, #2
30005f38:	e3130001 	tst	r3, #1
30005f3c:	1a000003 	bne	30005f50 <__lo0bits+0x8c>
30005f40:	e1b030a3 	lsrs	r3, r3, #1
30005f44:	03a00020 	moveq	r0, #32
30005f48:	012fff1e 	bxeq	lr
30005f4c:	e2800001 	add	r0, r0, #1
30005f50:	e5823000 	str	r3, [r2]
30005f54:	e12fff1e 	bx	lr

30005f58 <__mcmp>:
30005f58:	e1a03000 	mov	r3, r0
30005f5c:	e5912010 	ldr	r2, [r1, #16]
30005f60:	e5900010 	ldr	r0, [r0, #16]
30005f64:	e0500002 	subs	r0, r0, r2
30005f68:	e52d4004 	push	{r4}		; (str r4, [sp, #-4]!)
30005f6c:	1a00000e 	bne	30005fac <__mcmp+0x54>
30005f70:	e2822004 	add	r2, r2, #4
30005f74:	e1a02102 	lsl	r2, r2, #2
30005f78:	e0811002 	add	r1, r1, r2
30005f7c:	e0832002 	add	r2, r3, r2
30005f80:	e2822004 	add	r2, r2, #4
30005f84:	e2811004 	add	r1, r1, #4
30005f88:	e2833014 	add	r3, r3, #20
30005f8c:	e5124004 	ldr	r4, [r2, #-4]
30005f90:	e511c004 	ldr	ip, [r1, #-4]
30005f94:	e154000c 	cmp	r4, ip
30005f98:	e2422004 	sub	r2, r2, #4
30005f9c:	1a000004 	bne	30005fb4 <__mcmp+0x5c>
30005fa0:	e1530002 	cmp	r3, r2
30005fa4:	e2411004 	sub	r1, r1, #4
30005fa8:	3afffff7 	bcc	30005f8c <__mcmp+0x34>
30005fac:	e49d4004 	pop	{r4}		; (ldr r4, [sp], #4)
30005fb0:	e12fff1e 	bx	lr
30005fb4:	23a00001 	movcs	r0, #1
30005fb8:	33e00000 	mvncc	r0, #0
30005fbc:	eafffffa 	b	30005fac <__mcmp+0x54>

30005fc0 <__ulp>:
30005fc0:	e3c11102 	bic	r1, r1, #-2147483648	; 0x80000000
30005fc4:	e1a01a21 	lsr	r1, r1, #20
30005fc8:	e1a01a01 	lsl	r1, r1, #20
30005fcc:	e241350d 	sub	r3, r1, #54525952	; 0x3400000
30005fd0:	e3530000 	cmp	r3, #0
30005fd4:	c1a01003 	movgt	r1, r3
30005fd8:	c3a00000 	movgt	r0, #0
30005fdc:	c12fff1e 	bxgt	lr
30005fe0:	e2633000 	rsb	r3, r3, #0
30005fe4:	e1a03a43 	asr	r3, r3, #20
30005fe8:	e3530013 	cmp	r3, #19
30005fec:	d3a02702 	movle	r2, #524288	; 0x80000
30005ff0:	d1a01352 	asrle	r1, r2, r3
30005ff4:	d3a00000 	movle	r0, #0
30005ff8:	d12fff1e 	bxle	lr
30005ffc:	e2433014 	sub	r3, r3, #20
30006000:	e353001e 	cmp	r3, #30
30006004:	d263301f 	rsble	r3, r3, #31
30006008:	d3a02001 	movle	r2, #1
3000600c:	d1a03312 	lslle	r3, r2, r3
30006010:	c3a03001 	movgt	r3, #1
30006014:	e3a01000 	mov	r1, #0
30006018:	e1a00003 	mov	r0, r3
3000601c:	e12fff1e 	bx	lr

30006020 <__b2d>:
30006020:	e92d40f8 	push	{r3, r4, r5, r6, r7, lr}
30006024:	e5905010 	ldr	r5, [r0, #16]
30006028:	e2855004 	add	r5, r5, #4
3000602c:	e7904105 	ldr	r4, [r0, r5, lsl #2]
30006030:	e1a03000 	mov	r3, r0
30006034:	e1a00004 	mov	r0, r4
30006038:	e1a07001 	mov	r7, r1
3000603c:	e0835105 	add	r5, r3, r5, lsl #2
30006040:	e2836014 	add	r6, r3, #20
30006044:	ebffff88 	bl	30005e6c <__hi0bits>
30006048:	e2603020 	rsb	r3, r0, #32
3000604c:	e350000a 	cmp	r0, #10
30006050:	e5873000 	str	r3, [r7]
30006054:	ca00000d 	bgt	30006090 <__b2d+0x70>
30006058:	e1560005 	cmp	r6, r5
3000605c:	35151004 	ldrcc	r1, [r5, #-4]
30006060:	e260300b 	rsb	r3, r0, #11
30006064:	31a01331 	lsrcc	r1, r1, r3
30006068:	e1a0c334 	lsr	ip, r4, r3
3000606c:	23a01000 	movcs	r1, #0
30006070:	e2800015 	add	r0, r0, #21
30006074:	e1812014 	orr	r2, r1, r4, lsl r0
30006078:	e38c35ff 	orr	r3, ip, #1069547520	; 0x3fc00000
3000607c:	e3833603 	orr	r3, r3, #3145728	; 0x300000
30006080:	e1a00002 	mov	r0, r2
30006084:	e1a01003 	mov	r1, r3
30006088:	e8bd40f8 	pop	{r3, r4, r5, r6, r7, lr}
3000608c:	e12fff1e 	bx	lr
30006090:	e1560005 	cmp	r6, r5
30006094:	35151004 	ldrcc	r1, [r5, #-4]
30006098:	23a01000 	movcs	r1, #0
3000609c:	32455004 	subcc	r5, r5, #4
300060a0:	e250000b 	subs	r0, r0, #11
300060a4:	0a00000a 	beq	300060d4 <__b2d+0xb4>
300060a8:	e1550006 	cmp	r5, r6
300060ac:	85155004 	ldrhi	r5, [r5, #-4]
300060b0:	e1a04014 	lsl	r4, r4, r0
300060b4:	e260c020 	rsb	ip, r0, #32
300060b8:	81a05c35 	lsrhi	r5, r5, ip
300060bc:	e38445ff 	orr	r4, r4, #1069547520	; 0x3fc00000
300060c0:	93a05000 	movls	r5, #0
300060c4:	e3844603 	orr	r4, r4, #3145728	; 0x300000
300060c8:	e1843c31 	orr	r3, r4, r1, lsr ip
300060cc:	e1852011 	orr	r2, r5, r1, lsl r0
300060d0:	eaffffea 	b	30006080 <__b2d+0x60>
300060d4:	e38435ff 	orr	r3, r4, #1069547520	; 0x3fc00000
300060d8:	e3833603 	orr	r3, r3, #3145728	; 0x300000
300060dc:	e1a02001 	mov	r2, r1
300060e0:	eaffffe6 	b	30006080 <__b2d+0x60>

300060e4 <__ratio>:
300060e4:	e92d4bf0 	push	{r4, r5, r6, r7, r8, r9, fp, lr}
300060e8:	e24dd008 	sub	sp, sp, #8
300060ec:	e1a06001 	mov	r6, r1
300060f0:	e28d1004 	add	r1, sp, #4
300060f4:	e1a07000 	mov	r7, r0
300060f8:	ebffffc8 	bl	30006020 <__b2d>
300060fc:	e1a05001 	mov	r5, r1
30006100:	e1a04000 	mov	r4, r0
30006104:	e1a0100d 	mov	r1, sp
30006108:	e1a00006 	mov	r0, r6
3000610c:	ebffffc3 	bl	30006020 <__b2d>
30006110:	e1a03001 	mov	r3, r1
30006114:	e1a02000 	mov	r2, r0
30006118:	e5961010 	ldr	r1, [r6, #16]
3000611c:	e5970010 	ldr	r0, [r7, #16]
30006120:	e59dc004 	ldr	ip, [sp, #4]
30006124:	e0610000 	rsb	r0, r1, r0
30006128:	e59d1000 	ldr	r1, [sp]
3000612c:	e061100c 	rsb	r1, r1, ip
30006130:	e0811280 	add	r1, r1, r0, lsl #5
30006134:	e3510000 	cmp	r1, #0
30006138:	e1a09003 	mov	r9, r3
3000613c:	d1a09003 	movle	r9, r3
30006140:	e1a07005 	mov	r7, r5
30006144:	d0491a01 	suble	r1, r9, r1, lsl #20
30006148:	c0857a01 	addgt	r7, r5, r1, lsl #20
3000614c:	e1a0c003 	mov	ip, r3
30006150:	e1a06004 	mov	r6, r4
30006154:	d1a0c001 	movle	ip, r1
30006158:	c1a04004 	movgt	r4, r4
3000615c:	c1a05007 	movgt	r5, r7
30006160:	e1a08002 	mov	r8, r2
30006164:	e1a0b002 	mov	fp, r2
30006168:	d1a0300c 	movle	r3, ip
3000616c:	d1a02002 	movle	r2, r2
30006170:	e1a00004 	mov	r0, r4
30006174:	e1a01005 	mov	r1, r5
30006178:	eb0006df 	bl	30007cfc <__aeabi_ddiv>
3000617c:	e28dd008 	add	sp, sp, #8
30006180:	e8bd4bf0 	pop	{r4, r5, r6, r7, r8, r9, fp, lr}
30006184:	e12fff1e 	bx	lr

30006188 <_mprec_log10>:
30006188:	e3500017 	cmp	r0, #23
3000618c:	c3a015ff 	movgt	r1, #1069547520	; 0x3fc00000
30006190:	e92d4010 	push	{r4, lr}
30006194:	c2811603 	addgt	r1, r1, #3145728	; 0x300000
30006198:	e1a04000 	mov	r4, r0
3000619c:	c3a00000 	movgt	r0, #0
300061a0:	da000007 	ble	300061c4 <_mprec_log10+0x3c>
300061a4:	e3a03101 	mov	r3, #1073741824	; 0x40000000
300061a8:	e3a02000 	mov	r2, #0
300061ac:	e2833709 	add	r3, r3, #2359296	; 0x240000
300061b0:	eb00062d 	bl	30007a6c <__aeabi_dmul>
300061b4:	e2544001 	subs	r4, r4, #1
300061b8:	1afffff9 	bne	300061a4 <_mprec_log10+0x1c>
300061bc:	e8bd4010 	pop	{r4, lr}
300061c0:	e12fff1e 	bx	lr
300061c4:	e59f3008 	ldr	r3, [pc, #8]	; 300061d4 <_mprec_log10+0x4c>
300061c8:	e0834184 	add	r4, r3, r4, lsl #3
300061cc:	e8940003 	ldm	r4, {r0, r1}
300061d0:	eafffff9 	b	300061bc <_mprec_log10+0x34>
300061d4:	30008b30 	andcc	r8, r0, r0, lsr fp

300061d8 <__copybits>:
300061d8:	e5923010 	ldr	r3, [r2, #16]
300061dc:	e2411001 	sub	r1, r1, #1
300061e0:	e0823103 	add	r3, r2, r3, lsl #2
300061e4:	e1a012c1 	asr	r1, r1, #5
300061e8:	e2833014 	add	r3, r3, #20
300061ec:	e2822014 	add	r2, r2, #20
300061f0:	e2811001 	add	r1, r1, #1
300061f4:	e1520003 	cmp	r2, r3
300061f8:	e52d4004 	push	{r4}		; (str r4, [sp, #-4]!)
300061fc:	e0804101 	add	r4, r0, r1, lsl #2
30006200:	2a00000b 	bcs	30006234 <__copybits+0x5c>
30006204:	e3a0c000 	mov	ip, #0
30006208:	e792100c 	ldr	r1, [r2, ip]
3000620c:	e780100c 	str	r1, [r0, ip]
30006210:	e28cc004 	add	ip, ip, #4
30006214:	e08c1002 	add	r1, ip, r2
30006218:	e1530001 	cmp	r3, r1
3000621c:	8afffff9 	bhi	30006208 <__copybits+0x30>
30006220:	e1e02002 	mvn	r2, r2
30006224:	e0823003 	add	r3, r2, r3
30006228:	e3c33003 	bic	r3, r3, #3
3000622c:	e2833004 	add	r3, r3, #4
30006230:	e0800003 	add	r0, r0, r3
30006234:	e1540000 	cmp	r4, r0
30006238:	9a000003 	bls	3000624c <__copybits+0x74>
3000623c:	e3a03000 	mov	r3, #0
30006240:	e4803004 	str	r3, [r0], #4
30006244:	e1540000 	cmp	r4, r0
30006248:	8afffffc 	bhi	30006240 <__copybits+0x68>
3000624c:	e49d4004 	pop	{r4}		; (ldr r4, [sp], #4)
30006250:	e12fff1e 	bx	lr

30006254 <__any_on>:
30006254:	e5902010 	ldr	r2, [r0, #16]
30006258:	e1a032c1 	asr	r3, r1, #5
3000625c:	e1520003 	cmp	r2, r3
30006260:	ba00000b 	blt	30006294 <__any_on+0x40>
30006264:	da000009 	ble	30006290 <__any_on+0x3c>
30006268:	e211101f 	ands	r1, r1, #31
3000626c:	0a000007 	beq	30006290 <__any_on+0x3c>
30006270:	e1a02003 	mov	r2, r3
30006274:	e0803103 	add	r3, r0, r3, lsl #2
30006278:	e5933014 	ldr	r3, [r3, #20]
3000627c:	e1a0c133 	lsr	ip, r3, r1
30006280:	e153011c 	cmp	r3, ip, lsl r1
30006284:	0a000002 	beq	30006294 <__any_on+0x40>
30006288:	e3a00001 	mov	r0, #1
3000628c:	e12fff1e 	bx	lr
30006290:	e1a02003 	mov	r2, r3
30006294:	e2822004 	add	r2, r2, #4
30006298:	e0803102 	add	r3, r0, r2, lsl #2
3000629c:	e2801014 	add	r1, r0, #20
300062a0:	e283c004 	add	ip, r3, #4
300062a4:	e151000c 	cmp	r1, ip
300062a8:	2a000009 	bcs	300062d4 <__any_on+0x80>
300062ac:	e7902102 	ldr	r2, [r0, r2, lsl #2]
300062b0:	e3520000 	cmp	r2, #0
300062b4:	1afffff3 	bne	30006288 <__any_on+0x34>
300062b8:	e1510003 	cmp	r1, r3
300062bc:	2a000004 	bcs	300062d4 <__any_on+0x80>
300062c0:	e5332004 	ldr	r2, [r3, #-4]!
300062c4:	e3520000 	cmp	r2, #0
300062c8:	1affffee 	bne	30006288 <__any_on+0x34>
300062cc:	e1510003 	cmp	r1, r3
300062d0:	3afffffa 	bcc	300062c0 <__any_on+0x6c>
300062d4:	e3a00000 	mov	r0, #0
300062d8:	e12fff1e 	bx	lr

300062dc <_Balloc>:
300062dc:	e590304c 	ldr	r3, [r0, #76]	; 0x4c
300062e0:	e3530000 	cmp	r3, #0
300062e4:	e92d4070 	push	{r4, r5, r6, lr}
300062e8:	e1a05000 	mov	r5, r0
300062ec:	e1a04001 	mov	r4, r1
300062f0:	0a000009 	beq	3000631c <_Balloc+0x40>
300062f4:	e7930104 	ldr	r0, [r3, r4, lsl #2]
300062f8:	e3500000 	cmp	r0, #0
300062fc:	0a00000e 	beq	3000633c <_Balloc+0x60>
30006300:	e5902000 	ldr	r2, [r0]
30006304:	e7832104 	str	r2, [r3, r4, lsl #2]
30006308:	e3a03000 	mov	r3, #0
3000630c:	e580300c 	str	r3, [r0, #12]
30006310:	e5803010 	str	r3, [r0, #16]
30006314:	e8bd4070 	pop	{r4, r5, r6, lr}
30006318:	e12fff1e 	bx	lr
3000631c:	e3a01004 	mov	r1, #4
30006320:	e3a02010 	mov	r2, #16
30006324:	eb0003ac 	bl	300071dc <_calloc_r>
30006328:	e3500000 	cmp	r0, #0
3000632c:	e585004c 	str	r0, [r5, #76]	; 0x4c
30006330:	e1a03000 	mov	r3, r0
30006334:	1affffee 	bne	300062f4 <_Balloc+0x18>
30006338:	eafffff5 	b	30006314 <_Balloc+0x38>
3000633c:	e3a01001 	mov	r1, #1
30006340:	e1a06411 	lsl	r6, r1, r4
30006344:	e2862005 	add	r2, r6, #5
30006348:	e1a00005 	mov	r0, r5
3000634c:	e1a02102 	lsl	r2, r2, #2
30006350:	eb0003a1 	bl	300071dc <_calloc_r>
30006354:	e3500000 	cmp	r0, #0
30006358:	0affffed 	beq	30006314 <_Balloc+0x38>
3000635c:	e9800050 	stmib	r0, {r4, r6}
30006360:	eaffffe8 	b	30006308 <_Balloc+0x2c>

30006364 <__d2b>:
30006364:	e92d45f0 	push	{r4, r5, r6, r7, r8, sl, lr}
30006368:	e3a01001 	mov	r1, #1
3000636c:	e24dd00c 	sub	sp, sp, #12
30006370:	e1a05003 	mov	r5, r3
30006374:	e1a04002 	mov	r4, r2
30006378:	e59d7028 	ldr	r7, [sp, #40]	; 0x28
3000637c:	e59d602c 	ldr	r6, [sp, #44]	; 0x2c
30006380:	ebffffd5 	bl	300062dc <_Balloc>
30006384:	e3c52102 	bic	r2, r5, #-2147483648	; 0x80000000
30006388:	e3c534ff 	bic	r3, r5, #-16777216	; 0xff000000
3000638c:	e3c3360f 	bic	r3, r3, #15728640	; 0xf00000
30006390:	e1b0aa22 	lsrs	sl, r2, #20
30006394:	e58d3000 	str	r3, [sp]
30006398:	13833601 	orrne	r3, r3, #1048576	; 0x100000
3000639c:	158d3000 	strne	r3, [sp]
300063a0:	e3540000 	cmp	r4, #0
300063a4:	e1a08000 	mov	r8, r0
300063a8:	e1a05002 	mov	r5, r2
300063ac:	0a00001e 	beq	3000642c <__d2b+0xc8>
300063b0:	e28d0008 	add	r0, sp, #8
300063b4:	e5204004 	str	r4, [r0, #-4]!
300063b8:	ebfffec1 	bl	30005ec4 <__lo0bits>
300063bc:	e3500000 	cmp	r0, #0
300063c0:	159d3000 	ldrne	r3, [sp]
300063c4:	159d2004 	ldrne	r2, [sp, #4]
300063c8:	12601020 	rsbne	r1, r0, #32
300063cc:	11822113 	orrne	r2, r2, r3, lsl r1
300063d0:	11a03033 	lsrne	r3, r3, r0
300063d4:	059d3004 	ldreq	r3, [sp, #4]
300063d8:	05883014 	streq	r3, [r8, #20]
300063dc:	059d3000 	ldreq	r3, [sp]
300063e0:	15882014 	strne	r2, [r8, #20]
300063e4:	158d3000 	strne	r3, [sp]
300063e8:	e3530000 	cmp	r3, #0
300063ec:	13a04002 	movne	r4, #2
300063f0:	03a04001 	moveq	r4, #1
300063f4:	e35a0000 	cmp	sl, #0
300063f8:	e5883018 	str	r3, [r8, #24]
300063fc:	e5884010 	str	r4, [r8, #16]
30006400:	0a000012 	beq	30006450 <__d2b+0xec>
30006404:	e24aae43 	sub	sl, sl, #1072	; 0x430
30006408:	e24aa003 	sub	sl, sl, #3
3000640c:	e08aa000 	add	sl, sl, r0
30006410:	e2600035 	rsb	r0, r0, #53	; 0x35
30006414:	e587a000 	str	sl, [r7]
30006418:	e5860000 	str	r0, [r6]
3000641c:	e1a00008 	mov	r0, r8
30006420:	e28dd00c 	add	sp, sp, #12
30006424:	e8bd45f0 	pop	{r4, r5, r6, r7, r8, sl, lr}
30006428:	e12fff1e 	bx	lr
3000642c:	e1a0000d 	mov	r0, sp
30006430:	ebfffea3 	bl	30005ec4 <__lo0bits>
30006434:	e59d3000 	ldr	r3, [sp]
30006438:	e3a04001 	mov	r4, #1
3000643c:	e35a0000 	cmp	sl, #0
30006440:	e5883014 	str	r3, [r8, #20]
30006444:	e5884010 	str	r4, [r8, #16]
30006448:	e2800020 	add	r0, r0, #32
3000644c:	1affffec 	bne	30006404 <__d2b+0xa0>
30006450:	e2400e43 	sub	r0, r0, #1072	; 0x430
30006454:	e2400002 	sub	r0, r0, #2
30006458:	e0883104 	add	r3, r8, r4, lsl #2
3000645c:	e5870000 	str	r0, [r7]
30006460:	e5930010 	ldr	r0, [r3, #16]
30006464:	ebfffe80 	bl	30005e6c <__hi0bits>
30006468:	e0600284 	rsb	r0, r0, r4, lsl #5
3000646c:	e5860000 	str	r0, [r6]
30006470:	eaffffe9 	b	3000641c <__d2b+0xb8>

30006474 <__mdiff>:
30006474:	e92d47f0 	push	{r4, r5, r6, r7, r8, r9, sl, lr}
30006478:	e5923010 	ldr	r3, [r2, #16]
3000647c:	e5917010 	ldr	r7, [r1, #16]
30006480:	e0637007 	rsb	r7, r3, r7
30006484:	e3570000 	cmp	r7, #0
30006488:	e1a04001 	mov	r4, r1
3000648c:	e1a05002 	mov	r5, r2
30006490:	0a00003a 	beq	30006580 <__mdiff+0x10c>
30006494:	a3a07000 	movge	r7, #0
30006498:	a2816014 	addge	r6, r1, #20
3000649c:	ba00004e 	blt	300065dc <__mdiff+0x168>
300064a0:	e5941004 	ldr	r1, [r4, #4]
300064a4:	ebffff8c 	bl	300062dc <_Balloc>
300064a8:	e5958010 	ldr	r8, [r5, #16]
300064ac:	e594c010 	ldr	ip, [r4, #16]
300064b0:	e0858108 	add	r8, r5, r8, lsl #2
300064b4:	e084410c 	add	r4, r4, ip, lsl #2
300064b8:	e580700c 	str	r7, [r0, #12]
300064bc:	e2844014 	add	r4, r4, #20
300064c0:	e2888014 	add	r8, r8, #20
300064c4:	e2855014 	add	r5, r5, #20
300064c8:	e2802014 	add	r2, r0, #20
300064cc:	e3a01000 	mov	r1, #0
300064d0:	e4959004 	ldr	r9, [r5], #4
300064d4:	e496a004 	ldr	sl, [r6], #4
300064d8:	e1a03809 	lsl	r3, r9, #16
300064dc:	e1a0780a 	lsl	r7, sl, #16
300064e0:	e1a07827 	lsr	r7, r7, #16
300064e4:	e1a03823 	lsr	r3, r3, #16
300064e8:	e0633007 	rsb	r3, r3, r7
300064ec:	e0831001 	add	r1, r3, r1
300064f0:	e1a09829 	lsr	r9, r9, #16
300064f4:	e1a07801 	lsl	r7, r1, #16
300064f8:	e069a82a 	rsb	sl, r9, sl, lsr #16
300064fc:	e08a1841 	add	r1, sl, r1, asr #16
30006500:	e1a07827 	lsr	r7, r7, #16
30006504:	e1877801 	orr	r7, r7, r1, lsl #16
30006508:	e1580005 	cmp	r8, r5
3000650c:	e4827004 	str	r7, [r2], #4
30006510:	e1a01841 	asr	r1, r1, #16
30006514:	8affffed 	bhi	300064d0 <__mdiff+0x5c>
30006518:	e1560004 	cmp	r6, r4
3000651c:	2a00000c 	bcs	30006554 <__mdiff+0xe0>
30006520:	e4965004 	ldr	r5, [r6], #4
30006524:	e1a03805 	lsl	r3, r5, #16
30006528:	e1a03823 	lsr	r3, r3, #16
3000652c:	e0811003 	add	r1, r1, r3
30006530:	e1a03801 	lsl	r3, r1, #16
30006534:	e1a05825 	lsr	r5, r5, #16
30006538:	e0851841 	add	r1, r5, r1, asr #16
3000653c:	e1a03823 	lsr	r3, r3, #16
30006540:	e1833801 	orr	r3, r3, r1, lsl #16
30006544:	e1540006 	cmp	r4, r6
30006548:	e4823004 	str	r3, [r2], #4
3000654c:	e1a01841 	asr	r1, r1, #16
30006550:	8afffff2 	bhi	30006520 <__mdiff+0xac>
30006554:	e5123004 	ldr	r3, [r2, #-4]
30006558:	e3530000 	cmp	r3, #0
3000655c:	1a000004 	bne	30006574 <__mdiff+0x100>
30006560:	e5123008 	ldr	r3, [r2, #-8]
30006564:	e3530000 	cmp	r3, #0
30006568:	e24cc001 	sub	ip, ip, #1
3000656c:	e2422004 	sub	r2, r2, #4
30006570:	0afffffa 	beq	30006560 <__mdiff+0xec>
30006574:	e580c010 	str	ip, [r0, #16]
30006578:	e8bd47f0 	pop	{r4, r5, r6, r7, r8, r9, sl, lr}
3000657c:	e12fff1e 	bx	lr
30006580:	e2833004 	add	r3, r3, #4
30006584:	e1a03103 	lsl	r3, r3, #2
30006588:	e0822003 	add	r2, r2, r3
3000658c:	e0813003 	add	r3, r1, r3
30006590:	e2833004 	add	r3, r3, #4
30006594:	e2822004 	add	r2, r2, #4
30006598:	e2816014 	add	r6, r1, #20
3000659c:	e513c004 	ldr	ip, [r3, #-4]
300065a0:	e5121004 	ldr	r1, [r2, #-4]
300065a4:	e15c0001 	cmp	ip, r1
300065a8:	e2433004 	sub	r3, r3, #4
300065ac:	1a000009 	bne	300065d8 <__mdiff+0x164>
300065b0:	e1560003 	cmp	r6, r3
300065b4:	e2422004 	sub	r2, r2, #4
300065b8:	3afffff7 	bcc	3000659c <__mdiff+0x128>
300065bc:	e3a01000 	mov	r1, #0
300065c0:	ebffff45 	bl	300062dc <_Balloc>
300065c4:	e3a03001 	mov	r3, #1
300065c8:	e5803010 	str	r3, [r0, #16]
300065cc:	e3a03000 	mov	r3, #0
300065d0:	e5803014 	str	r3, [r0, #20]
300065d4:	eaffffe7 	b	30006578 <__mdiff+0x104>
300065d8:	2affffb0 	bcs	300064a0 <__mdiff+0x2c>
300065dc:	e1a03004 	mov	r3, r4
300065e0:	e1a04005 	mov	r4, r5
300065e4:	e3a07001 	mov	r7, #1
300065e8:	e1a05003 	mov	r5, r3
300065ec:	e2846014 	add	r6, r4, #20
300065f0:	eaffffaa 	b	300064a0 <__mdiff+0x2c>

300065f4 <__lshift>:
300065f4:	e92d45f8 	push	{r3, r4, r5, r6, r7, r8, sl, lr}
300065f8:	e5915010 	ldr	r5, [r1, #16]
300065fc:	e5913008 	ldr	r3, [r1, #8]
30006600:	e2855001 	add	r5, r5, #1
30006604:	e1a062c2 	asr	r6, r2, #5
30006608:	e0855006 	add	r5, r5, r6
3000660c:	e1550003 	cmp	r5, r3
30006610:	e1a04001 	mov	r4, r1
30006614:	e1a07002 	mov	r7, r2
30006618:	e1a08000 	mov	r8, r0
3000661c:	e5911004 	ldr	r1, [r1, #4]
30006620:	da000003 	ble	30006634 <__lshift+0x40>
30006624:	e1a03083 	lsl	r3, r3, #1
30006628:	e1550003 	cmp	r5, r3
3000662c:	e2811001 	add	r1, r1, #1
30006630:	cafffffb 	bgt	30006624 <__lshift+0x30>
30006634:	e1a00008 	mov	r0, r8
30006638:	ebffff27 	bl	300062dc <_Balloc>
3000663c:	e3560000 	cmp	r6, #0
30006640:	e2802014 	add	r2, r0, #20
30006644:	da000007 	ble	30006668 <__lshift+0x74>
30006648:	e3a03000 	mov	r3, #0
3000664c:	e1a01003 	mov	r1, r3
30006650:	e7821103 	str	r1, [r2, r3, lsl #2]
30006654:	e2833001 	add	r3, r3, #1
30006658:	e1530006 	cmp	r3, r6
3000665c:	1afffffb 	bne	30006650 <__lshift+0x5c>
30006660:	e0803103 	add	r3, r0, r3, lsl #2
30006664:	e2832014 	add	r2, r3, #20
30006668:	e594c010 	ldr	ip, [r4, #16]
3000666c:	e217701f 	ands	r7, r7, #31
30006670:	e084c10c 	add	ip, r4, ip, lsl #2
30006674:	e28cc014 	add	ip, ip, #20
30006678:	e2843014 	add	r3, r4, #20
3000667c:	0a000014 	beq	300066d4 <__lshift+0xe0>
30006680:	e2676020 	rsb	r6, r7, #32
30006684:	e3a01000 	mov	r1, #0
30006688:	e593a000 	ldr	sl, [r3]
3000668c:	e181171a 	orr	r1, r1, sl, lsl r7
30006690:	e4821004 	str	r1, [r2], #4
30006694:	e4931004 	ldr	r1, [r3], #4
30006698:	e15c0003 	cmp	ip, r3
3000669c:	e1a01631 	lsr	r1, r1, r6
300066a0:	8afffff8 	bhi	30006688 <__lshift+0x94>
300066a4:	e3510000 	cmp	r1, #0
300066a8:	e5821000 	str	r1, [r2]
300066ac:	12855001 	addne	r5, r5, #1
300066b0:	e598304c 	ldr	r3, [r8, #76]	; 0x4c
300066b4:	e5942004 	ldr	r2, [r4, #4]
300066b8:	e7931102 	ldr	r1, [r3, r2, lsl #2]
300066bc:	e2455001 	sub	r5, r5, #1
300066c0:	e5841000 	str	r1, [r4]
300066c4:	e5805010 	str	r5, [r0, #16]
300066c8:	e7834102 	str	r4, [r3, r2, lsl #2]
300066cc:	e8bd45f8 	pop	{r3, r4, r5, r6, r7, r8, sl, lr}
300066d0:	e12fff1e 	bx	lr
300066d4:	e7931007 	ldr	r1, [r3, r7]
300066d8:	e7821007 	str	r1, [r2, r7]
300066dc:	e2877004 	add	r7, r7, #4
300066e0:	e0871003 	add	r1, r7, r3
300066e4:	e151000c 	cmp	r1, ip
300066e8:	2afffff0 	bcs	300066b0 <__lshift+0xbc>
300066ec:	e7931007 	ldr	r1, [r3, r7]
300066f0:	e7821007 	str	r1, [r2, r7]
300066f4:	e2877004 	add	r7, r7, #4
300066f8:	e0871003 	add	r1, r7, r3
300066fc:	e151000c 	cmp	r1, ip
30006700:	3afffff3 	bcc	300066d4 <__lshift+0xe0>
30006704:	eaffffe9 	b	300066b0 <__lshift+0xbc>

30006708 <__multiply>:
30006708:	e92d4ff0 	push	{r4, r5, r6, r7, r8, r9, sl, fp, lr}
3000670c:	e5916010 	ldr	r6, [r1, #16]
30006710:	e5928010 	ldr	r8, [r2, #16]
30006714:	e1560008 	cmp	r6, r8
30006718:	a1a03008 	movge	r3, r8
3000671c:	b1a03001 	movlt	r3, r1
30006720:	e1a05001 	mov	r5, r1
30006724:	b1a05002 	movlt	r5, r2
30006728:	a1a08006 	movge	r8, r6
3000672c:	e1a09002 	mov	r9, r2
30006730:	a1a06003 	movge	r6, r3
30006734:	b1a09003 	movlt	r9, r3
30006738:	e5953008 	ldr	r3, [r5, #8]
3000673c:	e0864008 	add	r4, r6, r8
30006740:	e5951004 	ldr	r1, [r5, #4]
30006744:	e1540003 	cmp	r4, r3
30006748:	e24dd01c 	sub	sp, sp, #28
3000674c:	c2811001 	addgt	r1, r1, #1
30006750:	ebfffee1 	bl	300062dc <_Balloc>
30006754:	e0803104 	add	r3, r0, r4, lsl #2
30006758:	e2833014 	add	r3, r3, #20
3000675c:	e58d000c 	str	r0, [sp, #12]
30006760:	e2800014 	add	r0, r0, #20
30006764:	e1500003 	cmp	r0, r3
30006768:	e58d3010 	str	r3, [sp, #16]
3000676c:	2a000005 	bcs	30006788 <__multiply+0x80>
30006770:	e59d1010 	ldr	r1, [sp, #16]
30006774:	e1a03000 	mov	r3, r0
30006778:	e3a02000 	mov	r2, #0
3000677c:	e4832004 	str	r2, [r3], #4
30006780:	e1510003 	cmp	r1, r3
30006784:	8afffffc 	bhi	3000677c <__multiply+0x74>
30006788:	e0896106 	add	r6, r9, r6, lsl #2
3000678c:	e2866014 	add	r6, r6, #20
30006790:	e2899014 	add	r9, r9, #20
30006794:	e0858108 	add	r8, r5, r8, lsl #2
30006798:	e1590006 	cmp	r9, r6
3000679c:	e2855014 	add	r5, r5, #20
300067a0:	e58d6004 	str	r6, [sp, #4]
300067a4:	e2888014 	add	r8, r8, #20
300067a8:	e58d5008 	str	r5, [sp, #8]
300067ac:	2a00003e 	bcs	300068ac <__multiply+0x1a4>
300067b0:	e58d4014 	str	r4, [sp, #20]
300067b4:	e3a0a000 	mov	sl, #0
300067b8:	e1a0b000 	mov	fp, r0
300067bc:	e799000a 	ldr	r0, [r9, sl]
300067c0:	e1a0c800 	lsl	ip, r0, #16
300067c4:	e1a0c82c 	lsr	ip, ip, #16
300067c8:	e35c0000 	cmp	ip, #0
300067cc:	e08a700b 	add	r7, sl, fp
300067d0:	0a000017 	beq	30006834 <__multiply+0x12c>
300067d4:	e59d0008 	ldr	r0, [sp, #8]
300067d8:	e1a01007 	mov	r1, r7
300067dc:	e3a06000 	mov	r6, #0
300067e0:	e4905004 	ldr	r5, [r0], #4
300067e4:	e5914000 	ldr	r4, [r1]
300067e8:	e1a02805 	lsl	r2, r5, #16
300067ec:	e1a03804 	lsl	r3, r4, #16
300067f0:	e1a02822 	lsr	r2, r2, #16
300067f4:	e1a03823 	lsr	r3, r3, #16
300067f8:	e023329c 	mla	r3, ip, r2, r3
300067fc:	e1a05825 	lsr	r5, r5, #16
30006800:	e1a04824 	lsr	r4, r4, #16
30006804:	e025459c 	mla	r5, ip, r5, r4
30006808:	e0833006 	add	r3, r3, r6
3000680c:	e1a02803 	lsl	r2, r3, #16
30006810:	e0855823 	add	r5, r5, r3, lsr #16
30006814:	e1a02822 	lsr	r2, r2, #16
30006818:	e1822805 	orr	r2, r2, r5, lsl #16
3000681c:	e1580000 	cmp	r8, r0
30006820:	e4812004 	str	r2, [r1], #4
30006824:	e1a06825 	lsr	r6, r5, #16
30006828:	8affffec 	bhi	300067e0 <__multiply+0xd8>
3000682c:	e5816000 	str	r6, [r1]
30006830:	e799000a 	ldr	r0, [r9, sl]
30006834:	e1b00820 	lsrs	r0, r0, #16
30006838:	0a000015 	beq	30006894 <__multiply+0x18c>
3000683c:	e79b100a 	ldr	r1, [fp, sl]
30006840:	e59d3008 	ldr	r3, [sp, #8]
30006844:	e1a0c001 	mov	ip, r1
30006848:	e3a02000 	mov	r2, #0
3000684c:	e1d340b0 	ldrh	r4, [r3]
30006850:	e0222094 	mla	r2, r4, r0, r2
30006854:	e1a01801 	lsl	r1, r1, #16
30006858:	e082282c 	add	r2, r2, ip, lsr #16
3000685c:	e1a01821 	lsr	r1, r1, #16
30006860:	e1811802 	orr	r1, r1, r2, lsl #16
30006864:	e5871000 	str	r1, [r7]
30006868:	e5b7c004 	ldr	ip, [r7, #4]!
3000686c:	e4931004 	ldr	r1, [r3], #4
30006870:	e1a0480c 	lsl	r4, ip, #16
30006874:	e1a01821 	lsr	r1, r1, #16
30006878:	e1a04824 	lsr	r4, r4, #16
3000687c:	e0214190 	mla	r1, r0, r1, r4
30006880:	e1580003 	cmp	r8, r3
30006884:	e0811822 	add	r1, r1, r2, lsr #16
30006888:	e1a02821 	lsr	r2, r1, #16
3000688c:	8affffee 	bhi	3000684c <__multiply+0x144>
30006890:	e5871000 	str	r1, [r7]
30006894:	e28aa004 	add	sl, sl, #4
30006898:	e59d2004 	ldr	r2, [sp, #4]
3000689c:	e08a3009 	add	r3, sl, r9
300068a0:	e1520003 	cmp	r2, r3
300068a4:	8affffc4 	bhi	300067bc <__multiply+0xb4>
300068a8:	e59d4014 	ldr	r4, [sp, #20]
300068ac:	e3540000 	cmp	r4, #0
300068b0:	da00000b 	ble	300068e4 <__multiply+0x1dc>
300068b4:	e59d2010 	ldr	r2, [sp, #16]
300068b8:	e5123004 	ldr	r3, [r2, #-4]
300068bc:	e3530000 	cmp	r3, #0
300068c0:	1a000007 	bne	300068e4 <__multiply+0x1dc>
300068c4:	e1a03002 	mov	r3, r2
300068c8:	ea000003 	b	300068dc <__multiply+0x1d4>
300068cc:	e5132008 	ldr	r2, [r3, #-8]
300068d0:	e3520000 	cmp	r2, #0
300068d4:	e2433004 	sub	r3, r3, #4
300068d8:	1a000001 	bne	300068e4 <__multiply+0x1dc>
300068dc:	e2544001 	subs	r4, r4, #1
300068e0:	1afffff9 	bne	300068cc <__multiply+0x1c4>
300068e4:	e59d300c 	ldr	r3, [sp, #12]
300068e8:	e5834010 	str	r4, [r3, #16]
300068ec:	e1a00003 	mov	r0, r3
300068f0:	e28dd01c 	add	sp, sp, #28
300068f4:	e8bd4ff0 	pop	{r4, r5, r6, r7, r8, r9, sl, fp, lr}
300068f8:	e12fff1e 	bx	lr

300068fc <__i2b>:
300068fc:	e92d4010 	push	{r4, lr}
30006900:	e1a04001 	mov	r4, r1
30006904:	e3a01001 	mov	r1, #1
30006908:	ebfffe73 	bl	300062dc <_Balloc>
3000690c:	e3a02001 	mov	r2, #1
30006910:	e5802010 	str	r2, [r0, #16]
30006914:	e5804014 	str	r4, [r0, #20]
30006918:	e8bd4010 	pop	{r4, lr}
3000691c:	e12fff1e 	bx	lr

30006920 <__multadd>:
30006920:	e92d41f0 	push	{r4, r5, r6, r7, r8, lr}
30006924:	e1a05001 	mov	r5, r1
30006928:	e5954010 	ldr	r4, [r5, #16]
3000692c:	e3a01000 	mov	r1, #0
30006930:	e24dd008 	sub	sp, sp, #8
30006934:	e1a06000 	mov	r6, r0
30006938:	e2857014 	add	r7, r5, #20
3000693c:	e1a0c001 	mov	ip, r1
30006940:	e7978001 	ldr	r8, [r7, r1]
30006944:	e1a00808 	lsl	r0, r8, #16
30006948:	e1a00820 	lsr	r0, r0, #16
3000694c:	e0233290 	mla	r3, r0, r2, r3
30006950:	e1a08828 	lsr	r8, r8, #16
30006954:	e0080892 	mul	r8, r2, r8
30006958:	e1a00803 	lsl	r0, r3, #16
3000695c:	e1a00820 	lsr	r0, r0, #16
30006960:	e0883823 	add	r3, r8, r3, lsr #16
30006964:	e28cc001 	add	ip, ip, #1
30006968:	e0800803 	add	r0, r0, r3, lsl #16
3000696c:	e154000c 	cmp	r4, ip
30006970:	e7870001 	str	r0, [r7, r1]
30006974:	e1a03823 	lsr	r3, r3, #16
30006978:	e2811004 	add	r1, r1, #4
3000697c:	caffffef 	bgt	30006940 <__multadd+0x20>
30006980:	e3530000 	cmp	r3, #0
30006984:	0a000006 	beq	300069a4 <__multadd+0x84>
30006988:	e5952008 	ldr	r2, [r5, #8]
3000698c:	e1540002 	cmp	r4, r2
30006990:	aa000007 	bge	300069b4 <__multadd+0x94>
30006994:	e2842001 	add	r2, r4, #1
30006998:	e0854104 	add	r4, r5, r4, lsl #2
3000699c:	e5843014 	str	r3, [r4, #20]
300069a0:	e5852010 	str	r2, [r5, #16]
300069a4:	e1a00005 	mov	r0, r5
300069a8:	e28dd008 	add	sp, sp, #8
300069ac:	e8bd41f0 	pop	{r4, r5, r6, r7, r8, lr}
300069b0:	e12fff1e 	bx	lr
300069b4:	e5951004 	ldr	r1, [r5, #4]
300069b8:	e1a00006 	mov	r0, r6
300069bc:	e2811001 	add	r1, r1, #1
300069c0:	e58d3004 	str	r3, [sp, #4]
300069c4:	ebfffe44 	bl	300062dc <_Balloc>
300069c8:	e5952010 	ldr	r2, [r5, #16]
300069cc:	e2822002 	add	r2, r2, #2
300069d0:	e285100c 	add	r1, r5, #12
300069d4:	e1a07000 	mov	r7, r0
300069d8:	e1a02102 	lsl	r2, r2, #2
300069dc:	e280000c 	add	r0, r0, #12
300069e0:	ebfffc4a 	bl	30005b10 <memcpy>
300069e4:	e5951004 	ldr	r1, [r5, #4]
300069e8:	e596204c 	ldr	r2, [r6, #76]	; 0x4c
300069ec:	e7920101 	ldr	r0, [r2, r1, lsl #2]
300069f0:	e59d3004 	ldr	r3, [sp, #4]
300069f4:	e5850000 	str	r0, [r5]
300069f8:	e7825101 	str	r5, [r2, r1, lsl #2]
300069fc:	e1a05007 	mov	r5, r7
30006a00:	eaffffe3 	b	30006994 <__multadd+0x74>

30006a04 <__pow5mult>:
30006a04:	e2123003 	ands	r3, r2, #3
30006a08:	e92d41f0 	push	{r4, r5, r6, r7, r8, lr}
30006a0c:	e1a05002 	mov	r5, r2
30006a10:	e1a04000 	mov	r4, r0
30006a14:	e1a08001 	mov	r8, r1
30006a18:	1a000027 	bne	30006abc <__pow5mult+0xb8>
30006a1c:	e1b05145 	asrs	r5, r5, #2
30006a20:	0a00001a 	beq	30006a90 <__pow5mult+0x8c>
30006a24:	e5947048 	ldr	r7, [r4, #72]	; 0x48
30006a28:	e3570000 	cmp	r7, #0
30006a2c:	0a000029 	beq	30006ad8 <__pow5mult+0xd4>
30006a30:	e3150001 	tst	r5, #1
30006a34:	1a000008 	bne	30006a5c <__pow5mult+0x58>
30006a38:	e1b050c5 	asrs	r5, r5, #1
30006a3c:	0a000013 	beq	30006a90 <__pow5mult+0x8c>
30006a40:	e5976000 	ldr	r6, [r7]
30006a44:	e3560000 	cmp	r6, #0
30006a48:	11a00006 	movne	r0, r6
30006a4c:	0a000012 	beq	30006a9c <__pow5mult+0x98>
30006a50:	e1a07000 	mov	r7, r0
30006a54:	e3150001 	tst	r5, #1
30006a58:	0afffff6 	beq	30006a38 <__pow5mult+0x34>
30006a5c:	e1a01008 	mov	r1, r8
30006a60:	e1a02007 	mov	r2, r7
30006a64:	e1a00004 	mov	r0, r4
30006a68:	ebffff26 	bl	30006708 <__multiply>
30006a6c:	e3580000 	cmp	r8, #0
30006a70:	15982004 	ldrne	r2, [r8, #4]
30006a74:	1594304c 	ldrne	r3, [r4, #76]	; 0x4c
30006a78:	17931102 	ldrne	r1, [r3, r2, lsl #2]
30006a7c:	15881000 	strne	r1, [r8]
30006a80:	17838102 	strne	r8, [r3, r2, lsl #2]
30006a84:	e1b050c5 	asrs	r5, r5, #1
30006a88:	e1a08000 	mov	r8, r0
30006a8c:	1affffeb 	bne	30006a40 <__pow5mult+0x3c>
30006a90:	e1a00008 	mov	r0, r8
30006a94:	e8bd41f0 	pop	{r4, r5, r6, r7, r8, lr}
30006a98:	e12fff1e 	bx	lr
30006a9c:	e1a01007 	mov	r1, r7
30006aa0:	e1a02007 	mov	r2, r7
30006aa4:	e1a00004 	mov	r0, r4
30006aa8:	ebffff16 	bl	30006708 <__multiply>
30006aac:	e5870000 	str	r0, [r7]
30006ab0:	e5806000 	str	r6, [r0]
30006ab4:	e1a07000 	mov	r7, r0
30006ab8:	eaffffe5 	b	30006a54 <__pow5mult+0x50>
30006abc:	e59f2038 	ldr	r2, [pc, #56]	; 30006afc <__pow5mult+0xf8>
30006ac0:	e0823103 	add	r3, r2, r3, lsl #2
30006ac4:	e59320c4 	ldr	r2, [r3, #196]	; 0xc4
30006ac8:	e3a03000 	mov	r3, #0
30006acc:	ebffff93 	bl	30006920 <__multadd>
30006ad0:	e1a08000 	mov	r8, r0
30006ad4:	eaffffd0 	b	30006a1c <__pow5mult+0x18>
30006ad8:	e3a01e27 	mov	r1, #624	; 0x270
30006adc:	e2811001 	add	r1, r1, #1
30006ae0:	e1a00004 	mov	r0, r4
30006ae4:	ebffff84 	bl	300068fc <__i2b>
30006ae8:	e3a03000 	mov	r3, #0
30006aec:	e5840048 	str	r0, [r4, #72]	; 0x48
30006af0:	e1a07000 	mov	r7, r0
30006af4:	e5803000 	str	r3, [r0]
30006af8:	eaffffcc 	b	30006a30 <__pow5mult+0x2c>
30006afc:	30008b30 	andcc	r8, r0, r0, lsr fp

30006b00 <__s2b>:
30006b00:	e92d45f8 	push	{r3, r4, r5, r6, r7, r8, sl, lr}
30006b04:	e283c008 	add	ip, r3, #8
30006b08:	e1a06003 	mov	r6, r3
30006b0c:	e59f30d0 	ldr	r3, [pc, #208]	; 30006be4 <__s2b+0xe4>
30006b10:	e0c3e39c 	smull	lr, r3, ip, r3
30006b14:	e1a0cfcc 	asr	ip, ip, #31
30006b18:	e06c30c3 	rsb	r3, ip, r3, asr #1
30006b1c:	e3530001 	cmp	r3, #1
30006b20:	e1a08001 	mov	r8, r1
30006b24:	e1a05000 	mov	r5, r0
30006b28:	e1a07002 	mov	r7, r2
30006b2c:	d3a01000 	movle	r1, #0
30006b30:	da000005 	ble	30006b4c <__s2b+0x4c>
30006b34:	e3a02001 	mov	r2, #1
30006b38:	e3a01000 	mov	r1, #0
30006b3c:	e1a02082 	lsl	r2, r2, #1
30006b40:	e1530002 	cmp	r3, r2
30006b44:	e2811001 	add	r1, r1, #1
30006b48:	cafffffb 	bgt	30006b3c <__s2b+0x3c>
30006b4c:	e1a00005 	mov	r0, r5
30006b50:	ebfffde1 	bl	300062dc <_Balloc>
30006b54:	e59d3020 	ldr	r3, [sp, #32]
30006b58:	e3570009 	cmp	r7, #9
30006b5c:	e5803014 	str	r3, [r0, #20]
30006b60:	e3a03001 	mov	r3, #1
30006b64:	e5803010 	str	r3, [r0, #16]
30006b68:	d288800a 	addle	r8, r8, #10
30006b6c:	d3a07009 	movle	r7, #9
30006b70:	da00000c 	ble	30006ba8 <__s2b+0xa8>
30006b74:	e288a009 	add	sl, r8, #9
30006b78:	e3a04009 	mov	r4, #9
30006b7c:	e7d83004 	ldrb	r3, [r8, r4]
30006b80:	e1a01000 	mov	r1, r0
30006b84:	e2433030 	sub	r3, r3, #48	; 0x30
30006b88:	e2844001 	add	r4, r4, #1
30006b8c:	e1a00005 	mov	r0, r5
30006b90:	e3a0200a 	mov	r2, #10
30006b94:	ebffff61 	bl	30006920 <__multadd>
30006b98:	e1570004 	cmp	r7, r4
30006b9c:	cafffff6 	bgt	30006b7c <__s2b+0x7c>
30006ba0:	e08a8007 	add	r8, sl, r7
30006ba4:	e2488008 	sub	r8, r8, #8
30006ba8:	e1560007 	cmp	r6, r7
30006bac:	da00000a 	ble	30006bdc <__s2b+0xdc>
30006bb0:	e3a04000 	mov	r4, #0
30006bb4:	e7d83004 	ldrb	r3, [r8, r4]
30006bb8:	e1a01000 	mov	r1, r0
30006bbc:	e2433030 	sub	r3, r3, #48	; 0x30
30006bc0:	e2844001 	add	r4, r4, #1
30006bc4:	e1a00005 	mov	r0, r5
30006bc8:	e3a0200a 	mov	r2, #10
30006bcc:	ebffff53 	bl	30006920 <__multadd>
30006bd0:	e0843007 	add	r3, r4, r7
30006bd4:	e1560003 	cmp	r6, r3
30006bd8:	cafffff5 	bgt	30006bb4 <__s2b+0xb4>
30006bdc:	e8bd45f8 	pop	{r3, r4, r5, r6, r7, r8, sl, lr}
30006be0:	e12fff1e 	bx	lr
30006be4:	38e38e39 	stmiacc	r3!, {r0, r3, r4, r5, r9, sl, fp, pc}^

30006be8 <_realloc_r>:
30006be8:	e92d4ff0 	push	{r4, r5, r6, r7, r8, r9, sl, fp, lr}
30006bec:	e2516000 	subs	r6, r1, #0
30006bf0:	e24dd00c 	sub	sp, sp, #12
30006bf4:	e1a07000 	mov	r7, r0
30006bf8:	0a0000cd 	beq	30006f34 <_realloc_r+0x34c>
30006bfc:	e58d2004 	str	r2, [sp, #4]
30006c00:	ebfffc90 	bl	30005e48 <__malloc_lock>
30006c04:	e59d2004 	ldr	r2, [sp, #4]
30006c08:	e282400b 	add	r4, r2, #11
30006c0c:	e3540016 	cmp	r4, #22
30006c10:	83c44007 	bichi	r4, r4, #7
30006c14:	93a00010 	movls	r0, #16
30006c18:	93a03000 	movls	r3, #0
30006c1c:	91a04000 	movls	r4, r0
30006c20:	81a03fa4 	lsrhi	r3, r4, #31
30006c24:	81a00004 	movhi	r0, r4
30006c28:	e246a008 	sub	sl, r6, #8
30006c2c:	e1540002 	cmp	r4, r2
30006c30:	33833001 	orrcc	r3, r3, #1
30006c34:	e3530000 	cmp	r3, #0
30006c38:	e59ac004 	ldr	ip, [sl, #4]
30006c3c:	13a0300c 	movne	r3, #12
30006c40:	e1a0100c 	mov	r1, ip
30006c44:	15873000 	strne	r3, [r7]
30006c48:	13a05000 	movne	r5, #0
30006c4c:	1a00005e 	bne	30006dcc <_realloc_r+0x1e4>
30006c50:	e3cc9003 	bic	r9, ip, #3
30006c54:	e1590000 	cmp	r9, r0
30006c58:	a1a0300a 	movge	r3, sl
30006c5c:	a1a05009 	movge	r5, r9
30006c60:	a28aa008 	addge	sl, sl, #8
30006c64:	aa00004b 	bge	30006d98 <_realloc_r+0x1b0>
30006c68:	e59fb468 	ldr	fp, [pc, #1128]	; 300070d8 <_realloc_r+0x4f0>
30006c6c:	e59be008 	ldr	lr, [fp, #8]
30006c70:	e08a1009 	add	r1, sl, r9
30006c74:	e15e0001 	cmp	lr, r1
30006c78:	0a0000b1 	beq	30006f44 <_realloc_r+0x35c>
30006c7c:	e5915004 	ldr	r5, [r1, #4]
30006c80:	e3c58001 	bic	r8, r5, #1
30006c84:	e0818008 	add	r8, r1, r8
30006c88:	e5988004 	ldr	r8, [r8, #4]
30006c8c:	e3180001 	tst	r8, #1
30006c90:	0a00005e 	beq	30006e10 <_realloc_r+0x228>
30006c94:	e1a01003 	mov	r1, r3
30006c98:	e31c0001 	tst	ip, #1
30006c9c:	1a00006a 	bne	30006e4c <_realloc_r+0x264>
30006ca0:	e5168008 	ldr	r8, [r6, #-8]
30006ca4:	e068800a 	rsb	r8, r8, sl
30006ca8:	e5985004 	ldr	r5, [r8, #4]
30006cac:	e3510000 	cmp	r1, #0
30006cb0:	e3c55003 	bic	r5, r5, #3
30006cb4:	0a000061 	beq	30006e40 <_realloc_r+0x258>
30006cb8:	e151000e 	cmp	r1, lr
30006cbc:	0a0000bd 	beq	30006fb8 <_realloc_r+0x3d0>
30006cc0:	e085c009 	add	ip, r5, r9
30006cc4:	e083500c 	add	r5, r3, ip
30006cc8:	e1550000 	cmp	r5, r0
30006ccc:	b1a0500c 	movlt	r5, ip
30006cd0:	ba00005b 	blt	30006e44 <_realloc_r+0x25c>
30006cd4:	e5913008 	ldr	r3, [r1, #8]
30006cd8:	e591200c 	ldr	r2, [r1, #12]
30006cdc:	e5823008 	str	r3, [r2, #8]
30006ce0:	e583200c 	str	r2, [r3, #12]
30006ce4:	e1a0a008 	mov	sl, r8
30006ce8:	e598100c 	ldr	r1, [r8, #12]
30006cec:	e5ba3008 	ldr	r3, [sl, #8]!
30006cf0:	e2492004 	sub	r2, r9, #4
30006cf4:	e3520024 	cmp	r2, #36	; 0x24
30006cf8:	e5813008 	str	r3, [r1, #8]
30006cfc:	e583100c 	str	r1, [r3, #12]
30006d00:	8a0000a6 	bhi	30006fa0 <_realloc_r+0x3b8>
30006d04:	e3520013 	cmp	r2, #19
30006d08:	e1a0100a 	mov	r1, sl
30006d0c:	9a000017 	bls	30006d70 <_realloc_r+0x188>
30006d10:	e1a03006 	mov	r3, r6
30006d14:	e4931004 	ldr	r1, [r3], #4
30006d18:	e5881008 	str	r1, [r8, #8]
30006d1c:	e5961004 	ldr	r1, [r6, #4]
30006d20:	e352001b 	cmp	r2, #27
30006d24:	e588100c 	str	r1, [r8, #12]
30006d28:	e2836004 	add	r6, r3, #4
30006d2c:	e2881010 	add	r1, r8, #16
30006d30:	9a00000e 	bls	30006d70 <_realloc_r+0x188>
30006d34:	e5933004 	ldr	r3, [r3, #4]
30006d38:	e5883010 	str	r3, [r8, #16]
30006d3c:	e5961004 	ldr	r1, [r6, #4]
30006d40:	e2863004 	add	r3, r6, #4
30006d44:	e3520024 	cmp	r2, #36	; 0x24
30006d48:	e5881014 	str	r1, [r8, #20]
30006d4c:	e2836004 	add	r6, r3, #4
30006d50:	e2881018 	add	r1, r8, #24
30006d54:	1a000005 	bne	30006d70 <_realloc_r+0x188>
30006d58:	e5933004 	ldr	r3, [r3, #4]
30006d5c:	e5883018 	str	r3, [r8, #24]
30006d60:	e5963004 	ldr	r3, [r6, #4]
30006d64:	e588301c 	str	r3, [r8, #28]
30006d68:	e2866008 	add	r6, r6, #8
30006d6c:	e2881020 	add	r1, r8, #32
30006d70:	e1a02006 	mov	r2, r6
30006d74:	e4920004 	ldr	r0, [r2], #4
30006d78:	e1a03001 	mov	r3, r1
30006d7c:	e4830004 	str	r0, [r3], #4
30006d80:	e5960004 	ldr	r0, [r6, #4]
30006d84:	e5810004 	str	r0, [r1, #4]
30006d88:	e5922004 	ldr	r2, [r2, #4]
30006d8c:	e5832004 	str	r2, [r3, #4]
30006d90:	e5981004 	ldr	r1, [r8, #4]
30006d94:	e1a03008 	mov	r3, r8
30006d98:	e0642005 	rsb	r2, r4, r5
30006d9c:	e352000f 	cmp	r2, #15
30006da0:	e2011001 	and	r1, r1, #1
30006da4:	8a00000c 	bhi	30006ddc <_realloc_r+0x1f4>
30006da8:	e1811005 	orr	r1, r1, r5
30006dac:	e5831004 	str	r1, [r3, #4]
30006db0:	e0835005 	add	r5, r3, r5
30006db4:	e5953004 	ldr	r3, [r5, #4]
30006db8:	e3833001 	orr	r3, r3, #1
30006dbc:	e5853004 	str	r3, [r5, #4]
30006dc0:	e1a00007 	mov	r0, r7
30006dc4:	ebfffc20 	bl	30005e4c <__malloc_unlock>
30006dc8:	e1a0500a 	mov	r5, sl
30006dcc:	e1a00005 	mov	r0, r5
30006dd0:	e28dd00c 	add	sp, sp, #12
30006dd4:	e8bd4ff0 	pop	{r4, r5, r6, r7, r8, r9, sl, fp, lr}
30006dd8:	e12fff1e 	bx	lr
30006ddc:	e1811004 	orr	r1, r1, r4
30006de0:	e3820001 	orr	r0, r2, #1
30006de4:	e0834004 	add	r4, r3, r4
30006de8:	e5831004 	str	r1, [r3, #4]
30006dec:	e5840004 	str	r0, [r4, #4]
30006df0:	e0842002 	add	r2, r4, r2
30006df4:	e5923004 	ldr	r3, [r2, #4]
30006df8:	e3833001 	orr	r3, r3, #1
30006dfc:	e5823004 	str	r3, [r2, #4]
30006e00:	e2841008 	add	r1, r4, #8
30006e04:	e1a00007 	mov	r0, r7
30006e08:	ebfff8a7 	bl	300050ac <_free_r>
30006e0c:	eaffffeb 	b	30006dc0 <_realloc_r+0x1d8>
30006e10:	e3c53003 	bic	r3, r5, #3
30006e14:	e0835009 	add	r5, r3, r9
30006e18:	e1550000 	cmp	r5, r0
30006e1c:	baffff9d 	blt	30006c98 <_realloc_r+0xb0>
30006e20:	e5913008 	ldr	r3, [r1, #8]
30006e24:	e591200c 	ldr	r2, [r1, #12]
30006e28:	e1a0100c 	mov	r1, ip
30006e2c:	e5823008 	str	r3, [r2, #8]
30006e30:	e583200c 	str	r2, [r3, #12]
30006e34:	e1a0300a 	mov	r3, sl
30006e38:	e28aa008 	add	sl, sl, #8
30006e3c:	eaffffd5 	b	30006d98 <_realloc_r+0x1b0>
30006e40:	e0855009 	add	r5, r5, r9
30006e44:	e1550000 	cmp	r5, r0
30006e48:	aaffffa5 	bge	30006ce4 <_realloc_r+0xfc>
30006e4c:	e1a01002 	mov	r1, r2
30006e50:	e1a00007 	mov	r0, r7
30006e54:	ebfff931 	bl	30005320 <_malloc_r>
30006e58:	e2505000 	subs	r5, r0, #0
30006e5c:	0a000031 	beq	30006f28 <_realloc_r+0x340>
30006e60:	e59a1004 	ldr	r1, [sl, #4]
30006e64:	e3c12001 	bic	r2, r1, #1
30006e68:	e08a2002 	add	r2, sl, r2
30006e6c:	e2453008 	sub	r3, r5, #8
30006e70:	e1530002 	cmp	r3, r2
30006e74:	0a00008b 	beq	300070a8 <_realloc_r+0x4c0>
30006e78:	e2492004 	sub	r2, r9, #4
30006e7c:	e3520024 	cmp	r2, #36	; 0x24
30006e80:	8a000043 	bhi	30006f94 <_realloc_r+0x3ac>
30006e84:	e3520013 	cmp	r2, #19
30006e88:	e1a01006 	mov	r1, r6
30006e8c:	e1a03005 	mov	r3, r5
30006e90:	9a000019 	bls	30006efc <_realloc_r+0x314>
30006e94:	e1a0c006 	mov	ip, r6
30006e98:	e49c3004 	ldr	r3, [ip], #4
30006e9c:	e1a00005 	mov	r0, r5
30006ea0:	e4803004 	str	r3, [r0], #4
30006ea4:	e5963004 	ldr	r3, [r6, #4]
30006ea8:	e352001b 	cmp	r2, #27
30006eac:	e5853004 	str	r3, [r5, #4]
30006eb0:	e28c1004 	add	r1, ip, #4
30006eb4:	e2803004 	add	r3, r0, #4
30006eb8:	9a00000f 	bls	30006efc <_realloc_r+0x314>
30006ebc:	e59cc004 	ldr	ip, [ip, #4]
30006ec0:	e580c004 	str	ip, [r0, #4]
30006ec4:	e591c004 	ldr	ip, [r1, #4]
30006ec8:	e3520024 	cmp	r2, #36	; 0x24
30006ecc:	e2810004 	add	r0, r1, #4
30006ed0:	e2832004 	add	r2, r3, #4
30006ed4:	e583c004 	str	ip, [r3, #4]
30006ed8:	e2801004 	add	r1, r0, #4
30006edc:	e2823004 	add	r3, r2, #4
30006ee0:	1a000005 	bne	30006efc <_realloc_r+0x314>
30006ee4:	e5900004 	ldr	r0, [r0, #4]
30006ee8:	e5820004 	str	r0, [r2, #4]
30006eec:	e5912004 	ldr	r2, [r1, #4]
30006ef0:	e2811008 	add	r1, r1, #8
30006ef4:	e5832004 	str	r2, [r3, #4]
30006ef8:	e2833008 	add	r3, r3, #8
30006efc:	e1a00001 	mov	r0, r1
30006f00:	e490c004 	ldr	ip, [r0], #4
30006f04:	e1a02003 	mov	r2, r3
30006f08:	e482c004 	str	ip, [r2], #4
30006f0c:	e5911004 	ldr	r1, [r1, #4]
30006f10:	e5831004 	str	r1, [r3, #4]
30006f14:	e5903004 	ldr	r3, [r0, #4]
30006f18:	e5823004 	str	r3, [r2, #4]
30006f1c:	e1a01006 	mov	r1, r6
30006f20:	e1a00007 	mov	r0, r7
30006f24:	ebfff860 	bl	300050ac <_free_r>
30006f28:	e1a00007 	mov	r0, r7
30006f2c:	ebfffbc6 	bl	30005e4c <__malloc_unlock>
30006f30:	eaffffa5 	b	30006dcc <_realloc_r+0x1e4>
30006f34:	e1a01002 	mov	r1, r2
30006f38:	ebfff8f8 	bl	30005320 <_malloc_r>
30006f3c:	e1a05000 	mov	r5, r0
30006f40:	eaffffa1 	b	30006dcc <_realloc_r+0x1e4>
30006f44:	e59e3004 	ldr	r3, [lr, #4]
30006f48:	e3c33003 	bic	r3, r3, #3
30006f4c:	e0831009 	add	r1, r3, r9
30006f50:	e2845010 	add	r5, r4, #16
30006f54:	e1510005 	cmp	r1, r5
30006f58:	b1a0100e 	movlt	r1, lr
30006f5c:	baffff4d 	blt	30006c98 <_realloc_r+0xb0>
30006f60:	e0642001 	rsb	r2, r4, r1
30006f64:	e08a3004 	add	r3, sl, r4
30006f68:	e3822001 	orr	r2, r2, #1
30006f6c:	e5832004 	str	r2, [r3, #4]
30006f70:	e59a2004 	ldr	r2, [sl, #4]
30006f74:	e2022001 	and	r2, r2, #1
30006f78:	e1844002 	orr	r4, r4, r2
30006f7c:	e58a4004 	str	r4, [sl, #4]
30006f80:	e1a00007 	mov	r0, r7
30006f84:	e58b3008 	str	r3, [fp, #8]
30006f88:	e1a05006 	mov	r5, r6
30006f8c:	ebfffbae 	bl	30005e4c <__malloc_unlock>
30006f90:	eaffff8d 	b	30006dcc <_realloc_r+0x1e4>
30006f94:	e1a01006 	mov	r1, r6
30006f98:	ebfffb5d 	bl	30005d14 <memmove>
30006f9c:	eaffffde 	b	30006f1c <_realloc_r+0x334>
30006fa0:	e1a01006 	mov	r1, r6
30006fa4:	e1a0000a 	mov	r0, sl
30006fa8:	ebfffb59 	bl	30005d14 <memmove>
30006fac:	e1a03008 	mov	r3, r8
30006fb0:	e5981004 	ldr	r1, [r8, #4]
30006fb4:	eaffff77 	b	30006d98 <_realloc_r+0x1b0>
30006fb8:	e0855009 	add	r5, r5, r9
30006fbc:	e0833005 	add	r3, r3, r5
30006fc0:	e2841010 	add	r1, r4, #16
30006fc4:	e1530001 	cmp	r3, r1
30006fc8:	baffff9d 	blt	30006e44 <_realloc_r+0x25c>
30006fcc:	e1a05008 	mov	r5, r8
30006fd0:	e598000c 	ldr	r0, [r8, #12]
30006fd4:	e5b51008 	ldr	r1, [r5, #8]!
30006fd8:	e2492004 	sub	r2, r9, #4
30006fdc:	e3520024 	cmp	r2, #36	; 0x24
30006fe0:	e5801008 	str	r1, [r0, #8]
30006fe4:	e581000c 	str	r0, [r1, #12]
30006fe8:	8a000034 	bhi	300070c0 <_realloc_r+0x4d8>
30006fec:	e3520013 	cmp	r2, #19
30006ff0:	e1a00005 	mov	r0, r5
30006ff4:	9a000017 	bls	30007058 <_realloc_r+0x470>
30006ff8:	e1a01006 	mov	r1, r6
30006ffc:	e4910004 	ldr	r0, [r1], #4
30007000:	e5880008 	str	r0, [r8, #8]
30007004:	e5960004 	ldr	r0, [r6, #4]
30007008:	e352001b 	cmp	r2, #27
3000700c:	e588000c 	str	r0, [r8, #12]
30007010:	e2816004 	add	r6, r1, #4
30007014:	e2880010 	add	r0, r8, #16
30007018:	9a00000e 	bls	30007058 <_realloc_r+0x470>
3000701c:	e5911004 	ldr	r1, [r1, #4]
30007020:	e5881010 	str	r1, [r8, #16]
30007024:	e5961004 	ldr	r1, [r6, #4]
30007028:	e3520024 	cmp	r2, #36	; 0x24
3000702c:	e2862004 	add	r2, r6, #4
30007030:	e5881014 	str	r1, [r8, #20]
30007034:	e2880018 	add	r0, r8, #24
30007038:	e2826004 	add	r6, r2, #4
3000703c:	1a000005 	bne	30007058 <_realloc_r+0x470>
30007040:	e5922004 	ldr	r2, [r2, #4]
30007044:	e5882018 	str	r2, [r8, #24]
30007048:	e5962004 	ldr	r2, [r6, #4]
3000704c:	e588201c 	str	r2, [r8, #28]
30007050:	e2866008 	add	r6, r6, #8
30007054:	e2880020 	add	r0, r8, #32
30007058:	e1a01006 	mov	r1, r6
3000705c:	e491c004 	ldr	ip, [r1], #4
30007060:	e1a02000 	mov	r2, r0
30007064:	e482c004 	str	ip, [r2], #4
30007068:	e596c004 	ldr	ip, [r6, #4]
3000706c:	e580c004 	str	ip, [r0, #4]
30007070:	e5911004 	ldr	r1, [r1, #4]
30007074:	e5821004 	str	r1, [r2, #4]
30007078:	e0643003 	rsb	r3, r4, r3
3000707c:	e3832001 	orr	r2, r3, #1
30007080:	e0883004 	add	r3, r8, r4
30007084:	e5832004 	str	r2, [r3, #4]
30007088:	e5982004 	ldr	r2, [r8, #4]
3000708c:	e2022001 	and	r2, r2, #1
30007090:	e1844002 	orr	r4, r4, r2
30007094:	e5884004 	str	r4, [r8, #4]
30007098:	e1a00007 	mov	r0, r7
3000709c:	e58b3008 	str	r3, [fp, #8]
300070a0:	ebfffb69 	bl	30005e4c <__malloc_unlock>
300070a4:	eaffff48 	b	30006dcc <_realloc_r+0x1e4>
300070a8:	e5935004 	ldr	r5, [r3, #4]
300070ac:	e3c55003 	bic	r5, r5, #3
300070b0:	e1a0300a 	mov	r3, sl
300070b4:	e0855009 	add	r5, r5, r9
300070b8:	e28aa008 	add	sl, sl, #8
300070bc:	eaffff35 	b	30006d98 <_realloc_r+0x1b0>
300070c0:	e1a01006 	mov	r1, r6
300070c4:	e1a00005 	mov	r0, r5
300070c8:	e58d3004 	str	r3, [sp, #4]
300070cc:	ebfffb10 	bl	30005d14 <memmove>
300070d0:	e59d3004 	ldr	r3, [sp, #4]
300070d4:	eaffffe7 	b	30007078 <_realloc_r+0x490>
300070d8:	30009170 	andcc	r9, r0, r0, ror r1

300070dc <__isinfd>:
300070dc:	e1a03001 	mov	r3, r1
300070e0:	e2601000 	rsb	r1, r0, #0
300070e4:	e1811000 	orr	r1, r1, r0
300070e8:	e3c32102 	bic	r2, r3, #-2147483648	; 0x80000000
300070ec:	e1823fa1 	orr	r3, r2, r1, lsr #31
300070f0:	e263347f 	rsb	r3, r3, #2130706432	; 0x7f000000
300070f4:	e283360f 	add	r3, r3, #15728640	; 0xf00000
300070f8:	e2630000 	rsb	r0, r3, #0
300070fc:	e1803003 	orr	r3, r0, r3
30007100:	e1a00fc3 	asr	r0, r3, #31
30007104:	e2800001 	add	r0, r0, #1
30007108:	e12fff1e 	bx	lr

3000710c <__isnand>:
3000710c:	e1a03000 	mov	r3, r0
30007110:	e2600000 	rsb	r0, r0, #0
30007114:	e1800003 	orr	r0, r0, r3
30007118:	e3c13102 	bic	r3, r1, #-2147483648	; 0x80000000
3000711c:	e1830fa0 	orr	r0, r3, r0, lsr #31
30007120:	e260047f 	rsb	r0, r0, #2130706432	; 0x7f000000
30007124:	e280060f 	add	r0, r0, #15728640	; 0xf00000
30007128:	e52d4004 	push	{r4}		; (str r4, [sp, #-4]!)
3000712c:	e1a00fa0 	lsr	r0, r0, #31
30007130:	e1a04001 	mov	r4, r1
30007134:	e49d4004 	pop	{r4}		; (ldr r4, [sp], #4)
30007138:	e12fff1e 	bx	lr

3000713c <_sbrk_r>:
3000713c:	e92d4038 	push	{r3, r4, r5, lr}
30007140:	e59f4030 	ldr	r4, [pc, #48]	; 30007178 <_sbrk_r+0x3c>
30007144:	e3a03000 	mov	r3, #0
30007148:	e1a05000 	mov	r5, r0
3000714c:	e1a00001 	mov	r0, r1
30007150:	e5843000 	str	r3, [r4]
30007154:	ebffe7fc 	bl	3000114c <_sbrk>
30007158:	e3700001 	cmn	r0, #1
3000715c:	0a000001 	beq	30007168 <_sbrk_r+0x2c>
30007160:	e8bd4038 	pop	{r3, r4, r5, lr}
30007164:	e12fff1e 	bx	lr
30007168:	e5943000 	ldr	r3, [r4]
3000716c:	e3530000 	cmp	r3, #0
30007170:	15853000 	strne	r3, [r5]
30007174:	eafffff9 	b	30007160 <_sbrk_r+0x24>
30007178:	300095c0 	andcc	r9, r0, r0, asr #11

3000717c <strlen>:
3000717c:	e3c01003 	bic	r1, r0, #3
30007180:	e2100003 	ands	r0, r0, #3
30007184:	e2600000 	rsb	r0, r0, #0
30007188:	e4913004 	ldr	r3, [r1], #4
3000718c:	e280c004 	add	ip, r0, #4
30007190:	e1a0c18c 	lsl	ip, ip, #3
30007194:	e3e02000 	mvn	r2, #0
30007198:	11833c32 	orrne	r3, r3, r2, lsr ip
3000719c:	e3a0c001 	mov	ip, #1
300071a0:	e18cc40c 	orr	ip, ip, ip, lsl #8
300071a4:	e18cc80c 	orr	ip, ip, ip, lsl #16
300071a8:	e043200c 	sub	r2, r3, ip
300071ac:	e1c22003 	bic	r2, r2, r3
300071b0:	e012238c 	ands	r2, r2, ip, lsl #7
300071b4:	04913004 	ldreq	r3, [r1], #4
300071b8:	02800004 	addeq	r0, r0, #4
300071bc:	0afffff9 	beq	300071a8 <strlen+0x2c>
300071c0:	e31300ff 	tst	r3, #255	; 0xff
300071c4:	12800001 	addne	r0, r0, #1
300071c8:	13130cff 	tstne	r3, #65280	; 0xff00
300071cc:	12800001 	addne	r0, r0, #1
300071d0:	131308ff 	tstne	r3, #16711680	; 0xff0000
300071d4:	12800001 	addne	r0, r0, #1
300071d8:	e12fff1e 	bx	lr

300071dc <_calloc_r>:
300071dc:	e92d4010 	push	{r4, lr}
300071e0:	e0010192 	mul	r1, r2, r1
300071e4:	ebfff84d 	bl	30005320 <_malloc_r>
300071e8:	e2504000 	subs	r4, r0, #0
300071ec:	0a00001b 	beq	30007260 <_calloc_r+0x84>
300071f0:	e5142004 	ldr	r2, [r4, #-4]
300071f4:	e3c22003 	bic	r2, r2, #3
300071f8:	e2422004 	sub	r2, r2, #4
300071fc:	e3520024 	cmp	r2, #36	; 0x24
30007200:	8a000019 	bhi	3000726c <_calloc_r+0x90>
30007204:	e3520013 	cmp	r2, #19
30007208:	e1a03004 	mov	r3, r4
3000720c:	9a00000e 	bls	3000724c <_calloc_r+0x70>
30007210:	e3a01000 	mov	r1, #0
30007214:	e1a00004 	mov	r0, r4
30007218:	e4801004 	str	r1, [r0], #4
3000721c:	e352001b 	cmp	r2, #27
30007220:	e5841004 	str	r1, [r4, #4]
30007224:	e2803004 	add	r3, r0, #4
30007228:	9a000007 	bls	3000724c <_calloc_r+0x70>
3000722c:	e3520024 	cmp	r2, #36	; 0x24
30007230:	e2832004 	add	r2, r3, #4
30007234:	e5801004 	str	r1, [r0, #4]
30007238:	e5831004 	str	r1, [r3, #4]
3000723c:	e2823004 	add	r3, r2, #4
30007240:	05821004 	streq	r1, [r2, #4]
30007244:	05831004 	streq	r1, [r3, #4]
30007248:	02833008 	addeq	r3, r3, #8
3000724c:	e3a01000 	mov	r1, #0
30007250:	e1a02003 	mov	r2, r3
30007254:	e4821004 	str	r1, [r2], #4
30007258:	e5831004 	str	r1, [r3, #4]
3000725c:	e5821004 	str	r1, [r2, #4]
30007260:	e1a00004 	mov	r0, r4
30007264:	e8bd4010 	pop	{r4, lr}
30007268:	e12fff1e 	bx	lr
3000726c:	e3a01000 	mov	r1, #0
30007270:	eb000000 	bl	30007278 <memset>
30007274:	eafffff9 	b	30007260 <_calloc_r+0x84>

30007278 <memset>:
30007278:	e3520003 	cmp	r2, #3
3000727c:	e92d0030 	push	{r4, r5}
30007280:	e20110ff 	and	r1, r1, #255	; 0xff
30007284:	8a000008 	bhi	300072ac <memset+0x34>
30007288:	e3520000 	cmp	r2, #0
3000728c:	0a000004 	beq	300072a4 <memset+0x2c>
30007290:	e3a03000 	mov	r3, #0
30007294:	e7c01003 	strb	r1, [r0, r3]
30007298:	e2833001 	add	r3, r3, #1
3000729c:	e1530002 	cmp	r3, r2
300072a0:	1afffffb 	bne	30007294 <memset+0x1c>
300072a4:	e8bd0030 	pop	{r4, r5}
300072a8:	e12fff1e 	bx	lr
300072ac:	e0802002 	add	r2, r0, r2
300072b0:	e1a03000 	mov	r3, r0
300072b4:	ea000000 	b	300072bc <memset+0x44>
300072b8:	e5431001 	strb	r1, [r3, #-1]
300072bc:	e203c003 	and	ip, r3, #3
300072c0:	e35c0000 	cmp	ip, #0
300072c4:	e1a0c003 	mov	ip, r3
300072c8:	e2833001 	add	r3, r3, #1
300072cc:	1afffff9 	bne	300072b8 <memset+0x40>
300072d0:	e3a03c01 	mov	r3, #256	; 0x100
300072d4:	e2833001 	add	r3, r3, #1
300072d8:	e1833803 	orr	r3, r3, r3, lsl #16
300072dc:	e0030391 	mul	r3, r1, r3
300072e0:	e06c4002 	rsb	r4, ip, r2
300072e4:	ea000010 	b	3000732c <memset+0xb4>
300072e8:	e50c3040 	str	r3, [ip, #-64]	; 0x40
300072ec:	e50c303c 	str	r3, [ip, #-60]	; 0x3c
300072f0:	e50c3038 	str	r3, [ip, #-56]	; 0x38
300072f4:	e50c3034 	str	r3, [ip, #-52]	; 0x34
300072f8:	e50c3030 	str	r3, [ip, #-48]	; 0x30
300072fc:	e50c302c 	str	r3, [ip, #-44]	; 0x2c
30007300:	e50c3028 	str	r3, [ip, #-40]	; 0x28
30007304:	e50c3024 	str	r3, [ip, #-36]	; 0x24
30007308:	e50c3020 	str	r3, [ip, #-32]
3000730c:	e50c301c 	str	r3, [ip, #-28]
30007310:	e50c3018 	str	r3, [ip, #-24]
30007314:	e50c3014 	str	r3, [ip, #-20]
30007318:	e50c3010 	str	r3, [ip, #-16]
3000731c:	e50c300c 	str	r3, [ip, #-12]
30007320:	e50c3008 	str	r3, [ip, #-8]
30007324:	e50c3004 	str	r3, [ip, #-4]
30007328:	e2444040 	sub	r4, r4, #64	; 0x40
3000732c:	e354003f 	cmp	r4, #63	; 0x3f
30007330:	e1a0500c 	mov	r5, ip
30007334:	e28cc040 	add	ip, ip, #64	; 0x40
30007338:	caffffea 	bgt	300072e8 <memset+0x70>
3000733c:	e1a0c005 	mov	ip, r5
30007340:	e0654002 	rsb	r4, r5, r2
30007344:	ea000004 	b	3000735c <memset+0xe4>
30007348:	e50c3010 	str	r3, [ip, #-16]
3000734c:	e50c300c 	str	r3, [ip, #-12]
30007350:	e50c3008 	str	r3, [ip, #-8]
30007354:	e50c3004 	str	r3, [ip, #-4]
30007358:	e2444010 	sub	r4, r4, #16
3000735c:	e354000f 	cmp	r4, #15
30007360:	e1a0500c 	mov	r5, ip
30007364:	e28cc010 	add	ip, ip, #16
30007368:	cafffff6 	bgt	30007348 <memset+0xd0>
3000736c:	e1a0c005 	mov	ip, r5
30007370:	e0655002 	rsb	r5, r5, r2
30007374:	ea000001 	b	30007380 <memset+0x108>
30007378:	e50c3004 	str	r3, [ip, #-4]
3000737c:	e2455004 	sub	r5, r5, #4
30007380:	e3550003 	cmp	r5, #3
30007384:	e1a0400c 	mov	r4, ip
30007388:	e28cc004 	add	ip, ip, #4
3000738c:	cafffff9 	bgt	30007378 <memset+0x100>
30007390:	ea000000 	b	30007398 <memset+0x120>
30007394:	e4c41001 	strb	r1, [r4], #1
30007398:	e1540002 	cmp	r4, r2
3000739c:	3afffffc 	bcc	30007394 <memset+0x11c>
300073a0:	eaffffbf 	b	300072a4 <memset+0x2c>

300073a4 <_wrapup_reent>:
300073a4:	e92d40f8 	push	{r3, r4, r5, r6, r7, lr}
300073a8:	e2507000 	subs	r7, r0, #0
300073ac:	059f305c 	ldreq	r3, [pc, #92]	; 30007410 <_wrapup_reent+0x6c>
300073b0:	05937000 	ldreq	r7, [r3]
300073b4:	e5976148 	ldr	r6, [r7, #328]	; 0x148
300073b8:	e3560000 	cmp	r6, #0
300073bc:	0a00000c 	beq	300073f4 <_wrapup_reent+0x50>
300073c0:	e5965004 	ldr	r5, [r6, #4]
300073c4:	e2554001 	subs	r4, r5, #1
300073c8:	4a000006 	bmi	300073e8 <_wrapup_reent+0x44>
300073cc:	e2855002 	add	r5, r5, #2
300073d0:	e0865105 	add	r5, r6, r5, lsl #2
300073d4:	e5353004 	ldr	r3, [r5, #-4]!
300073d8:	e1a0e00f 	mov	lr, pc
300073dc:	e12fff13 	bx	r3
300073e0:	e2544001 	subs	r4, r4, #1
300073e4:	5afffffa 	bpl	300073d4 <_wrapup_reent+0x30>
300073e8:	e5966000 	ldr	r6, [r6]
300073ec:	e3560000 	cmp	r6, #0
300073f0:	1afffff2 	bne	300073c0 <_wrapup_reent+0x1c>
300073f4:	e597303c 	ldr	r3, [r7, #60]	; 0x3c
300073f8:	e3530000 	cmp	r3, #0
300073fc:	11a00007 	movne	r0, r7
30007400:	11a0e00f 	movne	lr, pc
30007404:	112fff13 	bxne	r3
30007408:	e8bd40f8 	pop	{r3, r4, r5, r6, r7, lr}
3000740c:	e12fff1e 	bx	lr
30007410:	30008d40 	andcc	r8, r0, r0, asr #26

30007414 <cleanup_glue>:
30007414:	e92d4038 	push	{r3, r4, r5, lr}
30007418:	e1a04001 	mov	r4, r1
3000741c:	e5911000 	ldr	r1, [r1]
30007420:	e3510000 	cmp	r1, #0
30007424:	e1a05000 	mov	r5, r0
30007428:	1bfffff9 	blne	30007414 <cleanup_glue>
3000742c:	e1a00005 	mov	r0, r5
30007430:	e1a01004 	mov	r1, r4
30007434:	ebfff71c 	bl	300050ac <_free_r>
30007438:	e8bd4038 	pop	{r3, r4, r5, lr}
3000743c:	e12fff1e 	bx	lr

30007440 <_reclaim_reent>:
30007440:	e59f30ec 	ldr	r3, [pc, #236]	; 30007534 <_reclaim_reent+0xf4>
30007444:	e5933000 	ldr	r3, [r3]
30007448:	e1500003 	cmp	r0, r3
3000744c:	e92d4070 	push	{r4, r5, r6, lr}
30007450:	e1a05000 	mov	r5, r0
30007454:	0a00002a 	beq	30007504 <_reclaim_reent+0xc4>
30007458:	e590304c 	ldr	r3, [r0, #76]	; 0x4c
3000745c:	e3530000 	cmp	r3, #0
30007460:	0a00000f 	beq	300074a4 <_reclaim_reent+0x64>
30007464:	e3a06000 	mov	r6, #0
30007468:	e7931006 	ldr	r1, [r3, r6]
3000746c:	e3510000 	cmp	r1, #0
30007470:	0a000005 	beq	3000748c <_reclaim_reent+0x4c>
30007474:	e5914000 	ldr	r4, [r1]
30007478:	e1a00005 	mov	r0, r5
3000747c:	ebfff70a 	bl	300050ac <_free_r>
30007480:	e2541000 	subs	r1, r4, #0
30007484:	1afffffa 	bne	30007474 <_reclaim_reent+0x34>
30007488:	e595304c 	ldr	r3, [r5, #76]	; 0x4c
3000748c:	e2866004 	add	r6, r6, #4
30007490:	e356003c 	cmp	r6, #60	; 0x3c
30007494:	1afffff3 	bne	30007468 <_reclaim_reent+0x28>
30007498:	e1a01003 	mov	r1, r3
3000749c:	e1a00005 	mov	r0, r5
300074a0:	ebfff701 	bl	300050ac <_free_r>
300074a4:	e5951040 	ldr	r1, [r5, #64]	; 0x40
300074a8:	e3510000 	cmp	r1, #0
300074ac:	11a00005 	movne	r0, r5
300074b0:	1bfff6fd 	blne	300050ac <_free_r>
300074b4:	e5951148 	ldr	r1, [r5, #328]	; 0x148
300074b8:	e3510000 	cmp	r1, #0
300074bc:	0a000009 	beq	300074e8 <_reclaim_reent+0xa8>
300074c0:	e2856f53 	add	r6, r5, #332	; 0x14c
300074c4:	e1510006 	cmp	r1, r6
300074c8:	1a000001 	bne	300074d4 <_reclaim_reent+0x94>
300074cc:	ea000005 	b	300074e8 <_reclaim_reent+0xa8>
300074d0:	e1a01004 	mov	r1, r4
300074d4:	e5914000 	ldr	r4, [r1]
300074d8:	e1a00005 	mov	r0, r5
300074dc:	ebfff6f2 	bl	300050ac <_free_r>
300074e0:	e1560004 	cmp	r6, r4
300074e4:	1afffff9 	bne	300074d0 <_reclaim_reent+0x90>
300074e8:	e5951054 	ldr	r1, [r5, #84]	; 0x54
300074ec:	e3510000 	cmp	r1, #0
300074f0:	11a00005 	movne	r0, r5
300074f4:	1bfff6ec 	blne	300050ac <_free_r>
300074f8:	e5953038 	ldr	r3, [r5, #56]	; 0x38
300074fc:	e3530000 	cmp	r3, #0
30007500:	1a000001 	bne	3000750c <_reclaim_reent+0xcc>
30007504:	e8bd4070 	pop	{r4, r5, r6, lr}
30007508:	e12fff1e 	bx	lr
3000750c:	e1a00005 	mov	r0, r5
30007510:	e595c03c 	ldr	ip, [r5, #60]	; 0x3c
30007514:	e1a0e00f 	mov	lr, pc
30007518:	e12fff1c 	bx	ip
3000751c:	e59512e0 	ldr	r1, [r5, #736]	; 0x2e0
30007520:	e3510000 	cmp	r1, #0
30007524:	0afffff6 	beq	30007504 <_reclaim_reent+0xc4>
30007528:	e1a00005 	mov	r0, r5
3000752c:	e8bd4070 	pop	{r4, r5, r6, lr}
30007530:	eaffffb7 	b	30007414 <cleanup_glue>
30007534:	30008d40 	andcc	r8, r0, r0, asr #26

30007538 <__aeabi_uidiv>:
30007538:	e2512001 	subs	r2, r1, #1
3000753c:	012fff1e 	bxeq	lr
30007540:	3a000036 	bcc	30007620 <__aeabi_uidiv+0xe8>
30007544:	e1500001 	cmp	r0, r1
30007548:	9a000022 	bls	300075d8 <__aeabi_uidiv+0xa0>
3000754c:	e1110002 	tst	r1, r2
30007550:	0a000023 	beq	300075e4 <__aeabi_uidiv+0xac>
30007554:	e311020e 	tst	r1, #-536870912	; 0xe0000000
30007558:	01a01181 	lsleq	r1, r1, #3
3000755c:	03a03008 	moveq	r3, #8
30007560:	13a03001 	movne	r3, #1
30007564:	e3510201 	cmp	r1, #268435456	; 0x10000000
30007568:	31510000 	cmpcc	r1, r0
3000756c:	31a01201 	lslcc	r1, r1, #4
30007570:	31a03203 	lslcc	r3, r3, #4
30007574:	3afffffa 	bcc	30007564 <__aeabi_uidiv+0x2c>
30007578:	e3510102 	cmp	r1, #-2147483648	; 0x80000000
3000757c:	31510000 	cmpcc	r1, r0
30007580:	31a01081 	lslcc	r1, r1, #1
30007584:	31a03083 	lslcc	r3, r3, #1
30007588:	3afffffa 	bcc	30007578 <__aeabi_uidiv+0x40>
3000758c:	e3a02000 	mov	r2, #0
30007590:	e1500001 	cmp	r0, r1
30007594:	20400001 	subcs	r0, r0, r1
30007598:	21822003 	orrcs	r2, r2, r3
3000759c:	e15000a1 	cmp	r0, r1, lsr #1
300075a0:	204000a1 	subcs	r0, r0, r1, lsr #1
300075a4:	218220a3 	orrcs	r2, r2, r3, lsr #1
300075a8:	e1500121 	cmp	r0, r1, lsr #2
300075ac:	20400121 	subcs	r0, r0, r1, lsr #2
300075b0:	21822123 	orrcs	r2, r2, r3, lsr #2
300075b4:	e15001a1 	cmp	r0, r1, lsr #3
300075b8:	204001a1 	subcs	r0, r0, r1, lsr #3
300075bc:	218221a3 	orrcs	r2, r2, r3, lsr #3
300075c0:	e3500000 	cmp	r0, #0
300075c4:	11b03223 	lsrsne	r3, r3, #4
300075c8:	11a01221 	lsrne	r1, r1, #4
300075cc:	1affffef 	bne	30007590 <__aeabi_uidiv+0x58>
300075d0:	e1a00002 	mov	r0, r2
300075d4:	e12fff1e 	bx	lr
300075d8:	03a00001 	moveq	r0, #1
300075dc:	13a00000 	movne	r0, #0
300075e0:	e12fff1e 	bx	lr
300075e4:	e3510801 	cmp	r1, #65536	; 0x10000
300075e8:	21a01821 	lsrcs	r1, r1, #16
300075ec:	23a02010 	movcs	r2, #16
300075f0:	33a02000 	movcc	r2, #0
300075f4:	e3510c01 	cmp	r1, #256	; 0x100
300075f8:	21a01421 	lsrcs	r1, r1, #8
300075fc:	22822008 	addcs	r2, r2, #8
30007600:	e3510010 	cmp	r1, #16
30007604:	21a01221 	lsrcs	r1, r1, #4
30007608:	22822004 	addcs	r2, r2, #4
3000760c:	e3510004 	cmp	r1, #4
30007610:	82822003 	addhi	r2, r2, #3
30007614:	908220a1 	addls	r2, r2, r1, lsr #1
30007618:	e1a00230 	lsr	r0, r0, r2
3000761c:	e12fff1e 	bx	lr
30007620:	e3500000 	cmp	r0, #0
30007624:	13e00000 	mvnne	r0, #0
30007628:	ea000007 	b	3000764c <__aeabi_idiv0>

3000762c <__aeabi_uidivmod>:
3000762c:	e3510000 	cmp	r1, #0
30007630:	0afffffa 	beq	30007620 <__aeabi_uidiv+0xe8>
30007634:	e92d4003 	push	{r0, r1, lr}
30007638:	ebffffbe 	bl	30007538 <__aeabi_uidiv>
3000763c:	e8bd4006 	pop	{r1, r2, lr}
30007640:	e0030092 	mul	r3, r2, r0
30007644:	e0411003 	sub	r1, r1, r3
30007648:	e12fff1e 	bx	lr

3000764c <__aeabi_idiv0>:
3000764c:	e12fff1e 	bx	lr

30007650 <__aeabi_drsub>:
30007650:	e2211102 	eor	r1, r1, #-2147483648	; 0x80000000
30007654:	ea000000 	b	3000765c <__adddf3>

30007658 <__aeabi_dsub>:
30007658:	e2233102 	eor	r3, r3, #-2147483648	; 0x80000000

3000765c <__adddf3>:
3000765c:	e92d4030 	push	{r4, r5, lr}
30007660:	e1a04081 	lsl	r4, r1, #1
30007664:	e1a05083 	lsl	r5, r3, #1
30007668:	e1340005 	teq	r4, r5
3000766c:	01300002 	teqeq	r0, r2
30007670:	1194c000 	orrsne	ip, r4, r0
30007674:	1195c002 	orrsne	ip, r5, r2
30007678:	11f0cac4 	mvnsne	ip, r4, asr #21
3000767c:	11f0cac5 	mvnsne	ip, r5, asr #21
30007680:	0a00008c 	beq	300078b8 <__adddf3+0x25c>
30007684:	e1a04aa4 	lsr	r4, r4, #21
30007688:	e0745aa5 	rsbs	r5, r4, r5, lsr #21
3000768c:	b2655000 	rsblt	r5, r5, #0
30007690:	da000006 	ble	300076b0 <__adddf3+0x54>
30007694:	e0844005 	add	r4, r4, r5
30007698:	e0202002 	eor	r2, r0, r2
3000769c:	e0213003 	eor	r3, r1, r3
300076a0:	e0220000 	eor	r0, r2, r0
300076a4:	e0231001 	eor	r1, r3, r1
300076a8:	e0202002 	eor	r2, r0, r2
300076ac:	e0213003 	eor	r3, r1, r3
300076b0:	e3550036 	cmp	r5, #54	; 0x36
300076b4:	88bd4030 	pophi	{r4, r5, lr}
300076b8:	812fff1e 	bxhi	lr
300076bc:	e3110102 	tst	r1, #-2147483648	; 0x80000000
300076c0:	e1a01601 	lsl	r1, r1, #12
300076c4:	e3a0c601 	mov	ip, #1048576	; 0x100000
300076c8:	e18c1621 	orr	r1, ip, r1, lsr #12
300076cc:	0a000001 	beq	300076d8 <__adddf3+0x7c>
300076d0:	e2700000 	rsbs	r0, r0, #0
300076d4:	e2e11000 	rsc	r1, r1, #0
300076d8:	e3130102 	tst	r3, #-2147483648	; 0x80000000
300076dc:	e1a03603 	lsl	r3, r3, #12
300076e0:	e18c3623 	orr	r3, ip, r3, lsr #12
300076e4:	0a000001 	beq	300076f0 <__adddf3+0x94>
300076e8:	e2722000 	rsbs	r2, r2, #0
300076ec:	e2e33000 	rsc	r3, r3, #0
300076f0:	e1340005 	teq	r4, r5
300076f4:	0a000069 	beq	300078a0 <__adddf3+0x244>
300076f8:	e2444001 	sub	r4, r4, #1
300076fc:	e275e020 	rsbs	lr, r5, #32
30007700:	ba000005 	blt	3000771c <__adddf3+0xc0>
30007704:	e1a0ce12 	lsl	ip, r2, lr
30007708:	e0900532 	adds	r0, r0, r2, lsr r5
3000770c:	e2a11000 	adc	r1, r1, #0
30007710:	e0900e13 	adds	r0, r0, r3, lsl lr
30007714:	e0b11553 	adcs	r1, r1, r3, asr r5
30007718:	ea000006 	b	30007738 <__adddf3+0xdc>
3000771c:	e2455020 	sub	r5, r5, #32
30007720:	e28ee020 	add	lr, lr, #32
30007724:	e3520001 	cmp	r2, #1
30007728:	e1a0ce13 	lsl	ip, r3, lr
3000772c:	238cc002 	orrcs	ip, ip, #2
30007730:	e0900553 	adds	r0, r0, r3, asr r5
30007734:	e0b11fc3 	adcs	r1, r1, r3, asr #31
30007738:	e2015102 	and	r5, r1, #-2147483648	; 0x80000000
3000773c:	5a000002 	bpl	3000774c <__adddf3+0xf0>
30007740:	e27cc000 	rsbs	ip, ip, #0
30007744:	e2f00000 	rscs	r0, r0, #0
30007748:	e2e11000 	rsc	r1, r1, #0
3000774c:	e3510601 	cmp	r1, #1048576	; 0x100000
30007750:	3a00000f 	bcc	30007794 <__adddf3+0x138>
30007754:	e3510602 	cmp	r1, #2097152	; 0x200000
30007758:	3a000006 	bcc	30007778 <__adddf3+0x11c>
3000775c:	e1b010a1 	lsrs	r1, r1, #1
30007760:	e1b00060 	rrxs	r0, r0
30007764:	e1a0c06c 	rrx	ip, ip
30007768:	e2844001 	add	r4, r4, #1
3000776c:	e1a02a84 	lsl	r2, r4, #21
30007770:	e3720501 	cmn	r2, #4194304	; 0x400000
30007774:	2a00006b 	bcs	30007928 <__adddf3+0x2cc>
30007778:	e35c0102 	cmp	ip, #-2147483648	; 0x80000000
3000777c:	01b0c0a0 	lsrseq	ip, r0, #1
30007780:	e2b00000 	adcs	r0, r0, #0
30007784:	e0a11a04 	adc	r1, r1, r4, lsl #20
30007788:	e1811005 	orr	r1, r1, r5
3000778c:	e8bd4030 	pop	{r4, r5, lr}
30007790:	e12fff1e 	bx	lr
30007794:	e1b0c08c 	lsls	ip, ip, #1
30007798:	e0b00000 	adcs	r0, r0, r0
3000779c:	e0a11001 	adc	r1, r1, r1
300077a0:	e3110601 	tst	r1, #1048576	; 0x100000
300077a4:	e2444001 	sub	r4, r4, #1
300077a8:	1afffff2 	bne	30007778 <__adddf3+0x11c>
300077ac:	e3310000 	teq	r1, #0
300077b0:	13a03014 	movne	r3, #20
300077b4:	03a03034 	moveq	r3, #52	; 0x34
300077b8:	01a01000 	moveq	r1, r0
300077bc:	03a00000 	moveq	r0, #0
300077c0:	e1a02001 	mov	r2, r1
300077c4:	e3520801 	cmp	r2, #65536	; 0x10000
300077c8:	21a02822 	lsrcs	r2, r2, #16
300077cc:	22433010 	subcs	r3, r3, #16
300077d0:	e3520c01 	cmp	r2, #256	; 0x100
300077d4:	21a02422 	lsrcs	r2, r2, #8
300077d8:	22433008 	subcs	r3, r3, #8
300077dc:	e3520010 	cmp	r2, #16
300077e0:	21a02222 	lsrcs	r2, r2, #4
300077e4:	22433004 	subcs	r3, r3, #4
300077e8:	e3520004 	cmp	r2, #4
300077ec:	22433002 	subcs	r3, r3, #2
300077f0:	304330a2 	subcc	r3, r3, r2, lsr #1
300077f4:	e04331a2 	sub	r3, r3, r2, lsr #3
300077f8:	e2532020 	subs	r2, r3, #32
300077fc:	aa000007 	bge	30007820 <__adddf3+0x1c4>
30007800:	e292200c 	adds	r2, r2, #12
30007804:	da000004 	ble	3000781c <__adddf3+0x1c0>
30007808:	e282c014 	add	ip, r2, #20
3000780c:	e262200c 	rsb	r2, r2, #12
30007810:	e1a00c11 	lsl	r0, r1, ip
30007814:	e1a01231 	lsr	r1, r1, r2
30007818:	ea000004 	b	30007830 <__adddf3+0x1d4>
3000781c:	e2822014 	add	r2, r2, #20
30007820:	d262c020 	rsble	ip, r2, #32
30007824:	e1a01211 	lsl	r1, r1, r2
30007828:	d1811c30 	orrle	r1, r1, r0, lsr ip
3000782c:	d1a00210 	lslle	r0, r0, r2
30007830:	e0544003 	subs	r4, r4, r3
30007834:	a0811a04 	addge	r1, r1, r4, lsl #20
30007838:	a1811005 	orrge	r1, r1, r5
3000783c:	a8bd4030 	popge	{r4, r5, lr}
30007840:	a12fff1e 	bxge	lr
30007844:	e1e04004 	mvn	r4, r4
30007848:	e254401f 	subs	r4, r4, #31
3000784c:	aa00000f 	bge	30007890 <__adddf3+0x234>
30007850:	e294400c 	adds	r4, r4, #12
30007854:	ca000006 	bgt	30007874 <__adddf3+0x218>
30007858:	e2844014 	add	r4, r4, #20
3000785c:	e2642020 	rsb	r2, r4, #32
30007860:	e1a00430 	lsr	r0, r0, r4
30007864:	e1800211 	orr	r0, r0, r1, lsl r2
30007868:	e1851431 	orr	r1, r5, r1, lsr r4
3000786c:	e8bd4030 	pop	{r4, r5, lr}
30007870:	e12fff1e 	bx	lr
30007874:	e264400c 	rsb	r4, r4, #12
30007878:	e2642020 	rsb	r2, r4, #32
3000787c:	e1a00230 	lsr	r0, r0, r2
30007880:	e1800411 	orr	r0, r0, r1, lsl r4
30007884:	e1a01005 	mov	r1, r5
30007888:	e8bd4030 	pop	{r4, r5, lr}
3000788c:	e12fff1e 	bx	lr
30007890:	e1a00431 	lsr	r0, r1, r4
30007894:	e1a01005 	mov	r1, r5
30007898:	e8bd4030 	pop	{r4, r5, lr}
3000789c:	e12fff1e 	bx	lr
300078a0:	e3340000 	teq	r4, #0
300078a4:	e2233601 	eor	r3, r3, #1048576	; 0x100000
300078a8:	02211601 	eoreq	r1, r1, #1048576	; 0x100000
300078ac:	02844001 	addeq	r4, r4, #1
300078b0:	12455001 	subne	r5, r5, #1
300078b4:	eaffff8f 	b	300076f8 <__adddf3+0x9c>
300078b8:	e1f0cac4 	mvns	ip, r4, asr #21
300078bc:	11f0cac5 	mvnsne	ip, r5, asr #21
300078c0:	0a00001d 	beq	3000793c <__adddf3+0x2e0>
300078c4:	e1340005 	teq	r4, r5
300078c8:	01300002 	teqeq	r0, r2
300078cc:	0a000004 	beq	300078e4 <__adddf3+0x288>
300078d0:	e194c000 	orrs	ip, r4, r0
300078d4:	01a01003 	moveq	r1, r3
300078d8:	01a00002 	moveq	r0, r2
300078dc:	e8bd4030 	pop	{r4, r5, lr}
300078e0:	e12fff1e 	bx	lr
300078e4:	e1310003 	teq	r1, r3
300078e8:	13a01000 	movne	r1, #0
300078ec:	13a00000 	movne	r0, #0
300078f0:	18bd4030 	popne	{r4, r5, lr}
300078f4:	112fff1e 	bxne	lr
300078f8:	e1b0caa4 	lsrs	ip, r4, #21
300078fc:	1a000004 	bne	30007914 <__adddf3+0x2b8>
30007900:	e1b00080 	lsls	r0, r0, #1
30007904:	e0b11001 	adcs	r1, r1, r1
30007908:	23811102 	orrcs	r1, r1, #-2147483648	; 0x80000000
3000790c:	e8bd4030 	pop	{r4, r5, lr}
30007910:	e12fff1e 	bx	lr
30007914:	e2944501 	adds	r4, r4, #4194304	; 0x400000
30007918:	32811601 	addcc	r1, r1, #1048576	; 0x100000
3000791c:	38bd4030 	popcc	{r4, r5, lr}
30007920:	312fff1e 	bxcc	lr
30007924:	e2015102 	and	r5, r1, #-2147483648	; 0x80000000
30007928:	e385147f 	orr	r1, r5, #2130706432	; 0x7f000000
3000792c:	e381160f 	orr	r1, r1, #15728640	; 0xf00000
30007930:	e3a00000 	mov	r0, #0
30007934:	e8bd4030 	pop	{r4, r5, lr}
30007938:	e12fff1e 	bx	lr
3000793c:	e1f0cac4 	mvns	ip, r4, asr #21
30007940:	11a01003 	movne	r1, r3
30007944:	11a00002 	movne	r0, r2
30007948:	01f0cac5 	mvnseq	ip, r5, asr #21
3000794c:	11a03001 	movne	r3, r1
30007950:	11a02000 	movne	r2, r0
30007954:	e1904601 	orrs	r4, r0, r1, lsl #12
30007958:	01925603 	orrseq	r5, r2, r3, lsl #12
3000795c:	01310003 	teqeq	r1, r3
30007960:	13811702 	orrne	r1, r1, #524288	; 0x80000
30007964:	e8bd4030 	pop	{r4, r5, lr}
30007968:	e12fff1e 	bx	lr

3000796c <__aeabi_ui2d>:
3000796c:	e3300000 	teq	r0, #0
30007970:	03a01000 	moveq	r1, #0
30007974:	012fff1e 	bxeq	lr
30007978:	e92d4030 	push	{r4, r5, lr}
3000797c:	e3a04b01 	mov	r4, #1024	; 0x400
30007980:	e2844032 	add	r4, r4, #50	; 0x32
30007984:	e3a05000 	mov	r5, #0
30007988:	e3a01000 	mov	r1, #0
3000798c:	eaffff86 	b	300077ac <__adddf3+0x150>

30007990 <__aeabi_i2d>:
30007990:	e3300000 	teq	r0, #0
30007994:	03a01000 	moveq	r1, #0
30007998:	012fff1e 	bxeq	lr
3000799c:	e92d4030 	push	{r4, r5, lr}
300079a0:	e3a04b01 	mov	r4, #1024	; 0x400
300079a4:	e2844032 	add	r4, r4, #50	; 0x32
300079a8:	e2105102 	ands	r5, r0, #-2147483648	; 0x80000000
300079ac:	42600000 	rsbmi	r0, r0, #0
300079b0:	e3a01000 	mov	r1, #0
300079b4:	eaffff7c 	b	300077ac <__adddf3+0x150>

300079b8 <__aeabi_f2d>:
300079b8:	e1b02080 	lsls	r2, r0, #1
300079bc:	e1a011c2 	asr	r1, r2, #3
300079c0:	e1a01061 	rrx	r1, r1
300079c4:	e1a00e02 	lsl	r0, r2, #28
300079c8:	121234ff 	andsne	r3, r2, #-16777216	; 0xff000000
300079cc:	133304ff 	teqne	r3, #-16777216	; 0xff000000
300079d0:	1221130e 	eorne	r1, r1, #939524096	; 0x38000000
300079d4:	112fff1e 	bxne	lr
300079d8:	e3320000 	teq	r2, #0
300079dc:	133304ff 	teqne	r3, #-16777216	; 0xff000000
300079e0:	012fff1e 	bxeq	lr
300079e4:	e92d4030 	push	{r4, r5, lr}
300079e8:	e3a04d0e 	mov	r4, #896	; 0x380
300079ec:	e2015102 	and	r5, r1, #-2147483648	; 0x80000000
300079f0:	e3c11102 	bic	r1, r1, #-2147483648	; 0x80000000
300079f4:	eaffff6c 	b	300077ac <__adddf3+0x150>

300079f8 <__aeabi_ul2d>:
300079f8:	e1902001 	orrs	r2, r0, r1
300079fc:	012fff1e 	bxeq	lr
30007a00:	e92d4030 	push	{r4, r5, lr}
30007a04:	e3a05000 	mov	r5, #0
30007a08:	ea000006 	b	30007a28 <__aeabi_l2d+0x1c>

30007a0c <__aeabi_l2d>:
30007a0c:	e1902001 	orrs	r2, r0, r1
30007a10:	012fff1e 	bxeq	lr
30007a14:	e92d4030 	push	{r4, r5, lr}
30007a18:	e2115102 	ands	r5, r1, #-2147483648	; 0x80000000
30007a1c:	5a000001 	bpl	30007a28 <__aeabi_l2d+0x1c>
30007a20:	e2700000 	rsbs	r0, r0, #0
30007a24:	e2e11000 	rsc	r1, r1, #0
30007a28:	e3a04b01 	mov	r4, #1024	; 0x400
30007a2c:	e2844032 	add	r4, r4, #50	; 0x32
30007a30:	e1b0cb21 	lsrs	ip, r1, #22
30007a34:	0affff44 	beq	3000774c <__adddf3+0xf0>
30007a38:	e3a02003 	mov	r2, #3
30007a3c:	e1b0c1ac 	lsrs	ip, ip, #3
30007a40:	12822003 	addne	r2, r2, #3
30007a44:	e1b0c1ac 	lsrs	ip, ip, #3
30007a48:	12822003 	addne	r2, r2, #3
30007a4c:	e08221ac 	add	r2, r2, ip, lsr #3
30007a50:	e2623020 	rsb	r3, r2, #32
30007a54:	e1a0c310 	lsl	ip, r0, r3
30007a58:	e1a00230 	lsr	r0, r0, r2
30007a5c:	e1800311 	orr	r0, r0, r1, lsl r3
30007a60:	e1a01231 	lsr	r1, r1, r2
30007a64:	e0844002 	add	r4, r4, r2
30007a68:	eaffff37 	b	3000774c <__adddf3+0xf0>

30007a6c <__aeabi_dmul>:
30007a6c:	e92d4070 	push	{r4, r5, r6, lr}
30007a70:	e3a0c0ff 	mov	ip, #255	; 0xff
30007a74:	e38ccc07 	orr	ip, ip, #1792	; 0x700
30007a78:	e01c4a21 	ands	r4, ip, r1, lsr #20
30007a7c:	101c5a23 	andsne	r5, ip, r3, lsr #20
30007a80:	1134000c 	teqne	r4, ip
30007a84:	1135000c 	teqne	r5, ip
30007a88:	0b000075 	bleq	30007c64 <__aeabi_dmul+0x1f8>
30007a8c:	e0844005 	add	r4, r4, r5
30007a90:	e0216003 	eor	r6, r1, r3
30007a94:	e1c11a8c 	bic	r1, r1, ip, lsl #21
30007a98:	e1c33a8c 	bic	r3, r3, ip, lsl #21
30007a9c:	e1905601 	orrs	r5, r0, r1, lsl #12
30007aa0:	11925603 	orrsne	r5, r2, r3, lsl #12
30007aa4:	e3811601 	orr	r1, r1, #1048576	; 0x100000
30007aa8:	e3833601 	orr	r3, r3, #1048576	; 0x100000
30007aac:	0a00001d 	beq	30007b28 <__aeabi_dmul+0xbc>
30007ab0:	e08ec290 	umull	ip, lr, r0, r2
30007ab4:	e3a05000 	mov	r5, #0
30007ab8:	e0a5e291 	umlal	lr, r5, r1, r2
30007abc:	e2062102 	and	r2, r6, #-2147483648	; 0x80000000
30007ac0:	e0a5e390 	umlal	lr, r5, r0, r3
30007ac4:	e3a06000 	mov	r6, #0
30007ac8:	e0a65391 	umlal	r5, r6, r1, r3
30007acc:	e33c0000 	teq	ip, #0
30007ad0:	138ee001 	orrne	lr, lr, #1
30007ad4:	e24440ff 	sub	r4, r4, #255	; 0xff
30007ad8:	e3560c02 	cmp	r6, #512	; 0x200
30007adc:	e2c44c03 	sbc	r4, r4, #768	; 0x300
30007ae0:	2a000002 	bcs	30007af0 <__aeabi_dmul+0x84>
30007ae4:	e1b0e08e 	lsls	lr, lr, #1
30007ae8:	e0b55005 	adcs	r5, r5, r5
30007aec:	e0a66006 	adc	r6, r6, r6
30007af0:	e1821586 	orr	r1, r2, r6, lsl #11
30007af4:	e1811aa5 	orr	r1, r1, r5, lsr #21
30007af8:	e1a00585 	lsl	r0, r5, #11
30007afc:	e1800aae 	orr	r0, r0, lr, lsr #21
30007b00:	e1a0e58e 	lsl	lr, lr, #11
30007b04:	e254c0fd 	subs	ip, r4, #253	; 0xfd
30007b08:	835c0c07 	cmphi	ip, #1792	; 0x700
30007b0c:	8a000011 	bhi	30007b58 <__aeabi_dmul+0xec>
30007b10:	e35e0102 	cmp	lr, #-2147483648	; 0x80000000
30007b14:	01b0e0a0 	lsrseq	lr, r0, #1
30007b18:	e2b00000 	adcs	r0, r0, #0
30007b1c:	e0a11a04 	adc	r1, r1, r4, lsl #20
30007b20:	e8bd4070 	pop	{r4, r5, r6, lr}
30007b24:	e12fff1e 	bx	lr
30007b28:	e2066102 	and	r6, r6, #-2147483648	; 0x80000000
30007b2c:	e1861001 	orr	r1, r6, r1
30007b30:	e1800002 	orr	r0, r0, r2
30007b34:	e0211003 	eor	r1, r1, r3
30007b38:	e05440ac 	subs	r4, r4, ip, lsr #1
30007b3c:	c074500c 	rsbsgt	r5, r4, ip
30007b40:	c1811a04 	orrgt	r1, r1, r4, lsl #20
30007b44:	c8bd4070 	popgt	{r4, r5, r6, lr}
30007b48:	c12fff1e 	bxgt	lr
30007b4c:	e3811601 	orr	r1, r1, #1048576	; 0x100000
30007b50:	e3a0e000 	mov	lr, #0
30007b54:	e2544001 	subs	r4, r4, #1
30007b58:	ca00005d 	bgt	30007cd4 <__aeabi_dmul+0x268>
30007b5c:	e3740036 	cmn	r4, #54	; 0x36
30007b60:	d3a00000 	movle	r0, #0
30007b64:	d2011102 	andle	r1, r1, #-2147483648	; 0x80000000
30007b68:	d8bd4070 	pople	{r4, r5, r6, lr}
30007b6c:	d12fff1e 	bxle	lr
30007b70:	e2644000 	rsb	r4, r4, #0
30007b74:	e2544020 	subs	r4, r4, #32
30007b78:	aa00001a 	bge	30007be8 <__aeabi_dmul+0x17c>
30007b7c:	e294400c 	adds	r4, r4, #12
30007b80:	ca00000c 	bgt	30007bb8 <__aeabi_dmul+0x14c>
30007b84:	e2844014 	add	r4, r4, #20
30007b88:	e2645020 	rsb	r5, r4, #32
30007b8c:	e1a03510 	lsl	r3, r0, r5
30007b90:	e1a00430 	lsr	r0, r0, r4
30007b94:	e1800511 	orr	r0, r0, r1, lsl r5
30007b98:	e2012102 	and	r2, r1, #-2147483648	; 0x80000000
30007b9c:	e3c11102 	bic	r1, r1, #-2147483648	; 0x80000000
30007ba0:	e0900fa3 	adds	r0, r0, r3, lsr #31
30007ba4:	e0a21431 	adc	r1, r2, r1, lsr r4
30007ba8:	e19ee083 	orrs	lr, lr, r3, lsl #1
30007bac:	01c00fa3 	biceq	r0, r0, r3, lsr #31
30007bb0:	e8bd4070 	pop	{r4, r5, r6, lr}
30007bb4:	e12fff1e 	bx	lr
30007bb8:	e264400c 	rsb	r4, r4, #12
30007bbc:	e2645020 	rsb	r5, r4, #32
30007bc0:	e1a03410 	lsl	r3, r0, r4
30007bc4:	e1a00530 	lsr	r0, r0, r5
30007bc8:	e1800411 	orr	r0, r0, r1, lsl r4
30007bcc:	e2011102 	and	r1, r1, #-2147483648	; 0x80000000
30007bd0:	e0900fa3 	adds	r0, r0, r3, lsr #31
30007bd4:	e2a11000 	adc	r1, r1, #0
30007bd8:	e19ee083 	orrs	lr, lr, r3, lsl #1
30007bdc:	01c00fa3 	biceq	r0, r0, r3, lsr #31
30007be0:	e8bd4070 	pop	{r4, r5, r6, lr}
30007be4:	e12fff1e 	bx	lr
30007be8:	e2645020 	rsb	r5, r4, #32
30007bec:	e18ee510 	orr	lr, lr, r0, lsl r5
30007bf0:	e1a03430 	lsr	r3, r0, r4
30007bf4:	e1833511 	orr	r3, r3, r1, lsl r5
30007bf8:	e1a00431 	lsr	r0, r1, r4
30007bfc:	e2011102 	and	r1, r1, #-2147483648	; 0x80000000
30007c00:	e1c00431 	bic	r0, r0, r1, lsr r4
30007c04:	e0800fa3 	add	r0, r0, r3, lsr #31
30007c08:	e19ee083 	orrs	lr, lr, r3, lsl #1
30007c0c:	01c00fa3 	biceq	r0, r0, r3, lsr #31
30007c10:	e8bd4070 	pop	{r4, r5, r6, lr}
30007c14:	e12fff1e 	bx	lr
30007c18:	e3340000 	teq	r4, #0
30007c1c:	1a000008 	bne	30007c44 <__aeabi_dmul+0x1d8>
30007c20:	e2016102 	and	r6, r1, #-2147483648	; 0x80000000
30007c24:	e1b00080 	lsls	r0, r0, #1
30007c28:	e0a11001 	adc	r1, r1, r1
30007c2c:	e3110601 	tst	r1, #1048576	; 0x100000
30007c30:	02444001 	subeq	r4, r4, #1
30007c34:	0afffffa 	beq	30007c24 <__aeabi_dmul+0x1b8>
30007c38:	e1811006 	orr	r1, r1, r6
30007c3c:	e3350000 	teq	r5, #0
30007c40:	112fff1e 	bxne	lr
30007c44:	e2036102 	and	r6, r3, #-2147483648	; 0x80000000
30007c48:	e1b02082 	lsls	r2, r2, #1
30007c4c:	e0a33003 	adc	r3, r3, r3
30007c50:	e3130601 	tst	r3, #1048576	; 0x100000
30007c54:	02455001 	subeq	r5, r5, #1
30007c58:	0afffffa 	beq	30007c48 <__aeabi_dmul+0x1dc>
30007c5c:	e1833006 	orr	r3, r3, r6
30007c60:	e12fff1e 	bx	lr
30007c64:	e134000c 	teq	r4, ip
30007c68:	e00c5a23 	and	r5, ip, r3, lsr #20
30007c6c:	1135000c 	teqne	r5, ip
30007c70:	0a000007 	beq	30007c94 <__aeabi_dmul+0x228>
30007c74:	e1906081 	orrs	r6, r0, r1, lsl #1
30007c78:	11926083 	orrsne	r6, r2, r3, lsl #1
30007c7c:	1affffe5 	bne	30007c18 <__aeabi_dmul+0x1ac>
30007c80:	e0211003 	eor	r1, r1, r3
30007c84:	e2011102 	and	r1, r1, #-2147483648	; 0x80000000
30007c88:	e3a00000 	mov	r0, #0
30007c8c:	e8bd4070 	pop	{r4, r5, r6, lr}
30007c90:	e12fff1e 	bx	lr
30007c94:	e1906081 	orrs	r6, r0, r1, lsl #1
30007c98:	01a00002 	moveq	r0, r2
30007c9c:	01a01003 	moveq	r1, r3
30007ca0:	11926083 	orrsne	r6, r2, r3, lsl #1
30007ca4:	0a000010 	beq	30007cec <__aeabi_dmul+0x280>
30007ca8:	e134000c 	teq	r4, ip
30007cac:	1a000001 	bne	30007cb8 <__aeabi_dmul+0x24c>
30007cb0:	e1906601 	orrs	r6, r0, r1, lsl #12
30007cb4:	1a00000c 	bne	30007cec <__aeabi_dmul+0x280>
30007cb8:	e135000c 	teq	r5, ip
30007cbc:	1a000003 	bne	30007cd0 <__aeabi_dmul+0x264>
30007cc0:	e1926603 	orrs	r6, r2, r3, lsl #12
30007cc4:	11a00002 	movne	r0, r2
30007cc8:	11a01003 	movne	r1, r3
30007ccc:	1a000006 	bne	30007cec <__aeabi_dmul+0x280>
30007cd0:	e0211003 	eor	r1, r1, r3
30007cd4:	e2011102 	and	r1, r1, #-2147483648	; 0x80000000
30007cd8:	e381147f 	orr	r1, r1, #2130706432	; 0x7f000000
30007cdc:	e381160f 	orr	r1, r1, #15728640	; 0xf00000
30007ce0:	e3a00000 	mov	r0, #0
30007ce4:	e8bd4070 	pop	{r4, r5, r6, lr}
30007ce8:	e12fff1e 	bx	lr
30007cec:	e381147f 	orr	r1, r1, #2130706432	; 0x7f000000
30007cf0:	e381173e 	orr	r1, r1, #16252928	; 0xf80000
30007cf4:	e8bd4070 	pop	{r4, r5, r6, lr}
30007cf8:	e12fff1e 	bx	lr

30007cfc <__aeabi_ddiv>:
30007cfc:	e92d4070 	push	{r4, r5, r6, lr}
30007d00:	e3a0c0ff 	mov	ip, #255	; 0xff
30007d04:	e38ccc07 	orr	ip, ip, #1792	; 0x700
30007d08:	e01c4a21 	ands	r4, ip, r1, lsr #20
30007d0c:	101c5a23 	andsne	r5, ip, r3, lsr #20
30007d10:	1134000c 	teqne	r4, ip
30007d14:	1135000c 	teqne	r5, ip
30007d18:	0b00005e 	bleq	30007e98 <__aeabi_ddiv+0x19c>
30007d1c:	e0444005 	sub	r4, r4, r5
30007d20:	e021e003 	eor	lr, r1, r3
30007d24:	e1925603 	orrs	r5, r2, r3, lsl #12
30007d28:	e1a01601 	lsl	r1, r1, #12
30007d2c:	0a00004c 	beq	30007e64 <__aeabi_ddiv+0x168>
30007d30:	e1a03603 	lsl	r3, r3, #12
30007d34:	e3a05201 	mov	r5, #268435456	; 0x10000000
30007d38:	e1853223 	orr	r3, r5, r3, lsr #4
30007d3c:	e1833c22 	orr	r3, r3, r2, lsr #24
30007d40:	e1a02402 	lsl	r2, r2, #8
30007d44:	e1855221 	orr	r5, r5, r1, lsr #4
30007d48:	e1855c20 	orr	r5, r5, r0, lsr #24
30007d4c:	e1a06400 	lsl	r6, r0, #8
30007d50:	e20e1102 	and	r1, lr, #-2147483648	; 0x80000000
30007d54:	e1550003 	cmp	r5, r3
30007d58:	01560002 	cmpeq	r6, r2
30007d5c:	e2a440fd 	adc	r4, r4, #253	; 0xfd
30007d60:	e2844c03 	add	r4, r4, #768	; 0x300
30007d64:	2a000001 	bcs	30007d70 <__aeabi_ddiv+0x74>
30007d68:	e1b030a3 	lsrs	r3, r3, #1
30007d6c:	e1a02062 	rrx	r2, r2
30007d70:	e0566002 	subs	r6, r6, r2
30007d74:	e0c55003 	sbc	r5, r5, r3
30007d78:	e1b030a3 	lsrs	r3, r3, #1
30007d7c:	e1a02062 	rrx	r2, r2
30007d80:	e3a00601 	mov	r0, #1048576	; 0x100000
30007d84:	e3a0c702 	mov	ip, #524288	; 0x80000
30007d88:	e056e002 	subs	lr, r6, r2
30007d8c:	e0d5e003 	sbcs	lr, r5, r3
30007d90:	20466002 	subcs	r6, r6, r2
30007d94:	21a0500e 	movcs	r5, lr
30007d98:	2180000c 	orrcs	r0, r0, ip
30007d9c:	e1b030a3 	lsrs	r3, r3, #1
30007da0:	e1a02062 	rrx	r2, r2
30007da4:	e056e002 	subs	lr, r6, r2
30007da8:	e0d5e003 	sbcs	lr, r5, r3
30007dac:	20466002 	subcs	r6, r6, r2
30007db0:	21a0500e 	movcs	r5, lr
30007db4:	218000ac 	orrcs	r0, r0, ip, lsr #1
30007db8:	e1b030a3 	lsrs	r3, r3, #1
30007dbc:	e1a02062 	rrx	r2, r2
30007dc0:	e056e002 	subs	lr, r6, r2
30007dc4:	e0d5e003 	sbcs	lr, r5, r3
30007dc8:	20466002 	subcs	r6, r6, r2
30007dcc:	21a0500e 	movcs	r5, lr
30007dd0:	2180012c 	orrcs	r0, r0, ip, lsr #2
30007dd4:	e1b030a3 	lsrs	r3, r3, #1
30007dd8:	e1a02062 	rrx	r2, r2
30007ddc:	e056e002 	subs	lr, r6, r2
30007de0:	e0d5e003 	sbcs	lr, r5, r3
30007de4:	20466002 	subcs	r6, r6, r2
30007de8:	21a0500e 	movcs	r5, lr
30007dec:	218001ac 	orrcs	r0, r0, ip, lsr #3
30007df0:	e195e006 	orrs	lr, r5, r6
30007df4:	0a00000d 	beq	30007e30 <__aeabi_ddiv+0x134>
30007df8:	e1a05205 	lsl	r5, r5, #4
30007dfc:	e1855e26 	orr	r5, r5, r6, lsr #28
30007e00:	e1a06206 	lsl	r6, r6, #4
30007e04:	e1a03183 	lsl	r3, r3, #3
30007e08:	e1833ea2 	orr	r3, r3, r2, lsr #29
30007e0c:	e1a02182 	lsl	r2, r2, #3
30007e10:	e1b0c22c 	lsrs	ip, ip, #4
30007e14:	1affffdb 	bne	30007d88 <__aeabi_ddiv+0x8c>
30007e18:	e3110601 	tst	r1, #1048576	; 0x100000
30007e1c:	1a000006 	bne	30007e3c <__aeabi_ddiv+0x140>
30007e20:	e1811000 	orr	r1, r1, r0
30007e24:	e3a00000 	mov	r0, #0
30007e28:	e3a0c102 	mov	ip, #-2147483648	; 0x80000000
30007e2c:	eaffffd5 	b	30007d88 <__aeabi_ddiv+0x8c>
30007e30:	e3110601 	tst	r1, #1048576	; 0x100000
30007e34:	01811000 	orreq	r1, r1, r0
30007e38:	03a00000 	moveq	r0, #0
30007e3c:	e254c0fd 	subs	ip, r4, #253	; 0xfd
30007e40:	835c0c07 	cmphi	ip, #1792	; 0x700
30007e44:	8affff43 	bhi	30007b58 <__aeabi_dmul+0xec>
30007e48:	e055c003 	subs	ip, r5, r3
30007e4c:	0056c002 	subseq	ip, r6, r2
30007e50:	01b0c0a0 	lsrseq	ip, r0, #1
30007e54:	e2b00000 	adcs	r0, r0, #0
30007e58:	e0a11a04 	adc	r1, r1, r4, lsl #20
30007e5c:	e8bd4070 	pop	{r4, r5, r6, lr}
30007e60:	e12fff1e 	bx	lr
30007e64:	e20ee102 	and	lr, lr, #-2147483648	; 0x80000000
30007e68:	e18e1621 	orr	r1, lr, r1, lsr #12
30007e6c:	e09440ac 	adds	r4, r4, ip, lsr #1
30007e70:	c074500c 	rsbsgt	r5, r4, ip
30007e74:	c1811a04 	orrgt	r1, r1, r4, lsl #20
30007e78:	c8bd4070 	popgt	{r4, r5, r6, lr}
30007e7c:	c12fff1e 	bxgt	lr
30007e80:	e3811601 	orr	r1, r1, #1048576	; 0x100000
30007e84:	e3a0e000 	mov	lr, #0
30007e88:	e2544001 	subs	r4, r4, #1
30007e8c:	eaffff31 	b	30007b58 <__aeabi_dmul+0xec>
30007e90:	e185e006 	orr	lr, r5, r6
30007e94:	eaffff2f 	b	30007b58 <__aeabi_dmul+0xec>
30007e98:	e00c5a23 	and	r5, ip, r3, lsr #20
30007e9c:	e134000c 	teq	r4, ip
30007ea0:	0135000c 	teqeq	r5, ip
30007ea4:	0affff90 	beq	30007cec <__aeabi_dmul+0x280>
30007ea8:	e134000c 	teq	r4, ip
30007eac:	1a000006 	bne	30007ecc <__aeabi_ddiv+0x1d0>
30007eb0:	e1904601 	orrs	r4, r0, r1, lsl #12
30007eb4:	1affff8c 	bne	30007cec <__aeabi_dmul+0x280>
30007eb8:	e135000c 	teq	r5, ip
30007ebc:	1affff83 	bne	30007cd0 <__aeabi_dmul+0x264>
30007ec0:	e1a00002 	mov	r0, r2
30007ec4:	e1a01003 	mov	r1, r3
30007ec8:	eaffff87 	b	30007cec <__aeabi_dmul+0x280>
30007ecc:	e135000c 	teq	r5, ip
30007ed0:	1a000004 	bne	30007ee8 <__aeabi_ddiv+0x1ec>
30007ed4:	e1925603 	orrs	r5, r2, r3, lsl #12
30007ed8:	0affff68 	beq	30007c80 <__aeabi_dmul+0x214>
30007edc:	e1a00002 	mov	r0, r2
30007ee0:	e1a01003 	mov	r1, r3
30007ee4:	eaffff80 	b	30007cec <__aeabi_dmul+0x280>
30007ee8:	e1906081 	orrs	r6, r0, r1, lsl #1
30007eec:	11926083 	orrsne	r6, r2, r3, lsl #1
30007ef0:	1affff48 	bne	30007c18 <__aeabi_dmul+0x1ac>
30007ef4:	e1904081 	orrs	r4, r0, r1, lsl #1
30007ef8:	1affff74 	bne	30007cd0 <__aeabi_dmul+0x264>
30007efc:	e1925083 	orrs	r5, r2, r3, lsl #1
30007f00:	1affff5e 	bne	30007c80 <__aeabi_dmul+0x214>
30007f04:	eaffff78 	b	30007cec <__aeabi_dmul+0x280>

30007f08 <__gedf2>:
30007f08:	e3e0c000 	mvn	ip, #0
30007f0c:	ea000002 	b	30007f1c <__cmpdf2+0x4>

30007f10 <__ledf2>:
30007f10:	e3a0c001 	mov	ip, #1
30007f14:	ea000000 	b	30007f1c <__cmpdf2+0x4>

30007f18 <__cmpdf2>:
30007f18:	e3a0c001 	mov	ip, #1
30007f1c:	e52dc004 	push	{ip}		; (str ip, [sp, #-4]!)
30007f20:	e1a0c081 	lsl	ip, r1, #1
30007f24:	e1f0cacc 	mvns	ip, ip, asr #21
30007f28:	e1a0c083 	lsl	ip, r3, #1
30007f2c:	11f0cacc 	mvnsne	ip, ip, asr #21
30007f30:	0a00000e 	beq	30007f70 <__cmpdf2+0x58>
30007f34:	e28dd004 	add	sp, sp, #4
30007f38:	e190c081 	orrs	ip, r0, r1, lsl #1
30007f3c:	0192c083 	orrseq	ip, r2, r3, lsl #1
30007f40:	11310003 	teqne	r1, r3
30007f44:	01300002 	teqeq	r0, r2
30007f48:	03a00000 	moveq	r0, #0
30007f4c:	012fff1e 	bxeq	lr
30007f50:	e3700000 	cmn	r0, #0
30007f54:	e1310003 	teq	r1, r3
30007f58:	51510003 	cmppl	r1, r3
30007f5c:	01500002 	cmpeq	r0, r2
30007f60:	21a00fc3 	asrcs	r0, r3, #31
30007f64:	31e00fc3 	mvncc	r0, r3, asr #31
30007f68:	e3800001 	orr	r0, r0, #1
30007f6c:	e12fff1e 	bx	lr
30007f70:	e1a0c081 	lsl	ip, r1, #1
30007f74:	e1f0cacc 	mvns	ip, ip, asr #21
30007f78:	1a000001 	bne	30007f84 <__cmpdf2+0x6c>
30007f7c:	e190c601 	orrs	ip, r0, r1, lsl #12
30007f80:	1a000004 	bne	30007f98 <__cmpdf2+0x80>
30007f84:	e1a0c083 	lsl	ip, r3, #1
30007f88:	e1f0cacc 	mvns	ip, ip, asr #21
30007f8c:	1affffe8 	bne	30007f34 <__cmpdf2+0x1c>
30007f90:	e192c603 	orrs	ip, r2, r3, lsl #12
30007f94:	0affffe6 	beq	30007f34 <__cmpdf2+0x1c>
30007f98:	e49d0004 	pop	{r0}		; (ldr r0, [sp], #4)
30007f9c:	e12fff1e 	bx	lr

30007fa0 <__aeabi_cdrcmple>:
30007fa0:	e1a0c000 	mov	ip, r0
30007fa4:	e1a00002 	mov	r0, r2
30007fa8:	e1a0200c 	mov	r2, ip
30007fac:	e1a0c001 	mov	ip, r1
30007fb0:	e1a01003 	mov	r1, r3
30007fb4:	e1a0300c 	mov	r3, ip
30007fb8:	eaffffff 	b	30007fbc <__aeabi_cdcmpeq>

30007fbc <__aeabi_cdcmpeq>:
30007fbc:	e92d4001 	push	{r0, lr}
30007fc0:	ebffffd4 	bl	30007f18 <__cmpdf2>
30007fc4:	e3500000 	cmp	r0, #0
30007fc8:	43700000 	cmnmi	r0, #0
30007fcc:	e8bd4001 	pop	{r0, lr}
30007fd0:	e12fff1e 	bx	lr

30007fd4 <__aeabi_dcmpeq>:
30007fd4:	e52de008 	str	lr, [sp, #-8]!
30007fd8:	ebfffff7 	bl	30007fbc <__aeabi_cdcmpeq>
30007fdc:	03a00001 	moveq	r0, #1
30007fe0:	13a00000 	movne	r0, #0
30007fe4:	e49de008 	ldr	lr, [sp], #8
30007fe8:	e12fff1e 	bx	lr

30007fec <__aeabi_dcmplt>:
30007fec:	e52de008 	str	lr, [sp, #-8]!
30007ff0:	ebfffff1 	bl	30007fbc <__aeabi_cdcmpeq>
30007ff4:	33a00001 	movcc	r0, #1
30007ff8:	23a00000 	movcs	r0, #0
30007ffc:	e49de008 	ldr	lr, [sp], #8
30008000:	e12fff1e 	bx	lr

30008004 <__aeabi_dcmple>:
30008004:	e52de008 	str	lr, [sp, #-8]!
30008008:	ebffffeb 	bl	30007fbc <__aeabi_cdcmpeq>
3000800c:	93a00001 	movls	r0, #1
30008010:	83a00000 	movhi	r0, #0
30008014:	e49de008 	ldr	lr, [sp], #8
30008018:	e12fff1e 	bx	lr

3000801c <__aeabi_dcmpge>:
3000801c:	e52de008 	str	lr, [sp, #-8]!
30008020:	ebffffde 	bl	30007fa0 <__aeabi_cdrcmple>
30008024:	93a00001 	movls	r0, #1
30008028:	83a00000 	movhi	r0, #0
3000802c:	e49de008 	ldr	lr, [sp], #8
30008030:	e12fff1e 	bx	lr

30008034 <__aeabi_dcmpgt>:
30008034:	e52de008 	str	lr, [sp, #-8]!
30008038:	ebffffd8 	bl	30007fa0 <__aeabi_cdrcmple>
3000803c:	33a00001 	movcc	r0, #1
30008040:	23a00000 	movcs	r0, #0
30008044:	e49de008 	ldr	lr, [sp], #8
30008048:	e12fff1e 	bx	lr

3000804c <__aeabi_d2iz>:
3000804c:	e1a02081 	lsl	r2, r1, #1
30008050:	e2922602 	adds	r2, r2, #2097152	; 0x200000
30008054:	2a00000c 	bcs	3000808c <__aeabi_d2iz+0x40>
30008058:	5a000009 	bpl	30008084 <__aeabi_d2iz+0x38>
3000805c:	e3e03e3e 	mvn	r3, #992	; 0x3e0
30008060:	e0532ac2 	subs	r2, r3, r2, asr #21
30008064:	9a00000a 	bls	30008094 <__aeabi_d2iz+0x48>
30008068:	e1a03581 	lsl	r3, r1, #11
3000806c:	e3833102 	orr	r3, r3, #-2147483648	; 0x80000000
30008070:	e1833aa0 	orr	r3, r3, r0, lsr #21
30008074:	e3110102 	tst	r1, #-2147483648	; 0x80000000
30008078:	e1a00233 	lsr	r0, r3, r2
3000807c:	12600000 	rsbne	r0, r0, #0
30008080:	e12fff1e 	bx	lr
30008084:	e3a00000 	mov	r0, #0
30008088:	e12fff1e 	bx	lr
3000808c:	e1900601 	orrs	r0, r0, r1, lsl #12
30008090:	1a000002 	bne	300080a0 <__aeabi_d2iz+0x54>
30008094:	e2110102 	ands	r0, r1, #-2147483648	; 0x80000000
30008098:	03e00102 	mvneq	r0, #-2147483648	; 0x80000000
3000809c:	e12fff1e 	bx	lr
300080a0:	e3a00000 	mov	r0, #0
300080a4:	e12fff1e 	bx	lr

300080a8 <__aeabi_d2uiz>:
300080a8:	e1b02081 	lsls	r2, r1, #1
300080ac:	2a00000a 	bcs	300080dc <__aeabi_d2uiz+0x34>
300080b0:	e2922602 	adds	r2, r2, #2097152	; 0x200000
300080b4:	2a00000a 	bcs	300080e4 <__aeabi_d2uiz+0x3c>
300080b8:	5a000007 	bpl	300080dc <__aeabi_d2uiz+0x34>
300080bc:	e3e03e3e 	mvn	r3, #992	; 0x3e0
300080c0:	e0532ac2 	subs	r2, r3, r2, asr #21
300080c4:	4a000008 	bmi	300080ec <__aeabi_d2uiz+0x44>
300080c8:	e1a03581 	lsl	r3, r1, #11
300080cc:	e3833102 	orr	r3, r3, #-2147483648	; 0x80000000
300080d0:	e1833aa0 	orr	r3, r3, r0, lsr #21
300080d4:	e1a00233 	lsr	r0, r3, r2
300080d8:	e12fff1e 	bx	lr
300080dc:	e3a00000 	mov	r0, #0
300080e0:	e12fff1e 	bx	lr
300080e4:	e1900601 	orrs	r0, r0, r1, lsl #12
300080e8:	1a000001 	bne	300080f4 <__aeabi_d2uiz+0x4c>
300080ec:	e3e00000 	mvn	r0, #0
300080f0:	e12fff1e 	bx	lr
300080f4:	e3a00000 	mov	r0, #0
300080f8:	e12fff1e 	bx	lr

300080fc <__aeabi_uldivmod>:
300080fc:	e3530000 	cmp	r3, #0
30008100:	03520000 	cmpeq	r2, #0
30008104:	1a000004 	bne	3000811c <__aeabi_uldivmod+0x20>
30008108:	e3510000 	cmp	r1, #0
3000810c:	03500000 	cmpeq	r0, #0
30008110:	13e01000 	mvnne	r1, #0
30008114:	13e00000 	mvnne	r0, #0
30008118:	eafffd4b 	b	3000764c <__aeabi_idiv0>
3000811c:	e24dd008 	sub	sp, sp, #8
30008120:	e92d6000 	push	{sp, lr}
30008124:	eb000003 	bl	30008138 <__gnu_uldivmod_helper>
30008128:	e59de004 	ldr	lr, [sp, #4]
3000812c:	e28dd008 	add	sp, sp, #8
30008130:	e8bd000c 	pop	{r2, r3}
30008134:	e12fff1e 	bx	lr

30008138 <__gnu_uldivmod_helper>:
30008138:	e92d43f8 	push	{r3, r4, r5, r6, r7, r8, r9, lr}
3000813c:	e1a04002 	mov	r4, r2
30008140:	e1a07003 	mov	r7, r3
30008144:	e1a05000 	mov	r5, r0
30008148:	e1a06001 	mov	r6, r1
3000814c:	eb00013f 	bl	30008650 <__udivdi3>
30008150:	e0070790 	mul	r7, r0, r7
30008154:	e0898490 	umull	r8, r9, r0, r4
30008158:	e0247491 	mla	r4, r1, r4, r7
3000815c:	e1a02008 	mov	r2, r8
30008160:	e0843009 	add	r3, r4, r9
30008164:	e0555002 	subs	r5, r5, r2
30008168:	e0c66003 	sbc	r6, r6, r3
3000816c:	e59d3020 	ldr	r3, [sp, #32]
30008170:	e8830060 	stm	r3, {r5, r6}
30008174:	e8bd43f8 	pop	{r3, r4, r5, r6, r7, r8, r9, lr}
30008178:	e12fff1e 	bx	lr

3000817c <__gnu_ldivmod_helper>:
3000817c:	e92d43f8 	push	{r3, r4, r5, r6, r7, r8, r9, lr}
30008180:	e1a04002 	mov	r4, r2
30008184:	e1a07003 	mov	r7, r3
30008188:	e1a05000 	mov	r5, r0
3000818c:	e1a06001 	mov	r6, r1
30008190:	eb00000a 	bl	300081c0 <__divdi3>
30008194:	e0070790 	mul	r7, r0, r7
30008198:	e0898490 	umull	r8, r9, r0, r4
3000819c:	e0247491 	mla	r4, r1, r4, r7
300081a0:	e1a02008 	mov	r2, r8
300081a4:	e0843009 	add	r3, r4, r9
300081a8:	e0555002 	subs	r5, r5, r2
300081ac:	e0c66003 	sbc	r6, r6, r3
300081b0:	e59d3020 	ldr	r3, [sp, #32]
300081b4:	e8830060 	stm	r3, {r5, r6}
300081b8:	e8bd43f8 	pop	{r3, r4, r5, r6, r7, r8, r9, lr}
300081bc:	e12fff1e 	bx	lr

300081c0 <__divdi3>:
300081c0:	e92d4ff0 	push	{r4, r5, r6, r7, r8, r9, sl, fp, lr}
300081c4:	e3510000 	cmp	r1, #0
300081c8:	e24dd014 	sub	sp, sp, #20
300081cc:	a3a06000 	movge	r6, #0
300081d0:	ba0000d4 	blt	30008528 <__divdi3+0x368>
300081d4:	e3530000 	cmp	r3, #0
300081d8:	ba0000ce 	blt	30008518 <__divdi3+0x358>
300081dc:	e2538000 	subs	r8, r3, #0
300081e0:	e1a0b001 	mov	fp, r1
300081e4:	e1a04002 	mov	r4, r2
300081e8:	e1a05000 	mov	r5, r0
300081ec:	1a000034 	bne	300082c4 <__divdi3+0x104>
300081f0:	e1520001 	cmp	r2, r1
300081f4:	9a000041 	bls	30008300 <__divdi3+0x140>
300081f8:	e1a00002 	mov	r0, r2
300081fc:	eb000222 	bl	30008a8c <__clzsi2>
30008200:	e3500000 	cmp	r0, #0
30008204:	12603020 	rsbne	r3, r0, #32
30008208:	11a03335 	lsrne	r3, r5, r3
3000820c:	11a04014 	lslne	r4, r4, r0
30008210:	1183b01b 	orrne	fp, r3, fp, lsl r0
30008214:	e1a08824 	lsr	r8, r4, #16
30008218:	11a05015 	lslne	r5, r5, r0
3000821c:	e1a01008 	mov	r1, r8
30008220:	e1a0000b 	mov	r0, fp
30008224:	ebfffcc3 	bl	30007538 <__aeabi_uidiv>
30008228:	e1a01008 	mov	r1, r8
3000822c:	e1a09000 	mov	r9, r0
30008230:	e1a0000b 	mov	r0, fp
30008234:	ebfffcfc 	bl	3000762c <__aeabi_uidivmod>
30008238:	e1a07804 	lsl	r7, r4, #16
3000823c:	e1a07827 	lsr	r7, r7, #16
30008240:	e0030997 	mul	r3, r7, r9
30008244:	e1a0b825 	lsr	fp, r5, #16
30008248:	e18bb801 	orr	fp, fp, r1, lsl #16
3000824c:	e153000b 	cmp	r3, fp
30008250:	9a000005 	bls	3000826c <__divdi3+0xac>
30008254:	e09bb004 	adds	fp, fp, r4
30008258:	e2499001 	sub	r9, r9, #1
3000825c:	2a000002 	bcs	3000826c <__divdi3+0xac>
30008260:	e153000b 	cmp	r3, fp
30008264:	82499001 	subhi	r9, r9, #1
30008268:	808bb004 	addhi	fp, fp, r4
3000826c:	e063b00b 	rsb	fp, r3, fp
30008270:	e1a01008 	mov	r1, r8
30008274:	e1a0000b 	mov	r0, fp
30008278:	ebfffcae 	bl	30007538 <__aeabi_uidiv>
3000827c:	e1a01008 	mov	r1, r8
30008280:	e1a0a000 	mov	sl, r0
30008284:	e1a0000b 	mov	r0, fp
30008288:	ebfffce7 	bl	3000762c <__aeabi_uidivmod>
3000828c:	e007079a 	mul	r7, sl, r7
30008290:	e1a00805 	lsl	r0, r5, #16
30008294:	e1a05820 	lsr	r5, r0, #16
30008298:	e1855801 	orr	r5, r5, r1, lsl #16
3000829c:	e1570005 	cmp	r7, r5
300082a0:	9a000004 	bls	300082b8 <__divdi3+0xf8>
300082a4:	e0955004 	adds	r5, r5, r4
300082a8:	e24aa001 	sub	sl, sl, #1
300082ac:	2a000001 	bcs	300082b8 <__divdi3+0xf8>
300082b0:	e1570005 	cmp	r7, r5
300082b4:	824aa001 	subhi	sl, sl, #1
300082b8:	e18aa809 	orr	sl, sl, r9, lsl #16
300082bc:	e3a07000 	mov	r7, #0
300082c0:	ea000003 	b	300082d4 <__divdi3+0x114>
300082c4:	e1580001 	cmp	r8, r1
300082c8:	9a000044 	bls	300083e0 <__divdi3+0x220>
300082cc:	e3a07000 	mov	r7, #0
300082d0:	e1a0a007 	mov	sl, r7
300082d4:	e3560000 	cmp	r6, #0
300082d8:	e1a0300a 	mov	r3, sl
300082dc:	e1a04007 	mov	r4, r7
300082e0:	0a000001 	beq	300082ec <__divdi3+0x12c>
300082e4:	e2733000 	rsbs	r3, r3, #0
300082e8:	e2e44000 	rsc	r4, r4, #0
300082ec:	e1a01004 	mov	r1, r4
300082f0:	e1a00003 	mov	r0, r3
300082f4:	e28dd014 	add	sp, sp, #20
300082f8:	e8bd4ff0 	pop	{r4, r5, r6, r7, r8, r9, sl, fp, lr}
300082fc:	e12fff1e 	bx	lr
30008300:	e3520000 	cmp	r2, #0
30008304:	1a000003 	bne	30008318 <__divdi3+0x158>
30008308:	e1a01002 	mov	r1, r2
3000830c:	e3a00001 	mov	r0, #1
30008310:	ebfffc88 	bl	30007538 <__aeabi_uidiv>
30008314:	e1a04000 	mov	r4, r0
30008318:	e1a00004 	mov	r0, r4
3000831c:	eb0001da 	bl	30008a8c <__clzsi2>
30008320:	e250a000 	subs	sl, r0, #0
30008324:	1a000083 	bne	30008538 <__divdi3+0x378>
30008328:	e3a01001 	mov	r1, #1
3000832c:	e1a08804 	lsl	r8, r4, #16
30008330:	e58d100c 	str	r1, [sp, #12]
30008334:	e064a00b 	rsb	sl, r4, fp
30008338:	e1a08828 	lsr	r8, r8, #16
3000833c:	e1a07824 	lsr	r7, r4, #16
30008340:	e1a01007 	mov	r1, r7
30008344:	e1a0000a 	mov	r0, sl
30008348:	ebfffc7a 	bl	30007538 <__aeabi_uidiv>
3000834c:	e1a01007 	mov	r1, r7
30008350:	e1a09000 	mov	r9, r0
30008354:	e1a0000a 	mov	r0, sl
30008358:	ebfffcb3 	bl	3000762c <__aeabi_uidivmod>
3000835c:	e0030998 	mul	r3, r8, r9
30008360:	e1a0a825 	lsr	sl, r5, #16
30008364:	e18ab801 	orr	fp, sl, r1, lsl #16
30008368:	e153000b 	cmp	r3, fp
3000836c:	9a000005 	bls	30008388 <__divdi3+0x1c8>
30008370:	e09bb004 	adds	fp, fp, r4
30008374:	e2499001 	sub	r9, r9, #1
30008378:	2a000002 	bcs	30008388 <__divdi3+0x1c8>
3000837c:	e153000b 	cmp	r3, fp
30008380:	82499001 	subhi	r9, r9, #1
30008384:	808bb004 	addhi	fp, fp, r4
30008388:	e063b00b 	rsb	fp, r3, fp
3000838c:	e1a01007 	mov	r1, r7
30008390:	e1a0000b 	mov	r0, fp
30008394:	ebfffc67 	bl	30007538 <__aeabi_uidiv>
30008398:	e1a01007 	mov	r1, r7
3000839c:	e1a0a000 	mov	sl, r0
300083a0:	e1a0000b 	mov	r0, fp
300083a4:	ebfffca0 	bl	3000762c <__aeabi_uidivmod>
300083a8:	e008089a 	mul	r8, sl, r8
300083ac:	e1a07805 	lsl	r7, r5, #16
300083b0:	e1a05827 	lsr	r5, r7, #16
300083b4:	e1855801 	orr	r5, r5, r1, lsl #16
300083b8:	e1580005 	cmp	r8, r5
300083bc:	9a000004 	bls	300083d4 <__divdi3+0x214>
300083c0:	e0955004 	adds	r5, r5, r4
300083c4:	e24aa001 	sub	sl, sl, #1
300083c8:	2a000001 	bcs	300083d4 <__divdi3+0x214>
300083cc:	e1580005 	cmp	r8, r5
300083d0:	824aa001 	subhi	sl, sl, #1
300083d4:	e18aa809 	orr	sl, sl, r9, lsl #16
300083d8:	e59d700c 	ldr	r7, [sp, #12]
300083dc:	eaffffbc 	b	300082d4 <__divdi3+0x114>
300083e0:	e1a00003 	mov	r0, r3
300083e4:	eb0001a8 	bl	30008a8c <__clzsi2>
300083e8:	e2507000 	subs	r7, r0, #0
300083ec:	0a000086 	beq	3000860c <__divdi3+0x44c>
300083f0:	e2671020 	rsb	r1, r7, #32
300083f4:	e1a09134 	lsr	r9, r4, r1
300083f8:	e1a02135 	lsr	r2, r5, r1
300083fc:	e1898718 	orr	r8, r9, r8, lsl r7
30008400:	e1a0a13b 	lsr	sl, fp, r1
30008404:	e182e71b 	orr	lr, r2, fp, lsl r7
30008408:	e1a09828 	lsr	r9, r8, #16
3000840c:	e1a01009 	mov	r1, r9
30008410:	e1a0000a 	mov	r0, sl
30008414:	e58de00c 	str	lr, [sp, #12]
30008418:	ebfffc46 	bl	30007538 <__aeabi_uidiv>
3000841c:	e1a01009 	mov	r1, r9
30008420:	e1a0b000 	mov	fp, r0
30008424:	e1a0000a 	mov	r0, sl
30008428:	ebfffc7f 	bl	3000762c <__aeabi_uidivmod>
3000842c:	e1a00808 	lsl	r0, r8, #16
30008430:	e1a0a820 	lsr	sl, r0, #16
30008434:	e0000b9a 	mul	r0, sl, fp
30008438:	e59dc00c 	ldr	ip, [sp, #12]
3000843c:	e1a0382c 	lsr	r3, ip, #16
30008440:	e1833801 	orr	r3, r3, r1, lsl #16
30008444:	e1500003 	cmp	r0, r3
30008448:	e1a02714 	lsl	r2, r4, r7
3000844c:	9a000002 	bls	3000845c <__divdi3+0x29c>
30008450:	e0933008 	adds	r3, r3, r8
30008454:	e24bb001 	sub	fp, fp, #1
30008458:	3a000074 	bcc	30008630 <__divdi3+0x470>
3000845c:	e0604003 	rsb	r4, r0, r3
30008460:	e1a01009 	mov	r1, r9
30008464:	e1a00004 	mov	r0, r4
30008468:	e98d0014 	stmib	sp, {r2, r4}
3000846c:	ebfffc31 	bl	30007538 <__aeabi_uidiv>
30008470:	e59d2008 	ldr	r2, [sp, #8]
30008474:	e1a04000 	mov	r4, r0
30008478:	e1a01009 	mov	r1, r9
3000847c:	e1a00002 	mov	r0, r2
30008480:	ebfffc69 	bl	3000762c <__aeabi_uidivmod>
30008484:	e00a0a94 	mul	sl, r4, sl
30008488:	e59d000c 	ldr	r0, [sp, #12]
3000848c:	e1a0c800 	lsl	ip, r0, #16
30008490:	e1a0382c 	lsr	r3, ip, #16
30008494:	e1833801 	orr	r3, r3, r1, lsl #16
30008498:	e15a0003 	cmp	sl, r3
3000849c:	e59d2004 	ldr	r2, [sp, #4]
300084a0:	9a000002 	bls	300084b0 <__divdi3+0x2f0>
300084a4:	e0933008 	adds	r3, r3, r8
300084a8:	e2444001 	sub	r4, r4, #1
300084ac:	3a00005b 	bcc	30008620 <__divdi3+0x460>
300084b0:	e06a1003 	rsb	r1, sl, r3
300084b4:	e184a80b 	orr	sl, r4, fp, lsl #16
300084b8:	e1a0c82a 	lsr	ip, sl, #16
300084bc:	e1a0e822 	lsr	lr, r2, #16
300084c0:	e1ca880c 	bic	r8, sl, ip, lsl #16
300084c4:	e1c2480e 	bic	r4, r2, lr, lsl #16
300084c8:	e0000498 	mul	r0, r8, r4
300084cc:	e004049c 	mul	r4, ip, r4
300084d0:	e008089e 	mul	r8, lr, r8
300084d4:	e00e0e9c 	mul	lr, ip, lr
300084d8:	e0948008 	adds	r8, r4, r8
300084dc:	228ee801 	addcs	lr, lr, #65536	; 0x10000
300084e0:	e0900808 	adds	r0, r0, r8, lsl #16
300084e4:	e0aee828 	adc	lr, lr, r8, lsr #16
300084e8:	e151000e 	cmp	r1, lr
300084ec:	3a000006 	bcc	3000850c <__divdi3+0x34c>
300084f0:	13a03000 	movne	r3, #0
300084f4:	03a03001 	moveq	r3, #1
300084f8:	e1500715 	cmp	r0, r5, lsl r7
300084fc:	93a07000 	movls	r7, #0
30008500:	82037001 	andhi	r7, r3, #1
30008504:	e3570000 	cmp	r7, #0
30008508:	0affff71 	beq	300082d4 <__divdi3+0x114>
3000850c:	e24aa001 	sub	sl, sl, #1
30008510:	e3a07000 	mov	r7, #0
30008514:	eaffff6e 	b	300082d4 <__divdi3+0x114>
30008518:	e2722000 	rsbs	r2, r2, #0
3000851c:	e2e33000 	rsc	r3, r3, #0
30008520:	e1e06006 	mvn	r6, r6
30008524:	eaffff2c 	b	300081dc <__divdi3+0x1c>
30008528:	e2700000 	rsbs	r0, r0, #0
3000852c:	e2e11000 	rsc	r1, r1, #0
30008530:	e3e06000 	mvn	r6, #0
30008534:	eaffff26 	b	300081d4 <__divdi3+0x14>
30008538:	e26a7020 	rsb	r7, sl, #32
3000853c:	e1a0e735 	lsr	lr, r5, r7
30008540:	e1a04a14 	lsl	r4, r4, sl
30008544:	e1a0873b 	lsr	r8, fp, r7
30008548:	e18eca1b 	orr	ip, lr, fp, lsl sl
3000854c:	e1a07824 	lsr	r7, r4, #16
30008550:	e1a01007 	mov	r1, r7
30008554:	e1a00008 	mov	r0, r8
30008558:	e58dc00c 	str	ip, [sp, #12]
3000855c:	ebfffbf5 	bl	30007538 <__aeabi_uidiv>
30008560:	e1a01007 	mov	r1, r7
30008564:	e1a0b000 	mov	fp, r0
30008568:	e1a00008 	mov	r0, r8
3000856c:	ebfffc2e 	bl	3000762c <__aeabi_uidivmod>
30008570:	e1a02804 	lsl	r2, r4, #16
30008574:	e1a08822 	lsr	r8, r2, #16
30008578:	e0020b98 	mul	r2, r8, fp
3000857c:	e59d900c 	ldr	r9, [sp, #12]
30008580:	e1a03829 	lsr	r3, r9, #16
30008584:	e1833801 	orr	r3, r3, r1, lsl #16
30008588:	e1520003 	cmp	r2, r3
3000858c:	9a000002 	bls	3000859c <__divdi3+0x3dc>
30008590:	e0933004 	adds	r3, r3, r4
30008594:	e24bb001 	sub	fp, fp, #1
30008598:	3a000028 	bcc	30008640 <__divdi3+0x480>
3000859c:	e0629003 	rsb	r9, r2, r3
300085a0:	e1a01007 	mov	r1, r7
300085a4:	e1a00009 	mov	r0, r9
300085a8:	e58d9008 	str	r9, [sp, #8]
300085ac:	ebfffbe1 	bl	30007538 <__aeabi_uidiv>
300085b0:	e59d1008 	ldr	r1, [sp, #8]
300085b4:	e1a09000 	mov	r9, r0
300085b8:	e1a00001 	mov	r0, r1
300085bc:	e1a01007 	mov	r1, r7
300085c0:	ebfffc19 	bl	3000762c <__aeabi_uidivmod>
300085c4:	e0020998 	mul	r2, r8, r9
300085c8:	e59dc00c 	ldr	ip, [sp, #12]
300085cc:	e1a0380c 	lsl	r3, ip, #16
300085d0:	e1a00823 	lsr	r0, r3, #16
300085d4:	e1803801 	orr	r3, r0, r1, lsl #16
300085d8:	e1520003 	cmp	r2, r3
300085dc:	9a000005 	bls	300085f8 <__divdi3+0x438>
300085e0:	e0933004 	adds	r3, r3, r4
300085e4:	e2499001 	sub	r9, r9, #1
300085e8:	2a000002 	bcs	300085f8 <__divdi3+0x438>
300085ec:	e1520003 	cmp	r2, r3
300085f0:	82499001 	subhi	r9, r9, #1
300085f4:	80833004 	addhi	r3, r3, r4
300085f8:	e1a05a15 	lsl	r5, r5, sl
300085fc:	e062a003 	rsb	sl, r2, r3
30008600:	e189280b 	orr	r2, r9, fp, lsl #16
30008604:	e58d200c 	str	r2, [sp, #12]
30008608:	eaffff4c 	b	30008340 <__divdi3+0x180>
3000860c:	e158000b 	cmp	r8, fp
30008610:	21540005 	cmpcs	r4, r5
30008614:	93a0a001 	movls	sl, #1
30008618:	9affff2d 	bls	300082d4 <__divdi3+0x114>
3000861c:	eaffff2a 	b	300082cc <__divdi3+0x10c>
30008620:	e15a0003 	cmp	sl, r3
30008624:	80833008 	addhi	r3, r3, r8
30008628:	82444001 	subhi	r4, r4, #1
3000862c:	eaffff9f 	b	300084b0 <__divdi3+0x2f0>
30008630:	e1500003 	cmp	r0, r3
30008634:	824bb001 	subhi	fp, fp, #1
30008638:	80833008 	addhi	r3, r3, r8
3000863c:	eaffff86 	b	3000845c <__divdi3+0x29c>
30008640:	e1520003 	cmp	r2, r3
30008644:	824bb001 	subhi	fp, fp, #1
30008648:	80833004 	addhi	r3, r3, r4
3000864c:	eaffffd2 	b	3000859c <__divdi3+0x3dc>

30008650 <__udivdi3>:
30008650:	e92d4ff0 	push	{r4, r5, r6, r7, r8, r9, sl, fp, lr}
30008654:	e3530000 	cmp	r3, #0
30008658:	e24dd00c 	sub	sp, sp, #12
3000865c:	e1a04001 	mov	r4, r1
30008660:	e1a07003 	mov	r7, r3
30008664:	e1a05000 	mov	r5, r0
30008668:	e1a0b002 	mov	fp, r2
3000866c:	e1a06002 	mov	r6, r2
30008670:	e1a08001 	mov	r8, r1
30008674:	1a000034 	bne	3000874c <__udivdi3+0xfc>
30008678:	e1520001 	cmp	r2, r1
3000867c:	9a000081 	bls	30008888 <__udivdi3+0x238>
30008680:	e1a00002 	mov	r0, r2
30008684:	eb000100 	bl	30008a8c <__clzsi2>
30008688:	e3500000 	cmp	r0, #0
3000868c:	12603020 	rsbne	r3, r0, #32
30008690:	11a03335 	lsrne	r3, r5, r3
30008694:	11a0601b 	lslne	r6, fp, r0
30008698:	11838014 	orrne	r8, r3, r4, lsl r0
3000869c:	e1a07826 	lsr	r7, r6, #16
300086a0:	11a05015 	lslne	r5, r5, r0
300086a4:	e1a01007 	mov	r1, r7
300086a8:	e1a00008 	mov	r0, r8
300086ac:	ebfffba1 	bl	30007538 <__aeabi_uidiv>
300086b0:	e1a01007 	mov	r1, r7
300086b4:	e1a0a000 	mov	sl, r0
300086b8:	e1a00008 	mov	r0, r8
300086bc:	ebfffbda 	bl	3000762c <__aeabi_uidivmod>
300086c0:	e1a04806 	lsl	r4, r6, #16
300086c4:	e1a04824 	lsr	r4, r4, #16
300086c8:	e0030a94 	mul	r3, r4, sl
300086cc:	e1a09825 	lsr	r9, r5, #16
300086d0:	e1899801 	orr	r9, r9, r1, lsl #16
300086d4:	e1530009 	cmp	r3, r9
300086d8:	9a000005 	bls	300086f4 <__udivdi3+0xa4>
300086dc:	e0999006 	adds	r9, r9, r6
300086e0:	e24aa001 	sub	sl, sl, #1
300086e4:	2a000002 	bcs	300086f4 <__udivdi3+0xa4>
300086e8:	e1530009 	cmp	r3, r9
300086ec:	824aa001 	subhi	sl, sl, #1
300086f0:	80899006 	addhi	r9, r9, r6
300086f4:	e0639009 	rsb	r9, r3, r9
300086f8:	e1a01007 	mov	r1, r7
300086fc:	e1a00009 	mov	r0, r9
30008700:	ebfffb8c 	bl	30007538 <__aeabi_uidiv>
30008704:	e1a01007 	mov	r1, r7
30008708:	e1a08000 	mov	r8, r0
3000870c:	e1a00009 	mov	r0, r9
30008710:	ebfffbc5 	bl	3000762c <__aeabi_uidivmod>
30008714:	e0040498 	mul	r4, r8, r4
30008718:	e1a03805 	lsl	r3, r5, #16
3000871c:	e1a02823 	lsr	r2, r3, #16
30008720:	e1825801 	orr	r5, r2, r1, lsl #16
30008724:	e1540005 	cmp	r4, r5
30008728:	9a000004 	bls	30008740 <__udivdi3+0xf0>
3000872c:	e0955006 	adds	r5, r5, r6
30008730:	e2488001 	sub	r8, r8, #1
30008734:	2a000001 	bcs	30008740 <__udivdi3+0xf0>
30008738:	e1540005 	cmp	r4, r5
3000873c:	82488001 	subhi	r8, r8, #1
30008740:	e188a80a 	orr	sl, r8, sl, lsl #16
30008744:	e3a01000 	mov	r1, #0
30008748:	ea00008c 	b	30008980 <__udivdi3+0x330>
3000874c:	e1530001 	cmp	r3, r1
30008750:	8a000088 	bhi	30008978 <__udivdi3+0x328>
30008754:	e1a00003 	mov	r0, r3
30008758:	eb0000cb 	bl	30008a8c <__clzsi2>
3000875c:	e250b000 	subs	fp, r0, #0
30008760:	0a00007f 	beq	30008964 <__udivdi3+0x314>
30008764:	e26b8020 	rsb	r8, fp, #32
30008768:	e1a01836 	lsr	r1, r6, r8
3000876c:	e1a0e835 	lsr	lr, r5, r8
30008770:	e1817b17 	orr	r7, r1, r7, lsl fp
30008774:	e1a09834 	lsr	r9, r4, r8
30008778:	e18eab14 	orr	sl, lr, r4, lsl fp
3000877c:	e1a08827 	lsr	r8, r7, #16
30008780:	e1a01008 	mov	r1, r8
30008784:	e1a00009 	mov	r0, r9
30008788:	e58da004 	str	sl, [sp, #4]
3000878c:	ebfffb69 	bl	30007538 <__aeabi_uidiv>
30008790:	e1a01008 	mov	r1, r8
30008794:	e1a0a000 	mov	sl, r0
30008798:	e1a00009 	mov	r0, r9
3000879c:	ebfffba2 	bl	3000762c <__aeabi_uidivmod>
300087a0:	e1a0c807 	lsl	ip, r7, #16
300087a4:	e1a0482c 	lsr	r4, ip, #16
300087a8:	e0020a94 	mul	r2, r4, sl
300087ac:	e59d3004 	ldr	r3, [sp, #4]
300087b0:	e1a09823 	lsr	r9, r3, #16
300087b4:	e1899801 	orr	r9, r9, r1, lsl #16
300087b8:	e1520009 	cmp	r2, r9
300087bc:	e1a03b16 	lsl	r3, r6, fp
300087c0:	9a000002 	bls	300087d0 <__udivdi3+0x180>
300087c4:	e0999007 	adds	r9, r9, r7
300087c8:	e24aa001 	sub	sl, sl, #1
300087cc:	3a0000a6 	bcc	30008a6c <__udivdi3+0x41c>
300087d0:	e0629009 	rsb	r9, r2, r9
300087d4:	e1a01008 	mov	r1, r8
300087d8:	e1a00009 	mov	r0, r9
300087dc:	e58d3000 	str	r3, [sp]
300087e0:	ebfffb54 	bl	30007538 <__aeabi_uidiv>
300087e4:	e1a01008 	mov	r1, r8
300087e8:	e1a06000 	mov	r6, r0
300087ec:	e1a00009 	mov	r0, r9
300087f0:	ebfffb8d 	bl	3000762c <__aeabi_uidivmod>
300087f4:	e0040496 	mul	r4, r6, r4
300087f8:	e59d3004 	ldr	r3, [sp, #4]
300087fc:	e1a00803 	lsl	r0, r3, #16
30008800:	e1a02820 	lsr	r2, r0, #16
30008804:	e1822801 	orr	r2, r2, r1, lsl #16
30008808:	e1540002 	cmp	r4, r2
3000880c:	e59d3000 	ldr	r3, [sp]
30008810:	9a000002 	bls	30008820 <__udivdi3+0x1d0>
30008814:	e0922007 	adds	r2, r2, r7
30008818:	e2466001 	sub	r6, r6, #1
3000881c:	3a00008e 	bcc	30008a5c <__udivdi3+0x40c>
30008820:	e0644002 	rsb	r4, r4, r2
30008824:	e186a80a 	orr	sl, r6, sl, lsl #16
30008828:	e1a0082a 	lsr	r0, sl, #16
3000882c:	e1a0e823 	lsr	lr, r3, #16
30008830:	e1cac800 	bic	ip, sl, r0, lsl #16
30008834:	e1c3680e 	bic	r6, r3, lr, lsl #16
30008838:	e002069c 	mul	r2, ip, r6
3000883c:	e0060690 	mul	r6, r0, r6
30008840:	e00c0c9e 	mul	ip, lr, ip
30008844:	e00e0e90 	mul	lr, r0, lr
30008848:	e096c00c 	adds	ip, r6, ip
3000884c:	228ee801 	addcs	lr, lr, #65536	; 0x10000
30008850:	e092280c 	adds	r2, r2, ip, lsl #16
30008854:	e0aee82c 	adc	lr, lr, ip, lsr #16
30008858:	e154000e 	cmp	r4, lr
3000885c:	3a000006 	bcc	3000887c <__udivdi3+0x22c>
30008860:	13a0c000 	movne	ip, #0
30008864:	03a0c001 	moveq	ip, #1
30008868:	e1520b15 	cmp	r2, r5, lsl fp
3000886c:	93a01000 	movls	r1, #0
30008870:	820c1001 	andhi	r1, ip, #1
30008874:	e3510000 	cmp	r1, #0
30008878:	0a000040 	beq	30008980 <__udivdi3+0x330>
3000887c:	e24aa001 	sub	sl, sl, #1
30008880:	e3a01000 	mov	r1, #0
30008884:	ea00003d 	b	30008980 <__udivdi3+0x330>
30008888:	e3520000 	cmp	r2, #0
3000888c:	1a000003 	bne	300088a0 <__udivdi3+0x250>
30008890:	e1a01002 	mov	r1, r2
30008894:	e3a00001 	mov	r0, #1
30008898:	ebfffb26 	bl	30007538 <__aeabi_uidiv>
3000889c:	e1a06000 	mov	r6, r0
300088a0:	e1a00006 	mov	r0, r6
300088a4:	eb000078 	bl	30008a8c <__clzsi2>
300088a8:	e250a000 	subs	sl, r0, #0
300088ac:	1a000038 	bne	30008994 <__udivdi3+0x344>
300088b0:	e1a08806 	lsl	r8, r6, #16
300088b4:	e0664004 	rsb	r4, r6, r4
300088b8:	e1a08828 	lsr	r8, r8, #16
300088bc:	e1a07826 	lsr	r7, r6, #16
300088c0:	e3a0b001 	mov	fp, #1
300088c4:	e1a01007 	mov	r1, r7
300088c8:	e1a00004 	mov	r0, r4
300088cc:	ebfffb19 	bl	30007538 <__aeabi_uidiv>
300088d0:	e1a01007 	mov	r1, r7
300088d4:	e1a0a000 	mov	sl, r0
300088d8:	e1a00004 	mov	r0, r4
300088dc:	ebfffb52 	bl	3000762c <__aeabi_uidivmod>
300088e0:	e0030a98 	mul	r3, r8, sl
300088e4:	e1a02825 	lsr	r2, r5, #16
300088e8:	e1829801 	orr	r9, r2, r1, lsl #16
300088ec:	e1530009 	cmp	r3, r9
300088f0:	9a000005 	bls	3000890c <__udivdi3+0x2bc>
300088f4:	e0999006 	adds	r9, r9, r6
300088f8:	e24aa001 	sub	sl, sl, #1
300088fc:	2a000002 	bcs	3000890c <__udivdi3+0x2bc>
30008900:	e1530009 	cmp	r3, r9
30008904:	824aa001 	subhi	sl, sl, #1
30008908:	80899006 	addhi	r9, r9, r6
3000890c:	e0639009 	rsb	r9, r3, r9
30008910:	e1a01007 	mov	r1, r7
30008914:	e1a00009 	mov	r0, r9
30008918:	ebfffb06 	bl	30007538 <__aeabi_uidiv>
3000891c:	e1a01007 	mov	r1, r7
30008920:	e1a04000 	mov	r4, r0
30008924:	e1a00009 	mov	r0, r9
30008928:	ebfffb3f 	bl	3000762c <__aeabi_uidivmod>
3000892c:	e0080894 	mul	r8, r4, r8
30008930:	e1a00805 	lsl	r0, r5, #16
30008934:	e1a05820 	lsr	r5, r0, #16
30008938:	e1855801 	orr	r5, r5, r1, lsl #16
3000893c:	e1580005 	cmp	r8, r5
30008940:	9a000004 	bls	30008958 <__udivdi3+0x308>
30008944:	e0955006 	adds	r5, r5, r6
30008948:	e2444001 	sub	r4, r4, #1
3000894c:	2a000001 	bcs	30008958 <__udivdi3+0x308>
30008950:	e1580005 	cmp	r8, r5
30008954:	82444001 	subhi	r4, r4, #1
30008958:	e184a80a 	orr	sl, r4, sl, lsl #16
3000895c:	e1a0100b 	mov	r1, fp
30008960:	ea000006 	b	30008980 <__udivdi3+0x330>
30008964:	e1570004 	cmp	r7, r4
30008968:	21560005 	cmpcs	r6, r5
3000896c:	91a0100b 	movls	r1, fp
30008970:	93a0a001 	movls	sl, #1
30008974:	9a000001 	bls	30008980 <__udivdi3+0x330>
30008978:	e3a01000 	mov	r1, #0
3000897c:	e1a0a001 	mov	sl, r1
30008980:	e1a04001 	mov	r4, r1
30008984:	e1a0000a 	mov	r0, sl
30008988:	e28dd00c 	add	sp, sp, #12
3000898c:	e8bd4ff0 	pop	{r4, r5, r6, r7, r8, r9, sl, fp, lr}
30008990:	e12fff1e 	bx	lr
30008994:	e26a1020 	rsb	r1, sl, #32
30008998:	e1a0e135 	lsr	lr, r5, r1
3000899c:	e1a06a16 	lsl	r6, r6, sl
300089a0:	e1a08134 	lsr	r8, r4, r1
300089a4:	e18eba14 	orr	fp, lr, r4, lsl sl
300089a8:	e1a07826 	lsr	r7, r6, #16
300089ac:	e1a01007 	mov	r1, r7
300089b0:	e1a00008 	mov	r0, r8
300089b4:	e58db004 	str	fp, [sp, #4]
300089b8:	ebfffade 	bl	30007538 <__aeabi_uidiv>
300089bc:	e1a01007 	mov	r1, r7
300089c0:	e1a0b000 	mov	fp, r0
300089c4:	e1a00008 	mov	r0, r8
300089c8:	ebfffb17 	bl	3000762c <__aeabi_uidivmod>
300089cc:	e1a09806 	lsl	r9, r6, #16
300089d0:	e1a08829 	lsr	r8, r9, #16
300089d4:	e0030b98 	mul	r3, r8, fp
300089d8:	e59d0004 	ldr	r0, [sp, #4]
300089dc:	e1a0c820 	lsr	ip, r0, #16
300089e0:	e18c4801 	orr	r4, ip, r1, lsl #16
300089e4:	e1530004 	cmp	r3, r4
300089e8:	9a000002 	bls	300089f8 <__udivdi3+0x3a8>
300089ec:	e0944006 	adds	r4, r4, r6
300089f0:	e24bb001 	sub	fp, fp, #1
300089f4:	3a000020 	bcc	30008a7c <__udivdi3+0x42c>
300089f8:	e0634004 	rsb	r4, r3, r4
300089fc:	e1a01007 	mov	r1, r7
30008a00:	e1a00004 	mov	r0, r4
30008a04:	ebfffacb 	bl	30007538 <__aeabi_uidiv>
30008a08:	e1a01007 	mov	r1, r7
30008a0c:	e1a09000 	mov	r9, r0
30008a10:	e1a00004 	mov	r0, r4
30008a14:	ebfffb04 	bl	3000762c <__aeabi_uidivmod>
30008a18:	e0020998 	mul	r2, r8, r9
30008a1c:	e59dc004 	ldr	ip, [sp, #4]
30008a20:	e1a0480c 	lsl	r4, ip, #16
30008a24:	e1a03824 	lsr	r3, r4, #16
30008a28:	e1834801 	orr	r4, r3, r1, lsl #16
30008a2c:	e1520004 	cmp	r2, r4
30008a30:	9a000005 	bls	30008a4c <__udivdi3+0x3fc>
30008a34:	e0944006 	adds	r4, r4, r6
30008a38:	e2499001 	sub	r9, r9, #1
30008a3c:	2a000002 	bcs	30008a4c <__udivdi3+0x3fc>
30008a40:	e1520004 	cmp	r2, r4
30008a44:	82499001 	subhi	r9, r9, #1
30008a48:	80844006 	addhi	r4, r4, r6
30008a4c:	e1a05a15 	lsl	r5, r5, sl
30008a50:	e0624004 	rsb	r4, r2, r4
30008a54:	e189b80b 	orr	fp, r9, fp, lsl #16
30008a58:	eaffff99 	b	300088c4 <__udivdi3+0x274>
30008a5c:	e1540002 	cmp	r4, r2
30008a60:	80822007 	addhi	r2, r2, r7
30008a64:	82466001 	subhi	r6, r6, #1
30008a68:	eaffff6c 	b	30008820 <__udivdi3+0x1d0>
30008a6c:	e1520009 	cmp	r2, r9
30008a70:	824aa001 	subhi	sl, sl, #1
30008a74:	80899007 	addhi	r9, r9, r7
30008a78:	eaffff54 	b	300087d0 <__udivdi3+0x180>
30008a7c:	e1530004 	cmp	r3, r4
30008a80:	824bb001 	subhi	fp, fp, #1
30008a84:	80844006 	addhi	r4, r4, r6
30008a88:	eaffffda 	b	300089f8 <__udivdi3+0x3a8>

30008a8c <__clzsi2>:
30008a8c:	e3a0101c 	mov	r1, #28
30008a90:	e3500801 	cmp	r0, #65536	; 0x10000
30008a94:	21a00820 	lsrcs	r0, r0, #16
30008a98:	22411010 	subcs	r1, r1, #16
30008a9c:	e3500c01 	cmp	r0, #256	; 0x100
30008aa0:	21a00420 	lsrcs	r0, r0, #8
30008aa4:	22411008 	subcs	r1, r1, #8
30008aa8:	e3500010 	cmp	r0, #16
30008aac:	21a00220 	lsrcs	r0, r0, #4
30008ab0:	22411004 	subcs	r1, r1, #4
30008ab4:	e28f2008 	add	r2, pc, #8
30008ab8:	e7d20000 	ldrb	r0, [r2, r0]
30008abc:	e0800001 	add	r0, r0, r1
30008ac0:	e12fff1e 	bx	lr
30008ac4:	02020304 	andeq	r0, r2, #4, 6	; 0x10000000
30008ac8:	01010101 	tsteq	r1, r1, lsl #2
	...

Disassembly of section .rodata:

30008ad8 <__RO_BASE__>:
30008ad8:	30008c80 	andcc	r8, r0, r0, lsl #25

30008adc <lconv>:
30008adc:	30008c7c 	andcc	r8, r0, ip, ror ip
30008ae0:	30008c6c 	andcc	r8, r0, ip, ror #24
30008ae4:	30008c6c 	andcc	r8, r0, ip, ror #24
30008ae8:	30008c6c 	andcc	r8, r0, ip, ror #24
30008aec:	30008c6c 	andcc	r8, r0, ip, ror #24
30008af0:	30008c6c 	andcc	r8, r0, ip, ror #24
30008af4:	30008c6c 	andcc	r8, r0, ip, ror #24
30008af8:	30008c6c 	andcc	r8, r0, ip, ror #24
30008afc:	30008c6c 	andcc	r8, r0, ip, ror #24
30008b00:	30008c6c 	andcc	r8, r0, ip, ror #24
30008b04:	ffffffff 	undefined instruction 0xffffffff
30008b08:	ffffffff 	undefined instruction 0xffffffff

30008b0c <_global_impure_ptr>:
30008b0c:	30008d48 	andcc	r8, r0, r8, asr #26

30008b10 <blanks.3587>:
30008b10:	20202020 	eorcs	r2, r0, r0, lsr #32
30008b14:	20202020 	eorcs	r2, r0, r0, lsr #32
30008b18:	20202020 	eorcs	r2, r0, r0, lsr #32
30008b1c:	20202020 	eorcs	r2, r0, r0, lsr #32

30008b20 <zeroes.3588>:
30008b20:	30303030 	eorscc	r3, r0, r0, lsr r0
30008b24:	30303030 	eorscc	r3, r0, r0, lsr r0
30008b28:	30303030 	eorscc	r3, r0, r0, lsr r0
30008b2c:	30303030 	eorscc	r3, r0, r0, lsr r0

30008b30 <__mprec_tens>:
30008b30:	00000000 	andeq	r0, r0, r0
30008b34:	3ff00000 	svccc	0x00f00000	; IMB
30008b38:	00000000 	andeq	r0, r0, r0
30008b3c:	40240000 	eormi	r0, r4, r0
30008b40:	00000000 	andeq	r0, r0, r0
30008b44:	40590000 	subsmi	r0, r9, r0
30008b48:	00000000 	andeq	r0, r0, r0
30008b4c:	408f4000 	addmi	r4, pc, r0
30008b50:	00000000 	andeq	r0, r0, r0
30008b54:	40c38800 	sbcmi	r8, r3, r0, lsl #16
30008b58:	00000000 	andeq	r0, r0, r0
30008b5c:	40f86a00 	rscsmi	r6, r8, r0, lsl #20
30008b60:	00000000 	andeq	r0, r0, r0
30008b64:	412e8480 	smlawbmi	lr, r0, r4, r8
30008b68:	00000000 	andeq	r0, r0, r0
30008b6c:	416312d0 	ldrdmi	r1, [r3, #-32]!	; 0xffffffe0
30008b70:	00000000 	andeq	r0, r0, r0
30008b74:	4197d784 	orrsmi	sp, r7, r4, lsl #15
30008b78:	00000000 	andeq	r0, r0, r0
30008b7c:	41cdcd65 	bicmi	ip, sp, r5, ror #26
30008b80:	20000000 	andcs	r0, r0, r0
30008b84:	4202a05f 	andmi	sl, r2, #95	; 0x5f
30008b88:	e8000000 	stmda	r0, {}
30008b8c:	42374876 	eorsmi	r4, r7, #7733248	; 0x760000
30008b90:	a2000000 	andge	r0, r0, #0
30008b94:	426d1a94 	rsbmi	r1, sp, #148, 20	; 0x94000
30008b98:	e5400000 	strb	r0, [r0, #-0]
30008b9c:	42a2309c 	adcmi	r3, r2, #156	; 0x9c
30008ba0:	1e900000 	cdpne	0, 9, cr0, cr0, cr0, {0}
30008ba4:	42d6bcc4 	sbcsmi	fp, r6, #196, 24	; 0xc400
30008ba8:	26340000 	ldrtcs	r0, [r4], -r0
30008bac:	430c6bf5 	movwmi	r6, #52213	; 0xcbf5
30008bb0:	37e08000 	strbcc	r8, [r0, r0]!
30008bb4:	4341c379 	movtmi	ip, #4985	; 0x1379
30008bb8:	85d8a000 	ldrbhi	sl, [r8]
30008bbc:	43763457 	cmnmi	r6, #1459617792	; 0x57000000
30008bc0:	674ec800 	strbvs	ip, [lr, -r0, lsl #16]
30008bc4:	43abc16d 	undefined instruction 0x43abc16d
30008bc8:	60913d00 	addsvs	r3, r1, r0, lsl #26
30008bcc:	43e158e4 	mvnmi	r5, #228, 16	; 0xe40000
30008bd0:	78b58c40 	ldmvc	r5!, {r6, sl, fp, pc}
30008bd4:	4415af1d 	ldrmi	sl, [r5], #-3869	; 0xf1d
30008bd8:	d6e2ef50 	usatle	lr, #2, r0, asr #30
30008bdc:	444b1ae4 	strbmi	r1, [fp], #-2788	; 0xae4
30008be0:	064dd592 	undefined instruction 0x064dd592
30008be4:	4480f0cf 	strmi	pc, [r0], #207	; 0xcf
30008be8:	c7e14af6 	undefined instruction 0xc7e14af6
30008bec:	44b52d02 	ldrtmi	r2, [r5], #3330	; 0xd02
30008bf0:	79d99db4 	ldmibvc	r9, {r2, r4, r5, r7, r8, sl, fp, ip, pc}^
30008bf4:	44ea7843 	strbtmi	r7, [sl], #2115	; 0x843

30008bf8 <p05.2435>:
30008bf8:	00000005 	andeq	r0, r0, r5
30008bfc:	00000019 	andeq	r0, r0, r9, lsl r0
30008c00:	0000007d 	andeq	r0, r0, sp, ror r0
30008c04:	00000000 	andeq	r0, r0, r0

30008c08 <__mprec_bigtens>:
30008c08:	37e08000 	strbcc	r8, [r0, r0]!
30008c0c:	4341c379 	movtmi	ip, #4985	; 0x1379
30008c10:	b5056e17 	strlt	r6, [r5, #-3607]	; 0xe17
30008c14:	4693b8b5 	undefined instruction 0x4693b8b5
30008c18:	e93ff9f5 	ldmdb	pc!, {r0, r2, r4, r5, r6, r7, r8, fp, ip, sp, lr, pc}
30008c1c:	4d384f03 	ldcmi	15, cr4, [r8, #-12]!
30008c20:	f9301d32 	undefined instruction 0xf9301d32
30008c24:	5a827748 	bpl	2e0a694c <IRQ_STACK_SIZE+0x2e0a294c>
30008c28:	7f73bf3c 	svcvc	0x0073bf3c
30008c2c:	75154fdd 	ldrvc	r4, [r5, #-4061]	; 0xfdd

30008c30 <__mprec_tinytens>:
30008c30:	97d889bc 	undefined instruction 0x97d889bc
30008c34:	3c9cd2b2 	lfmcc	f5, 1, [ip], {178}	; 0xb2
30008c38:	d5a8a733 	strle	sl, [r8, #1843]!	; 0x733
30008c3c:	3949f623 	stmdbcc	r9, {r0, r1, r5, r9, sl, ip, sp, lr, pc}^
30008c40:	44f4a73d 	ldrbtmi	sl, [r4], #1853	; 0x73d
30008c44:	32a50ffd 	adccc	r0, r5, #1012	; 0x3f4
30008c48:	cf8c979d 	svcgt	0x008c979d
30008c4c:	255bba08 	ldrbcs	fp, [fp, #-2568]	; 0xa08
30008c50:	64ac6f43 	strtvs	r6, [ip], #3907	; 0xf43
30008c54:	0ac80628 	beq	2f20a4fc <IRQ_STACK_SIZE+0x2f2064fc>
30008c58:	2059454b 	subscs	r4, r9, fp, asr #10
30008c5c:	2044454c 	subcs	r4, r4, ip, asr #10
30008c60:	47474f54 	smlsldmi	r4, r7, r4, pc
30008c64:	5420454c 	strtpl	r4, [r0], #-1356	; 0x54c
30008c68:	0a545345 	beq	3151d984 <__ZI_LIMIT__+0x15143c4>
30008c6c:	00000000 	andeq	r0, r0, r0
30008c70:	25206425 	strcs	r6, [r0, #-1061]!	; 0x425
30008c74:	00000a64 	andeq	r0, r0, r4, ror #20
30008c78:	00000043 	andeq	r0, r0, r3, asr #32
30008c7c:	0000002e 	andeq	r0, r0, lr, lsr #32
30008c80:	2d4f5349 	stclcs	3, cr5, [pc, #-292]	; 30008b64 <__mprec_tens+0x34>
30008c84:	39353838 	ldmdbcc	r5!, {r3, r4, r5, fp, ip, sp}
30008c88:	0000312d 	andeq	r3, r0, sp, lsr #2
30008c8c:	33323130 	teqcc	r2, #48, 2
30008c90:	37363534 	undefined instruction 0x37363534
30008c94:	42413938 	submi	r3, r1, #56, 18	; 0xe0000
30008c98:	46454443 	strbmi	r4, [r5], -r3, asr #8
30008c9c:	00000000 	andeq	r0, r0, r0
30008ca0:	00464e49 	subeq	r4, r6, r9, asr #28
30008ca4:	00666e69 	rsbeq	r6, r6, r9, ror #28
30008ca8:	004e414e 	subeq	r4, lr, lr, asr #2
30008cac:	006e616e 	rsbeq	r6, lr, lr, ror #2
30008cb0:	33323130 	teqcc	r2, #48, 2
30008cb4:	37363534 	undefined instruction 0x37363534
30008cb8:	62613938 	rsbvs	r3, r1, #56, 18	; 0xe0000
30008cbc:	66656463 	strbtvs	r6, [r5], -r3, ror #8
30008cc0:	00000000 	andeq	r0, r0, r0
30008cc4:	6c756e28 	ldclvs	14, cr6, [r5], #-160	; 0xffffff60
30008cc8:	0000296c 	andeq	r2, r0, ip, ror #18
30008ccc:	00000030 	andeq	r0, r0, r0, lsr r0
30008cd0:	69666e49 	stmdbvs	r6!, {r0, r3, r6, r9, sl, fp, sp, lr}^
30008cd4:	7974696e 	ldmdbvc	r4!, {r1, r2, r3, r5, r6, r8, fp, sp, lr}^
30008cd8:	00000000 	andeq	r0, r0, r0
30008cdc:	004e614e 	subeq	r6, lr, lr, asr #2

Disassembly of section .ARM.exidx:

30008ce0 <.ARM.exidx>:
30008ce0:	7ffff4e0 	svcvc	0x00fff4e0
30008ce4:	00000001 	andeq	r0, r0, r1

Disassembly of section .data:

30008ce8 <__RW_BASE__>:
30008ce8:	00000001 	andeq	r0, r0, r1
30008cec:	00000002 	andeq	r0, r0, r2
30008cf0:	00000001 	andeq	r0, r0, r1
30008cf4:	00000003 	andeq	r0, r0, r3
30008cf8:	00000001 	andeq	r0, r0, r1
30008cfc:	00000002 	andeq	r0, r0, r2
30008d00:	00000001 	andeq	r0, r0, r1
30008d04:	00000004 	andeq	r0, r0, r4
30008d08:	00000001 	andeq	r0, r0, r1
30008d0c:	00000002 	andeq	r0, r0, r2
30008d10:	00000001 	andeq	r0, r0, r1
30008d14:	00000003 	andeq	r0, r0, r3
30008d18:	00000001 	andeq	r0, r0, r1
30008d1c:	00000002 	andeq	r0, r0, r2
30008d20:	00000001 	andeq	r0, r0, r1
30008d24:	00000000 	andeq	r0, r0, r0

30008d28 <heap>:
30008d28:	30800000 	addcc	r0, r0, r0

30008d2c <__mb_cur_max>:
30008d2c:	00000001 	andeq	r0, r0, r1

30008d30 <__lc_ctype>:
30008d30:	00000043 	andeq	r0, r0, r3, asr #32
	...

30008d40 <_impure_ptr>:
30008d40:	30008d48 	andcc	r8, r0, r8, asr #26
30008d44:	00000000 	andeq	r0, r0, r0

30008d48 <impure_data>:
30008d48:	00000000 	andeq	r0, r0, r0
30008d4c:	30009034 	andcc	r9, r0, r4, lsr r0
30008d50:	3000909c 	mulcc	r0, ip, r0
30008d54:	30009104 	andcc	r9, r0, r4, lsl #2
	...
30008d7c:	30008c78 	andcc	r8, r0, r8, ror ip
	...
30008df0:	00000001 	andeq	r0, r0, r1
30008df4:	00000000 	andeq	r0, r0, r0
30008df8:	abcd330e 	blge	2f355a38 <IRQ_STACK_SIZE+0x2f351a38>
30008dfc:	e66d1234 	undefined instruction 0xe66d1234
30008e00:	0005deec 	andeq	sp, r5, ip, ror #29
30008e04:	0000000b 	andeq	r0, r0, fp
	...

30009170 <__malloc_av_>:
	...
30009178:	30009170 	andcc	r9, r0, r0, ror r1
3000917c:	30009170 	andcc	r9, r0, r0, ror r1
30009180:	30009178 	andcc	r9, r0, r8, ror r1
30009184:	30009178 	andcc	r9, r0, r8, ror r1
30009188:	30009180 	andcc	r9, r0, r0, lsl #3
3000918c:	30009180 	andcc	r9, r0, r0, lsl #3
30009190:	30009188 	andcc	r9, r0, r8, lsl #3
30009194:	30009188 	andcc	r9, r0, r8, lsl #3
30009198:	30009190 	mulcc	r0, r0, r1
3000919c:	30009190 	mulcc	r0, r0, r1
300091a0:	30009198 	mulcc	r0, r8, r1
300091a4:	30009198 	mulcc	r0, r8, r1
300091a8:	300091a0 	andcc	r9, r0, r0, lsr #3
300091ac:	300091a0 	andcc	r9, r0, r0, lsr #3
300091b0:	300091a8 	andcc	r9, r0, r8, lsr #3
300091b4:	300091a8 	andcc	r9, r0, r8, lsr #3
300091b8:	300091b0 	strhcc	r9, [r0], -r0
300091bc:	300091b0 	strhcc	r9, [r0], -r0
300091c0:	300091b8 	strhcc	r9, [r0], -r8
300091c4:	300091b8 	strhcc	r9, [r0], -r8
300091c8:	300091c0 	andcc	r9, r0, r0, asr #3
300091cc:	300091c0 	andcc	r9, r0, r0, asr #3
300091d0:	300091c8 	andcc	r9, r0, r8, asr #3
300091d4:	300091c8 	andcc	r9, r0, r8, asr #3
300091d8:	300091d0 	ldrdcc	r9, [r0], -r0
300091dc:	300091d0 	ldrdcc	r9, [r0], -r0
300091e0:	300091d8 	ldrdcc	r9, [r0], -r8
300091e4:	300091d8 	ldrdcc	r9, [r0], -r8
300091e8:	300091e0 	andcc	r9, r0, r0, ror #3
300091ec:	300091e0 	andcc	r9, r0, r0, ror #3
300091f0:	300091e8 	andcc	r9, r0, r8, ror #3
300091f4:	300091e8 	andcc	r9, r0, r8, ror #3
300091f8:	300091f0 	strdcc	r9, [r0], -r0
300091fc:	300091f0 	strdcc	r9, [r0], -r0
30009200:	300091f8 	strdcc	r9, [r0], -r8
30009204:	300091f8 	strdcc	r9, [r0], -r8
30009208:	30009200 	andcc	r9, r0, r0, lsl #4
3000920c:	30009200 	andcc	r9, r0, r0, lsl #4
30009210:	30009208 	andcc	r9, r0, r8, lsl #4
30009214:	30009208 	andcc	r9, r0, r8, lsl #4
30009218:	30009210 	andcc	r9, r0, r0, lsl r2
3000921c:	30009210 	andcc	r9, r0, r0, lsl r2
30009220:	30009218 	andcc	r9, r0, r8, lsl r2
30009224:	30009218 	andcc	r9, r0, r8, lsl r2
30009228:	30009220 	andcc	r9, r0, r0, lsr #4
3000922c:	30009220 	andcc	r9, r0, r0, lsr #4
30009230:	30009228 	andcc	r9, r0, r8, lsr #4
30009234:	30009228 	andcc	r9, r0, r8, lsr #4
30009238:	30009230 	andcc	r9, r0, r0, lsr r2
3000923c:	30009230 	andcc	r9, r0, r0, lsr r2
30009240:	30009238 	andcc	r9, r0, r8, lsr r2
30009244:	30009238 	andcc	r9, r0, r8, lsr r2
30009248:	30009240 	andcc	r9, r0, r0, asr #4
3000924c:	30009240 	andcc	r9, r0, r0, asr #4
30009250:	30009248 	andcc	r9, r0, r8, asr #4
30009254:	30009248 	andcc	r9, r0, r8, asr #4
30009258:	30009250 	andcc	r9, r0, r0, asr r2
3000925c:	30009250 	andcc	r9, r0, r0, asr r2
30009260:	30009258 	andcc	r9, r0, r8, asr r2
30009264:	30009258 	andcc	r9, r0, r8, asr r2
30009268:	30009260 	andcc	r9, r0, r0, ror #4
3000926c:	30009260 	andcc	r9, r0, r0, ror #4
30009270:	30009268 	andcc	r9, r0, r8, ror #4
30009274:	30009268 	andcc	r9, r0, r8, ror #4
30009278:	30009270 	andcc	r9, r0, r0, ror r2
3000927c:	30009270 	andcc	r9, r0, r0, ror r2
30009280:	30009278 	andcc	r9, r0, r8, ror r2
30009284:	30009278 	andcc	r9, r0, r8, ror r2
30009288:	30009280 	andcc	r9, r0, r0, lsl #5
3000928c:	30009280 	andcc	r9, r0, r0, lsl #5
30009290:	30009288 	andcc	r9, r0, r8, lsl #5
30009294:	30009288 	andcc	r9, r0, r8, lsl #5
30009298:	30009290 	mulcc	r0, r0, r2
3000929c:	30009290 	mulcc	r0, r0, r2
300092a0:	30009298 	mulcc	r0, r8, r2
300092a4:	30009298 	mulcc	r0, r8, r2
300092a8:	300092a0 	andcc	r9, r0, r0, lsr #5
300092ac:	300092a0 	andcc	r9, r0, r0, lsr #5
300092b0:	300092a8 	andcc	r9, r0, r8, lsr #5
300092b4:	300092a8 	andcc	r9, r0, r8, lsr #5
300092b8:	300092b0 	strhcc	r9, [r0], -r0
300092bc:	300092b0 	strhcc	r9, [r0], -r0
300092c0:	300092b8 	strhcc	r9, [r0], -r8
300092c4:	300092b8 	strhcc	r9, [r0], -r8
300092c8:	300092c0 	andcc	r9, r0, r0, asr #5
300092cc:	300092c0 	andcc	r9, r0, r0, asr #5
300092d0:	300092c8 	andcc	r9, r0, r8, asr #5
300092d4:	300092c8 	andcc	r9, r0, r8, asr #5
300092d8:	300092d0 	ldrdcc	r9, [r0], -r0
300092dc:	300092d0 	ldrdcc	r9, [r0], -r0
300092e0:	300092d8 	ldrdcc	r9, [r0], -r8
300092e4:	300092d8 	ldrdcc	r9, [r0], -r8
300092e8:	300092e0 	andcc	r9, r0, r0, ror #5
300092ec:	300092e0 	andcc	r9, r0, r0, ror #5
300092f0:	300092e8 	andcc	r9, r0, r8, ror #5
300092f4:	300092e8 	andcc	r9, r0, r8, ror #5
300092f8:	300092f0 	strdcc	r9, [r0], -r0
300092fc:	300092f0 	strdcc	r9, [r0], -r0
30009300:	300092f8 	strdcc	r9, [r0], -r8
30009304:	300092f8 	strdcc	r9, [r0], -r8
30009308:	30009300 	andcc	r9, r0, r0, lsl #6
3000930c:	30009300 	andcc	r9, r0, r0, lsl #6
30009310:	30009308 	andcc	r9, r0, r8, lsl #6
30009314:	30009308 	andcc	r9, r0, r8, lsl #6
30009318:	30009310 	andcc	r9, r0, r0, lsl r3
3000931c:	30009310 	andcc	r9, r0, r0, lsl r3
30009320:	30009318 	andcc	r9, r0, r8, lsl r3
30009324:	30009318 	andcc	r9, r0, r8, lsl r3
30009328:	30009320 	andcc	r9, r0, r0, lsr #6
3000932c:	30009320 	andcc	r9, r0, r0, lsr #6
30009330:	30009328 	andcc	r9, r0, r8, lsr #6
30009334:	30009328 	andcc	r9, r0, r8, lsr #6
30009338:	30009330 	andcc	r9, r0, r0, lsr r3
3000933c:	30009330 	andcc	r9, r0, r0, lsr r3
30009340:	30009338 	andcc	r9, r0, r8, lsr r3
30009344:	30009338 	andcc	r9, r0, r8, lsr r3
30009348:	30009340 	andcc	r9, r0, r0, asr #6
3000934c:	30009340 	andcc	r9, r0, r0, asr #6
30009350:	30009348 	andcc	r9, r0, r8, asr #6
30009354:	30009348 	andcc	r9, r0, r8, asr #6
30009358:	30009350 	andcc	r9, r0, r0, asr r3
3000935c:	30009350 	andcc	r9, r0, r0, asr r3
30009360:	30009358 	andcc	r9, r0, r8, asr r3
30009364:	30009358 	andcc	r9, r0, r8, asr r3
30009368:	30009360 	andcc	r9, r0, r0, ror #6
3000936c:	30009360 	andcc	r9, r0, r0, ror #6
30009370:	30009368 	andcc	r9, r0, r8, ror #6
30009374:	30009368 	andcc	r9, r0, r8, ror #6
30009378:	30009370 	andcc	r9, r0, r0, ror r3
3000937c:	30009370 	andcc	r9, r0, r0, ror r3
30009380:	30009378 	andcc	r9, r0, r8, ror r3
30009384:	30009378 	andcc	r9, r0, r8, ror r3
30009388:	30009380 	andcc	r9, r0, r0, lsl #7
3000938c:	30009380 	andcc	r9, r0, r0, lsl #7
30009390:	30009388 	andcc	r9, r0, r8, lsl #7
30009394:	30009388 	andcc	r9, r0, r8, lsl #7
30009398:	30009390 	mulcc	r0, r0, r3
3000939c:	30009390 	mulcc	r0, r0, r3
300093a0:	30009398 	mulcc	r0, r8, r3
300093a4:	30009398 	mulcc	r0, r8, r3
300093a8:	300093a0 	andcc	r9, r0, r0, lsr #7
300093ac:	300093a0 	andcc	r9, r0, r0, lsr #7
300093b0:	300093a8 	andcc	r9, r0, r8, lsr #7
300093b4:	300093a8 	andcc	r9, r0, r8, lsr #7
300093b8:	300093b0 	strhcc	r9, [r0], -r0
300093bc:	300093b0 	strhcc	r9, [r0], -r0
300093c0:	300093b8 	strhcc	r9, [r0], -r8
300093c4:	300093b8 	strhcc	r9, [r0], -r8
300093c8:	300093c0 	andcc	r9, r0, r0, asr #7
300093cc:	300093c0 	andcc	r9, r0, r0, asr #7
300093d0:	300093c8 	andcc	r9, r0, r8, asr #7
300093d4:	300093c8 	andcc	r9, r0, r8, asr #7
300093d8:	300093d0 	ldrdcc	r9, [r0], -r0
300093dc:	300093d0 	ldrdcc	r9, [r0], -r0
300093e0:	300093d8 	ldrdcc	r9, [r0], -r8
300093e4:	300093d8 	ldrdcc	r9, [r0], -r8
300093e8:	300093e0 	andcc	r9, r0, r0, ror #7
300093ec:	300093e0 	andcc	r9, r0, r0, ror #7
300093f0:	300093e8 	andcc	r9, r0, r8, ror #7
300093f4:	300093e8 	andcc	r9, r0, r8, ror #7
300093f8:	300093f0 	strdcc	r9, [r0], -r0
300093fc:	300093f0 	strdcc	r9, [r0], -r0
30009400:	300093f8 	strdcc	r9, [r0], -r8
30009404:	300093f8 	strdcc	r9, [r0], -r8
30009408:	30009400 	andcc	r9, r0, r0, lsl #8
3000940c:	30009400 	andcc	r9, r0, r0, lsl #8
30009410:	30009408 	andcc	r9, r0, r8, lsl #8
30009414:	30009408 	andcc	r9, r0, r8, lsl #8
30009418:	30009410 	andcc	r9, r0, r0, lsl r4
3000941c:	30009410 	andcc	r9, r0, r0, lsl r4
30009420:	30009418 	andcc	r9, r0, r8, lsl r4
30009424:	30009418 	andcc	r9, r0, r8, lsl r4
30009428:	30009420 	andcc	r9, r0, r0, lsr #8
3000942c:	30009420 	andcc	r9, r0, r0, lsr #8
30009430:	30009428 	andcc	r9, r0, r8, lsr #8
30009434:	30009428 	andcc	r9, r0, r8, lsr #8
30009438:	30009430 	andcc	r9, r0, r0, lsr r4
3000943c:	30009430 	andcc	r9, r0, r0, lsr r4
30009440:	30009438 	andcc	r9, r0, r8, lsr r4
30009444:	30009438 	andcc	r9, r0, r8, lsr r4
30009448:	30009440 	andcc	r9, r0, r0, asr #8
3000944c:	30009440 	andcc	r9, r0, r0, asr #8
30009450:	30009448 	andcc	r9, r0, r8, asr #8
30009454:	30009448 	andcc	r9, r0, r8, asr #8
30009458:	30009450 	andcc	r9, r0, r0, asr r4
3000945c:	30009450 	andcc	r9, r0, r0, asr r4
30009460:	30009458 	andcc	r9, r0, r8, asr r4
30009464:	30009458 	andcc	r9, r0, r8, asr r4
30009468:	30009460 	andcc	r9, r0, r0, ror #8
3000946c:	30009460 	andcc	r9, r0, r0, ror #8
30009470:	30009468 	andcc	r9, r0, r8, ror #8
30009474:	30009468 	andcc	r9, r0, r8, ror #8
30009478:	30009470 	andcc	r9, r0, r0, ror r4
3000947c:	30009470 	andcc	r9, r0, r0, ror r4
30009480:	30009478 	andcc	r9, r0, r8, ror r4
30009484:	30009478 	andcc	r9, r0, r8, ror r4
30009488:	30009480 	andcc	r9, r0, r0, lsl #9
3000948c:	30009480 	andcc	r9, r0, r0, lsl #9
30009490:	30009488 	andcc	r9, r0, r8, lsl #9
30009494:	30009488 	andcc	r9, r0, r8, lsl #9
30009498:	30009490 	mulcc	r0, r0, r4
3000949c:	30009490 	mulcc	r0, r0, r4
300094a0:	30009498 	mulcc	r0, r8, r4
300094a4:	30009498 	mulcc	r0, r8, r4
300094a8:	300094a0 	andcc	r9, r0, r0, lsr #9
300094ac:	300094a0 	andcc	r9, r0, r0, lsr #9
300094b0:	300094a8 	andcc	r9, r0, r8, lsr #9
300094b4:	300094a8 	andcc	r9, r0, r8, lsr #9
300094b8:	300094b0 	strhcc	r9, [r0], -r0
300094bc:	300094b0 	strhcc	r9, [r0], -r0
300094c0:	300094b8 	strhcc	r9, [r0], -r8
300094c4:	300094b8 	strhcc	r9, [r0], -r8
300094c8:	300094c0 	andcc	r9, r0, r0, asr #9
300094cc:	300094c0 	andcc	r9, r0, r0, asr #9
300094d0:	300094c8 	andcc	r9, r0, r8, asr #9
300094d4:	300094c8 	andcc	r9, r0, r8, asr #9
300094d8:	300094d0 	ldrdcc	r9, [r0], -r0
300094dc:	300094d0 	ldrdcc	r9, [r0], -r0
300094e0:	300094d8 	ldrdcc	r9, [r0], -r8
300094e4:	300094d8 	ldrdcc	r9, [r0], -r8
300094e8:	300094e0 	andcc	r9, r0, r0, ror #9
300094ec:	300094e0 	andcc	r9, r0, r0, ror #9
300094f0:	300094e8 	andcc	r9, r0, r8, ror #9
300094f4:	300094e8 	andcc	r9, r0, r8, ror #9
300094f8:	300094f0 	strdcc	r9, [r0], -r0
300094fc:	300094f0 	strdcc	r9, [r0], -r0
30009500:	300094f8 	strdcc	r9, [r0], -r8
30009504:	300094f8 	strdcc	r9, [r0], -r8
30009508:	30009500 	andcc	r9, r0, r0, lsl #10
3000950c:	30009500 	andcc	r9, r0, r0, lsl #10
30009510:	30009508 	andcc	r9, r0, r8, lsl #10
30009514:	30009508 	andcc	r9, r0, r8, lsl #10
30009518:	30009510 	andcc	r9, r0, r0, lsl r5
3000951c:	30009510 	andcc	r9, r0, r0, lsl r5
30009520:	30009518 	andcc	r9, r0, r8, lsl r5
30009524:	30009518 	andcc	r9, r0, r8, lsl r5
30009528:	30009520 	andcc	r9, r0, r0, lsr #10
3000952c:	30009520 	andcc	r9, r0, r0, lsr #10
30009530:	30009528 	andcc	r9, r0, r8, lsr #10
30009534:	30009528 	andcc	r9, r0, r8, lsr #10
30009538:	30009530 	andcc	r9, r0, r0, lsr r5
3000953c:	30009530 	andcc	r9, r0, r0, lsr r5
30009540:	30009538 	andcc	r9, r0, r8, lsr r5
30009544:	30009538 	andcc	r9, r0, r8, lsr r5
30009548:	30009540 	andcc	r9, r0, r0, asr #10
3000954c:	30009540 	andcc	r9, r0, r0, asr #10
30009550:	30009548 	andcc	r9, r0, r8, asr #10
30009554:	30009548 	andcc	r9, r0, r8, asr #10
30009558:	30009550 	andcc	r9, r0, r0, asr r5
3000955c:	30009550 	andcc	r9, r0, r0, asr r5
30009560:	30009558 	andcc	r9, r0, r8, asr r5
30009564:	30009558 	andcc	r9, r0, r8, asr r5
30009568:	30009560 	andcc	r9, r0, r0, ror #10
3000956c:	30009560 	andcc	r9, r0, r0, ror #10
30009570:	30009568 	andcc	r9, r0, r8, ror #10
30009574:	30009568 	andcc	r9, r0, r8, ror #10

30009578 <__malloc_sbrk_base>:
30009578:	ffffffff 	undefined instruction 0xffffffff

3000957c <__malloc_trim_threshold>:
3000957c:	00020000 	andeq	r0, r2, r0

Disassembly of section .bss:

30009580 <__ZI_BASE__>:
30009580:	00000000 	andeq	r0, r0, r0

30009584 <__mlocale_changed>:
30009584:	00000000 	andeq	r0, r0, r0

30009588 <_PathLocale>:
30009588:	00000000 	andeq	r0, r0, r0

3000958c <__malloc_top_pad>:
3000958c:	00000000 	andeq	r0, r0, r0

30009590 <__malloc_current_mallinfo>:
	...

300095b8 <__malloc_max_sbrked_mem>:
300095b8:	00000000 	andeq	r0, r0, r0

300095bc <__malloc_max_total_mem>:
300095bc:	00000000 	andeq	r0, r0, r0

300095c0 <__ZI_LIMIT__>:
300095c0:	00000000 	andeq	r0, r0, r0

Disassembly of section .comment:

00000000 <.comment>:
   0:	43434700 	movtmi	r4, #14080	; 0x3700
   4:	5328203a 	teqpl	r8, #58	; 0x3a
   8:	6372756f 	cmnvs	r2, #465567744	; 0x1bc00000
   c:	20797265 	rsbscs	r7, r9, r5, ror #4
  10:	202b2b47 	eorcs	r2, fp, r7, asr #22
  14:	6574694c 	ldrbvs	r6, [r4, #-2380]!	; 0x94c
  18:	31303220 	teqcc	r0, r0, lsr #4
  1c:	2d317130 	ldfcss	f7, [r1, #-192]!	; 0xffffff40
  20:	29383831 	ldmdbcs	r8!, {r0, r4, r5, fp, ip, sp}
  24:	342e3420 	strtcc	r3, [lr], #-1056	; 0x420
  28:	0000312e 	andeq	r3, r0, lr, lsr #2
  2c:	3a434347 	bcc	10d0d50 <IRQ_STACK_SIZE+0x10ccd50>
  30:	6f532820 	svcvs	0x00532820
  34:	65637275 	strbvs	r7, [r3, #-629]!	; 0x275
  38:	47207972 	undefined instruction 0x47207972
  3c:	4c202b2b 	stcmi	11, cr2, [r0], #-172	; 0xffffff54
  40:	20657469 	rsbcs	r7, r5, r9, ror #8
  44:	30313032 	eorscc	r3, r1, r2, lsr r0
  48:	312d3171 	teqcc	sp, r1, ror r1
  4c:	20293838 	eorcs	r3, r9, r8, lsr r8
  50:	2e342e34 	mrccs	14, 1, r2, cr4, cr4, {1}
  54:	47000031 	smladxmi	r0, r1, r0, r0
  58:	203a4343 	eorscs	r4, sl, r3, asr #6
  5c:	756f5328 	strbvc	r5, [pc, #-808]!	; fffffd3c <R1_iA+0x7ffffd3c>
  60:	72656372 	rsbvc	r6, r5, #-939524095	; 0xc8000001
  64:	2b472079 	blcs	11c8250 <IRQ_STACK_SIZE+0x11c4250>
  68:	694c202b 	stmdbvs	ip, {r0, r1, r3, r5, sp}^
  6c:	32206574 	eorcc	r6, r0, #116, 10	; 0x1d000000
  70:	71303130 	teqvc	r0, r0, lsr r1
  74:	38312d31 	ldmdacc	r1!, {r0, r4, r5, r8, sl, fp, sp}
  78:	34202938 	strtcc	r2, [r0], #-2360	; 0x938
  7c:	312e342e 	teqcc	lr, lr, lsr #8
  80:	43470000 	movtmi	r0, #28672	; 0x7000
  84:	28203a43 	stmdacs	r0!, {r0, r1, r6, r9, fp, ip, sp}
  88:	72756f53 	rsbsvc	r6, r5, #332	; 0x14c
  8c:	79726563 	ldmdbvc	r2!, {r0, r1, r5, r6, r8, sl, sp, lr}^
  90:	2b2b4720 	blcs	ad1d18 <IRQ_STACK_SIZE+0xacdd18>
  94:	74694c20 	strbtvc	r4, [r9], #-3104	; 0xc20
  98:	30322065 	eorscc	r2, r2, r5, rrx
  9c:	31713031 	cmncc	r1, r1, lsr r0
  a0:	3838312d 	ldmdacc	r8!, {r0, r2, r3, r5, r8, ip, sp}
  a4:	2e342029 	cdpcs	0, 3, cr2, cr4, cr9, {1}
  a8:	00312e34 	eorseq	r2, r1, r4, lsr lr
  ac:	43434700 	movtmi	r4, #14080	; 0x3700
  b0:	5328203a 	teqpl	r8, #58	; 0x3a
  b4:	6372756f 	cmnvs	r2, #465567744	; 0x1bc00000
  b8:	20797265 	rsbscs	r7, r9, r5, ror #4
  bc:	202b2b47 	eorcs	r2, fp, r7, asr #22
  c0:	6574694c 	ldrbvs	r6, [r4, #-2380]!	; 0x94c
  c4:	31303220 	teqcc	r0, r0, lsr #4
  c8:	2d317130 	ldfcss	f7, [r1, #-192]!	; 0xffffff40
  cc:	29383831 	ldmdbcs	r8!, {r0, r4, r5, fp, ip, sp}
  d0:	342e3420 	strtcc	r3, [lr], #-1056	; 0x420
  d4:	0000312e 	andeq	r3, r0, lr, lsr #2
  d8:	3a434347 	bcc	10d0dfc <IRQ_STACK_SIZE+0x10ccdfc>
  dc:	6f532820 	svcvs	0x00532820
  e0:	65637275 	strbvs	r7, [r3, #-629]!	; 0x275
  e4:	47207972 	undefined instruction 0x47207972
  e8:	4c202b2b 	stcmi	11, cr2, [r0], #-172	; 0xffffff54
  ec:	20657469 	rsbcs	r7, r5, r9, ror #8
  f0:	30313032 	eorscc	r3, r1, r2, lsr r0
  f4:	312d3171 	teqcc	sp, r1, ror r1
  f8:	20293838 	eorcs	r3, r9, r8, lsr r8
  fc:	2e342e34 	mrccs	14, 1, r2, cr4, cr4, {1}
 100:	Address 0x00000100 is out of bounds.


Disassembly of section .ARM.attributes:

00000000 <.ARM.attributes>:
   0:	00002e41 	andeq	r2, r0, r1, asr #28
   4:	61656100 	cmnvs	r5, r0, lsl #2
   8:	01006962 	tsteq	r0, r2, ror #18
   c:	00000024 	andeq	r0, r0, r4, lsr #32
  10:	4d524105 	ldfmie	f4, [r2, #-20]	; 0xffffffec
  14:	54303239 	ldrtpl	r3, [r0], #-569	; 0x239
  18:	08020600 	stmdaeq	r2, {r9, sl}
  1c:	12010901 	andne	r0, r1, #16384	; 0x4000
  20:	15011404 	strne	r1, [r1, #-1028]	; 0x404
  24:	18031701 	stmdane	r3, {r0, r8, r9, sl, ip}
  28:	1e011a01 	vmlane.f32	s2, s2, s2
  2c:	Address 0x0000002c is out of bounds.


Disassembly of section .debug_frame:

00000000 <.debug_frame>:
   0:	0000000c 	andeq	r0, r0, ip
   4:	ffffffff 	undefined instruction 0xffffffff
   8:	7c020001 	stcvc	0, cr0, [r2], {1}
   c:	000d0c0e 	andeq	r0, sp, lr, lsl #24
  10:	0000000c 	andeq	r0, r0, ip
  14:	00000000 	andeq	r0, r0, r0
  18:	30001364 	andcc	r1, r0, r4, ror #6
  1c:	00000010 	andeq	r0, r0, r0, lsl r0
  20:	0000000c 	andeq	r0, r0, ip
  24:	00000000 	andeq	r0, r0, r0
  28:	30001374 	andcc	r1, r0, r4, ror r3
  2c:	0000000c 	andeq	r0, r0, ip
  30:	0000000c 	andeq	r0, r0, ip
  34:	00000000 	andeq	r0, r0, r0
  38:	30001380 	andcc	r1, r0, r0, lsl #7
  3c:	0000000c 	andeq	r0, r0, ip
  40:	00000018 	andeq	r0, r0, r8, lsl r0
  44:	00000000 	andeq	r0, r0, r0
  48:	3000138c 	andcc	r1, r0, ip, lsl #7
  4c:	00000060 	andeq	r0, r0, r0, rrx
  50:	42100e42 	andsmi	r0, r0, #1056	; 0x420
  54:	0286018e 	addeq	r0, r6, #-2147483613	; 0x80000023
  58:	04840385 	streq	r0, [r4], #901	; 0x385
  5c:	0000000c 	andeq	r0, r0, ip
  60:	00000000 	andeq	r0, r0, r0
  64:	300013ec 	andcc	r1, r0, ip, ror #7
  68:	0000001c 	andeq	r0, r0, ip, lsl r0
  6c:	0000000c 	andeq	r0, r0, ip
  70:	ffffffff 	undefined instruction 0xffffffff
  74:	7c020001 	stcvc	0, cr0, [r2], {1}
  78:	000d0c0e 	andeq	r0, sp, lr, lsl #24
  7c:	0000000c 	andeq	r0, r0, ip
  80:	0000006c 	andeq	r0, r0, ip, rrx
  84:	30001408 	andcc	r1, r0, r8, lsl #8
  88:	00000094 	muleq	r0, r4, r0
  8c:	0000000c 	andeq	r0, r0, ip
  90:	0000006c 	andeq	r0, r0, ip, rrx
  94:	3000149c 	mulcc	r0, ip, r4
  98:	0000019c 	muleq	r0, ip, r1
  9c:	0000000c 	andeq	r0, r0, ip
  a0:	ffffffff 	undefined instruction 0xffffffff
  a4:	7c020001 	stcvc	0, cr0, [r2], {1}
  a8:	000d0c0e 	andeq	r0, sp, lr, lsl #24
  ac:	00000018 	andeq	r0, r0, r8, lsl r0
  b0:	0000009c 	muleq	r0, ip, r0
  b4:	30001638 	andcc	r1, r0, r8, lsr r6
  b8:	00000050 	andeq	r0, r0, r0, asr r0
  bc:	44080e42 	strmi	r0, [r8], #-3650	; 0xe42
  c0:	8e42700e 	cdphi	0, 4, cr7, cr2, cr14, {0}
  c4:	00028401 	andeq	r8, r2, r1, lsl #8
  c8:	00000014 	andeq	r0, r0, r4, lsl r0
  cc:	0000009c 	muleq	r0, ip, r0
  d0:	30001688 	andcc	r1, r0, r8, lsl #13
  d4:	0000002c 	andeq	r0, r0, ip, lsr #32
  d8:	46040e42 	strmi	r0, [r4], -r2, asr #28
  dc:	00000184 	andeq	r0, r0, r4, lsl #3
  e0:	0000000c 	andeq	r0, r0, ip
  e4:	ffffffff 	undefined instruction 0xffffffff
  e8:	7c020001 	stcvc	0, cr0, [r2], {1}
  ec:	000d0c0e 	andeq	r0, sp, lr, lsl #24
  f0:	00000028 	andeq	r0, r0, r8, lsr #32
  f4:	000000e0 	andeq	r0, r0, r0, ror #1
  f8:	300016b4 	strhcc	r1, [r0], -r4
  fc:	00000188 	andeq	r0, r0, r8, lsl #3
 100:	42240e42 	eormi	r0, r4, #1056	; 0x420
 104:	028b018e 	addeq	r0, fp, #-2147483613	; 0x80000023
 108:	0489038a 	streq	r0, [r9], #906	; 0x38a
 10c:	06870588 	streq	r0, [r7], r8, lsl #11
 110:	08850786 	stmeq	r5, {r1, r2, r7, r8, r9, sl}
 114:	0e420984 	cdpeq	9, 4, cr0, cr2, cr4, {4}
 118:	00000030 	andeq	r0, r0, r0, lsr r0
 11c:	00000028 	andeq	r0, r0, r8, lsr #32
 120:	000000e0 	andeq	r0, r0, r0, ror #1
 124:	3000183c 	andcc	r1, r0, ip, lsr r8
 128:	00001f90 	muleq	r0, r0, pc
 12c:	42240e42 	eormi	r0, r4, #1056	; 0x420
 130:	4202b80e 	andmi	fp, r2, #917504	; 0xe0000
 134:	028b018e 	addeq	r0, fp, #-2147483613	; 0x80000023
 138:	0489038a 	streq	r0, [r9], #906	; 0x38a
 13c:	06870588 	streq	r0, [r7], r8, lsl #11
 140:	08850786 	stmeq	r5, {r1, r2, r7, r8, r9, sl}
 144:	00000984 	andeq	r0, r0, r4, lsl #19
 148:	0000000c 	andeq	r0, r0, ip
 14c:	ffffffff 	undefined instruction 0xffffffff
 150:	7c020001 	stcvc	0, cr0, [r2], {1}
 154:	000d0c0e 	andeq	r0, sp, lr, lsl #24
 158:	00000024 	andeq	r0, r0, r4, lsr #32
 15c:	00000148 	andeq	r0, r0, r8, asr #2
 160:	300037d0 	ldrdcc	r3, [r0], -r0
 164:	000001e8 	andeq	r0, r0, r8, ror #3
 168:	42280e42 	eormi	r0, r8, #1056	; 0x420
 16c:	028b018e 	addeq	r0, fp, #-2147483613	; 0x80000023
 170:	0489038a 	streq	r0, [r9], #906	; 0x38a
 174:	06870588 	streq	r0, [r7], r8, lsl #11
 178:	08850786 	stmeq	r5, {r1, r2, r7, r8, r9, sl}
 17c:	0a830984 	beq	fe0c2794 <R1_iA+0x7e0c2794>
 180:	00000028 	andeq	r0, r0, r8, lsr #32
 184:	00000148 	andeq	r0, r0, r8, asr #2
 188:	300039b8 	strhcc	r3, [r0], -r8
 18c:	000015f8 	strdeq	r1, [r0], -r8
 190:	44240e42 	strtmi	r0, [r4], #-3650	; 0xe42
 194:	4401a80e 	strmi	sl, [r1], #-2062	; 0x80e
 198:	028b018e 	addeq	r0, fp, #-2147483613	; 0x80000023
 19c:	0489038a 	streq	r0, [r9], #906	; 0x38a
 1a0:	06870588 	streq	r0, [r7], r8, lsl #11
 1a4:	08850786 	stmeq	r5, {r1, r2, r7, r8, r9, sl}
 1a8:	00000984 	andeq	r0, r0, r4, lsl #19
 1ac:	0000000c 	andeq	r0, r0, ip
 1b0:	ffffffff 	undefined instruction 0xffffffff
 1b4:	7c020001 	stcvc	0, cr0, [r2], {1}
 1b8:	000d0c0e 	andeq	r0, sp, lr, lsl #24
 1bc:	0000001c 	andeq	r0, r0, ip, lsl r0
 1c0:	000001ac 	andeq	r0, r0, ip, lsr #3
 1c4:	30004fb0 	strhcc	r4, [r0], -r0
 1c8:	000000fc 	strdeq	r0, [r0], -ip
 1cc:	42180e42 	andsmi	r0, r8, #1056	; 0x420
 1d0:	0287018e 	addeq	r0, r7, #-2147483613	; 0x80000023
 1d4:	04850386 	streq	r0, [r5], #902	; 0x386
 1d8:	06830584 	streq	r0, [r3], r4, lsl #11
 1dc:	0000001c 	andeq	r0, r0, ip, lsl r0
 1e0:	000001ac 	andeq	r0, r0, ip, lsr #3
 1e4:	300050ac 	andcc	r5, r0, ip, lsr #1
 1e8:	00000274 	andeq	r0, r0, r4, ror r2
 1ec:	42180e42 	andsmi	r0, r8, #1056	; 0x420
 1f0:	0287018e 	addeq	r0, r7, #-2147483613	; 0x80000023
 1f4:	04850386 	streq	r0, [r5], #902	; 0x386
 1f8:	06830584 	streq	r0, [r3], r4, lsl #11
 1fc:	0000000c 	andeq	r0, r0, ip
 200:	ffffffff 	undefined instruction 0xffffffff
 204:	7c020001 	stcvc	0, cr0, [r2], {1}
 208:	000d0c0e 	andeq	r0, sp, lr, lsl #24
 20c:	00000028 	andeq	r0, r0, r8, lsr #32
 210:	000001fc 	strdeq	r0, [r0], -ip
 214:	30005320 	andcc	r5, r0, r0, lsr #6
 218:	0000071c 	andeq	r0, r0, ip, lsl r7
 21c:	42240e42 	eormi	r0, r4, #1056	; 0x420
 220:	028b018e 	addeq	r0, fp, #-2147483613	; 0x80000023
 224:	0489038a 	streq	r0, [r9], #906	; 0x38a
 228:	06870588 	streq	r0, [r7], r8, lsl #11
 22c:	08850786 	stmeq	r5, {r1, r2, r7, r8, r9, sl}
 230:	0e560984 	cdpeq	9, 5, cr0, cr6, cr4, {4}
 234:	00000030 	andeq	r0, r0, r0, lsr r0
 238:	0000000c 	andeq	r0, r0, ip
 23c:	ffffffff 	undefined instruction 0xffffffff
 240:	7c020001 	stcvc	0, cr0, [r2], {1}
 244:	000d0c0e 	andeq	r0, sp, lr, lsl #24
 248:	00000014 	andeq	r0, r0, r4, lsl r0
 24c:	00000238 	andeq	r0, r0, r8, lsr r2
 250:	30005a3c 	andcc	r5, r0, ip, lsr sl
 254:	000000d4 	ldrdeq	r0, [r0], -r4
 258:	44040e44 	strmi	r0, [r4], #-3652	; 0xe44
 25c:	00000184 	andeq	r0, r0, r4, lsl #3
 260:	0000000c 	andeq	r0, r0, ip
 264:	ffffffff 	undefined instruction 0xffffffff
 268:	7c020001 	stcvc	0, cr0, [r2], {1}
 26c:	000d0c0e 	andeq	r0, sp, lr, lsl #24
 270:	00000020 	andeq	r0, r0, r0, lsr #32
 274:	00000260 	andeq	r0, r0, r0, ror #4
 278:	30005b10 	andcc	r5, r0, r0, lsl fp
 27c:	00000204 	andeq	r0, r0, r4, lsl #4
 280:	421c0e44 	andsmi	r0, ip, #68, 28	; 0x440
 284:	0289018a 	addeq	r0, r9, #-2147483614	; 0x80000022
 288:	04870388 	streq	r0, [r7], #904	; 0x388
 28c:	06850586 	streq	r0, [r5], r6, lsl #11
 290:	00000784 	andeq	r0, r0, r4, lsl #15
 294:	0000000c 	andeq	r0, r0, ip
 298:	ffffffff 	undefined instruction 0xffffffff
 29c:	7c020001 	stcvc	0, cr0, [r2], {1}
 2a0:	000d0c0e 	andeq	r0, sp, lr, lsl #24
 2a4:	00000018 	andeq	r0, r0, r8, lsl r0
 2a8:	00000294 	muleq	r0, r4, r2
 2ac:	30005d14 	andcc	r5, r0, r4, lsl sp
 2b0:	00000134 	andeq	r0, r0, r4, lsr r1
 2b4:	440c0e44 	strmi	r0, [ip], #-3652	; 0xe44
 2b8:	02850186 	addeq	r0, r5, #-2147483615	; 0x80000021
 2bc:	00000384 	andeq	r0, r0, r4, lsl #7
 2c0:	0000000c 	andeq	r0, r0, ip
 2c4:	ffffffff 	undefined instruction 0xffffffff
 2c8:	7c020001 	stcvc	0, cr0, [r2], {1}
 2cc:	000d0c0e 	andeq	r0, sp, lr, lsl #24
 2d0:	0000000c 	andeq	r0, r0, ip
 2d4:	000002c0 	andeq	r0, r0, r0, asr #5
 2d8:	30005e48 	andcc	r5, r0, r8, asr #28
 2dc:	00000004 	andeq	r0, r0, r4
 2e0:	0000000c 	andeq	r0, r0, ip
 2e4:	000002c0 	andeq	r0, r0, r0, asr #5
 2e8:	30005e4c 	andcc	r5, r0, ip, asr #28
 2ec:	00000004 	andeq	r0, r0, r4
 2f0:	0000000c 	andeq	r0, r0, ip
 2f4:	ffffffff 	undefined instruction 0xffffffff
 2f8:	7c020001 	stcvc	0, cr0, [r2], {1}
 2fc:	000d0c0e 	andeq	r0, sp, lr, lsl #24
 300:	0000000c 	andeq	r0, r0, ip
 304:	000002f0 	strdeq	r0, [r0], -r0
 308:	30005e50 	andcc	r5, r0, r0, asr lr
 30c:	0000001c 	andeq	r0, r0, ip, lsl r0
 310:	0000000c 	andeq	r0, r0, ip
 314:	000002f0 	strdeq	r0, [r0], -r0
 318:	30005e6c 	andcc	r5, r0, ip, ror #28
 31c:	00000058 	andeq	r0, r0, r8, asr r0
 320:	0000000c 	andeq	r0, r0, ip
 324:	000002f0 	strdeq	r0, [r0], -r0
 328:	30005ec4 	andcc	r5, r0, r4, asr #29
 32c:	00000094 	muleq	r0, r4, r0
 330:	00000014 	andeq	r0, r0, r4, lsl r0
 334:	000002f0 	strdeq	r0, [r0], -r0
 338:	30005f58 	andcc	r5, r0, r8, asr pc
 33c:	00000068 	andeq	r0, r0, r8, rrx
 340:	42040e4a 	andmi	r0, r4, #1184	; 0x4a0
 344:	00000184 	andeq	r0, r0, r4, lsl #3
 348:	0000000c 	andeq	r0, r0, ip
 34c:	000002f0 	strdeq	r0, [r0], -r0
 350:	30005fc0 	andcc	r5, r0, r0, asr #31
 354:	00000060 	andeq	r0, r0, r0, rrx
 358:	0000001c 	andeq	r0, r0, ip, lsl r0
 35c:	000002f0 	strdeq	r0, [r0], -r0
 360:	30006020 	andcc	r6, r0, r0, lsr #32
 364:	000000c4 	andeq	r0, r0, r4, asr #1
 368:	42180e42 	andsmi	r0, r8, #1056	; 0x420
 36c:	0287018e 	addeq	r0, r7, #-2147483613	; 0x80000023
 370:	04850386 	streq	r0, [r5], #902	; 0x386
 374:	06830584 	streq	r0, [r3], r4, lsl #11
 378:	00000024 	andeq	r0, r0, r4, lsr #32
 37c:	000002f0 	strdeq	r0, [r0], -r0
 380:	300060e4 	andcc	r6, r0, r4, ror #1
 384:	000000a4 	andeq	r0, r0, r4, lsr #1
 388:	42200e42 	eormi	r0, r0, #1056	; 0x420
 38c:	8e42280e 	cdphi	8, 4, cr2, cr2, cr14, {0}
 390:	89028b01 	stmdbhi	r2, {r0, r8, r9, fp, pc}
 394:	87048803 	strhi	r8, [r4, -r3, lsl #16]
 398:	85068605 	strhi	r8, [r6, #-1541]	; 0x605
 39c:	00088407 	andeq	r8, r8, r7, lsl #8
 3a0:	00000014 	andeq	r0, r0, r4, lsl r0
 3a4:	000002f0 	strdeq	r0, [r0], -r0
 3a8:	30006188 	andcc	r6, r0, r8, lsl #3
 3ac:	00000050 	andeq	r0, r0, r0, asr r0
 3b0:	44080e46 	strmi	r0, [r8], #-3654	; 0xe46
 3b4:	0284018e 	addeq	r0, r4, #-2147483613	; 0x80000023
 3b8:	00000014 	andeq	r0, r0, r4, lsl r0
 3bc:	000002f0 	strdeq	r0, [r0], -r0
 3c0:	300061d8 	ldrdcc	r6, [r0], -r8
 3c4:	0000007c 	andeq	r0, r0, ip, ror r0
 3c8:	42040e52 	andmi	r0, r4, #1312	; 0x520
 3cc:	00000184 	andeq	r0, r0, r4, lsl #3
 3d0:	0000000c 	andeq	r0, r0, ip
 3d4:	000002f0 	strdeq	r0, [r0], -r0
 3d8:	30006254 	andcc	r6, r0, r4, asr r2
 3dc:	00000088 	andeq	r0, r0, r8, lsl #1
 3e0:	00000018 	andeq	r0, r0, r8, lsl r0
 3e4:	000002f0 	strdeq	r0, [r0], -r0
 3e8:	300062dc 	ldrdcc	r6, [r0], -ip
 3ec:	00000088 	andeq	r0, r0, r8, lsl #1
 3f0:	42100e46 	andsmi	r0, r0, #1120	; 0x460
 3f4:	0286018e 	addeq	r0, r6, #-2147483613	; 0x80000023
 3f8:	04840385 	streq	r0, [r4], #901	; 0x385
 3fc:	00000024 	andeq	r0, r0, r4, lsr #32
 400:	000002f0 	strdeq	r0, [r0], -r0
 404:	30006364 	andcc	r6, r0, r4, ror #6
 408:	00000110 	andeq	r0, r0, r0, lsl r1
 40c:	441c0e42 	ldrmi	r0, [ip], #-3650	; 0xe42
 410:	8e42280e 	cdphi	8, 4, cr2, cr2, cr14, {0}
 414:	88028a01 	stmdahi	r2, {r0, r9, fp, pc}
 418:	86048703 	strhi	r8, [r4], -r3, lsl #14
 41c:	84068505 	strhi	r8, [r6], #-1285	; 0x505
 420:	00000007 	andeq	r0, r0, r7
 424:	00000020 	andeq	r0, r0, r0, lsr #32
 428:	000002f0 	strdeq	r0, [r0], -r0
 42c:	30006474 	andcc	r6, r0, r4, ror r4
 430:	00000180 	andeq	r0, r0, r0, lsl #3
 434:	44200e42 	strtmi	r0, [r0], #-3650	; 0xe42
 438:	028a018e 	addeq	r0, sl, #-2147483613	; 0x80000023
 43c:	04880389 	streq	r0, [r8], #905	; 0x389
 440:	06860587 	streq	r0, [r6], r7, lsl #11
 444:	08840785 	stmeq	r4, {r0, r2, r7, r8, r9, sl}
 448:	00000020 	andeq	r0, r0, r0, lsr #32
 44c:	000002f0 	strdeq	r0, [r0], -r0
 450:	300065f4 	strdcc	r6, [r0], -r4
 454:	00000114 	andeq	r0, r0, r4, lsl r1
 458:	42200e42 	eormi	r0, r0, #1056	; 0x420
 45c:	028a018e 	addeq	r0, sl, #-2147483613	; 0x80000023
 460:	04870388 	streq	r0, [r7], #904	; 0x388
 464:	06850586 	streq	r0, [r5], r6, lsl #11
 468:	08830784 	stmeq	r3, {r2, r7, r8, r9, sl}
 46c:	00000028 	andeq	r0, r0, r8, lsr #32
 470:	000002f0 	strdeq	r0, [r0], -r0
 474:	30006708 	andcc	r6, r0, r8, lsl #14
 478:	000001f4 	strdeq	r0, [r0], -r4
 47c:	42240e42 	eormi	r0, r4, #1056	; 0x420
 480:	028b018e 	addeq	r0, fp, #-2147483613	; 0x80000023
 484:	0489038a 	streq	r0, [r9], #906	; 0x38a
 488:	06870588 	streq	r0, [r7], r8, lsl #11
 48c:	08850786 	stmeq	r5, {r1, r2, r7, r8, r9, sl}
 490:	0e5e0984 	cdpeq	9, 5, cr0, cr14, cr4, {4}
 494:	00000040 	andeq	r0, r0, r0, asr #32
 498:	00000014 	andeq	r0, r0, r4, lsl r0
 49c:	000002f0 	strdeq	r0, [r0], -r0
 4a0:	300068fc 	strdcc	r6, [r0], -ip
 4a4:	00000024 	andeq	r0, r0, r4, lsr #32
 4a8:	42080e42 	andmi	r0, r8, #1056	; 0x420
 4ac:	0284018e 	addeq	r0, r4, #-2147483613	; 0x80000023
 4b0:	00000020 	andeq	r0, r0, r0, lsr #32
 4b4:	000002f0 	strdeq	r0, [r0], -r0
 4b8:	30006920 	andcc	r6, r0, r0, lsr #18
 4bc:	000000e4 	andeq	r0, r0, r4, ror #1
 4c0:	42180e42 	andsmi	r0, r8, #1056	; 0x420
 4c4:	0288018e 	addeq	r0, r8, #-2147483613	; 0x80000023
 4c8:	04860387 	streq	r0, [r6], #903	; 0x387
 4cc:	06840585 	streq	r0, [r4], r5, lsl #11
 4d0:	00200e46 	eoreq	r0, r0, r6, asr #28
 4d4:	0000001c 	andeq	r0, r0, ip, lsl r0
 4d8:	000002f0 	strdeq	r0, [r0], -r0
 4dc:	30006a04 	andcc	r6, r0, r4, lsl #20
 4e0:	000000fc 	strdeq	r0, [r0], -ip
 4e4:	42180e44 	andsmi	r0, r8, #68, 28	; 0x440
 4e8:	0288018e 	addeq	r0, r8, #-2147483613	; 0x80000023
 4ec:	04860387 	streq	r0, [r6], #903	; 0x387
 4f0:	06840585 	streq	r0, [r4], r5, lsl #11
 4f4:	00000020 	andeq	r0, r0, r0, lsr #32
 4f8:	000002f0 	strdeq	r0, [r0], -r0
 4fc:	30006b00 	andcc	r6, r0, r0, lsl #22
 500:	000000e8 	andeq	r0, r0, r8, ror #1
 504:	44200e42 	strtmi	r0, [r0], #-3650	; 0xe42
 508:	028a018e 	addeq	r0, sl, #-2147483613	; 0x80000023
 50c:	04870388 	streq	r0, [r7], #904	; 0x388
 510:	06850586 	streq	r0, [r5], r6, lsl #11
 514:	08830784 	stmeq	r3, {r2, r7, r8, r9, sl}
 518:	0000000c 	andeq	r0, r0, ip
 51c:	ffffffff 	undefined instruction 0xffffffff
 520:	7c020001 	stcvc	0, cr0, [r2], {1}
 524:	000d0c0e 	andeq	r0, sp, lr, lsl #24
 528:	00000028 	andeq	r0, r0, r8, lsr #32
 52c:	00000518 	andeq	r0, r0, r8, lsl r5
 530:	30006be8 	andcc	r6, r0, r8, ror #23
 534:	000004f4 	strdeq	r0, [r0], -r4
 538:	42240e42 	eormi	r0, r4, #1056	; 0x420
 53c:	028b018e 	addeq	r0, fp, #-2147483613	; 0x80000023
 540:	0489038a 	streq	r0, [r9], #906	; 0x38a
 544:	06870588 	streq	r0, [r7], r8, lsl #11
 548:	08850786 	stmeq	r5, {r1, r2, r7, r8, r9, sl}
 54c:	0e420984 	cdpeq	9, 4, cr0, cr2, cr4, {4}
 550:	00000030 	andeq	r0, r0, r0, lsr r0
 554:	0000000c 	andeq	r0, r0, ip
 558:	ffffffff 	undefined instruction 0xffffffff
 55c:	7c020001 	stcvc	0, cr0, [r2], {1}
 560:	000d0c0e 	andeq	r0, sp, lr, lsl #24
 564:	0000000c 	andeq	r0, r0, ip
 568:	00000554 	andeq	r0, r0, r4, asr r5
 56c:	300070dc 	ldrdcc	r7, [r0], -ip
 570:	00000030 	andeq	r0, r0, r0, lsr r0
 574:	0000000c 	andeq	r0, r0, ip
 578:	ffffffff 	undefined instruction 0xffffffff
 57c:	7c020001 	stcvc	0, cr0, [r2], {1}
 580:	000d0c0e 	andeq	r0, sp, lr, lsl #24
 584:	00000014 	andeq	r0, r0, r4, lsl r0
 588:	00000574 	andeq	r0, r0, r4, ror r5
 58c:	3000710c 	andcc	r7, r0, ip, lsl #2
 590:	00000030 	andeq	r0, r0, r0, lsr r0
 594:	44040e50 	strmi	r0, [r4], #-3664	; 0xe50
 598:	00000184 	andeq	r0, r0, r4, lsl #3
 59c:	0000000c 	andeq	r0, r0, ip
 5a0:	ffffffff 	undefined instruction 0xffffffff
 5a4:	7c020001 	stcvc	0, cr0, [r2], {1}
 5a8:	000d0c0e 	andeq	r0, sp, lr, lsl #24
 5ac:	00000018 	andeq	r0, r0, r8, lsl r0
 5b0:	0000059c 	muleq	r0, ip, r5
 5b4:	3000713c 	andcc	r7, r0, ip, lsr r1
 5b8:	00000040 	andeq	r0, r0, r0, asr #32
 5bc:	42100e42 	andsmi	r0, r0, #1056	; 0x420
 5c0:	0285018e 	addeq	r0, r5, #-2147483613	; 0x80000023
 5c4:	04830384 	streq	r0, [r3], #900	; 0x384
 5c8:	0000000c 	andeq	r0, r0, ip
 5cc:	ffffffff 	undefined instruction 0xffffffff
 5d0:	7c020001 	stcvc	0, cr0, [r2], {1}
 5d4:	000d0c0e 	andeq	r0, sp, lr, lsl #24
 5d8:	0000000c 	andeq	r0, r0, ip
 5dc:	000005c8 	andeq	r0, r0, r8, asr #11
 5e0:	3000717c 	andcc	r7, r0, ip, ror r1
 5e4:	00000060 	andeq	r0, r0, r0, rrx
 5e8:	0000000c 	andeq	r0, r0, ip
 5ec:	ffffffff 	undefined instruction 0xffffffff
 5f0:	7c020001 	stcvc	0, cr0, [r2], {1}
 5f4:	000d0c0e 	andeq	r0, sp, lr, lsl #24
 5f8:	00000014 	andeq	r0, r0, r4, lsl r0
 5fc:	000005e8 	andeq	r0, r0, r8, ror #11
 600:	300071dc 	ldrdcc	r7, [r0], -ip
 604:	0000009c 	muleq	r0, ip, r0
 608:	42080e42 	andmi	r0, r8, #1056	; 0x420
 60c:	0284018e 	addeq	r0, r4, #-2147483613	; 0x80000023
 610:	0000000c 	andeq	r0, r0, ip
 614:	ffffffff 	undefined instruction 0xffffffff
 618:	7c020001 	stcvc	0, cr0, [r2], {1}
 61c:	000d0c0e 	andeq	r0, sp, lr, lsl #24
 620:	00000014 	andeq	r0, r0, r4, lsl r0
 624:	00000610 	andeq	r0, r0, r0, lsl r6
 628:	30007278 	andcc	r7, r0, r8, ror r2
 62c:	0000012c 	andeq	r0, r0, ip, lsr #2
 630:	44080e44 	strmi	r0, [r8], #-3652	; 0xe44
 634:	02840185 	addeq	r0, r4, #1073741857	; 0x40000021
 638:	0000000c 	andeq	r0, r0, ip
 63c:	ffffffff 	undefined instruction 0xffffffff
 640:	7c020001 	stcvc	0, cr0, [r2], {1}
 644:	000d0c0e 	andeq	r0, sp, lr, lsl #24
 648:	0000001c 	andeq	r0, r0, ip, lsl r0
 64c:	00000638 	andeq	r0, r0, r8, lsr r6
 650:	300073a4 	andcc	r7, r0, r4, lsr #7
 654:	00000070 	andeq	r0, r0, r0, ror r0
 658:	42180e42 	andsmi	r0, r8, #1056	; 0x420
 65c:	0287018e 	addeq	r0, r7, #-2147483613	; 0x80000023
 660:	04850386 	streq	r0, [r5], #902	; 0x386
 664:	06830584 	streq	r0, [r3], r4, lsl #11
 668:	00000018 	andeq	r0, r0, r8, lsl r0
 66c:	00000638 	andeq	r0, r0, r8, lsr r6
 670:	30007414 	andcc	r7, r0, r4, lsl r4
 674:	0000002c 	andeq	r0, r0, ip, lsr #32
 678:	42100e42 	andsmi	r0, r0, #1056	; 0x420
 67c:	0285018e 	addeq	r0, r5, #-2147483613	; 0x80000023
 680:	04830384 	streq	r0, [r3], #900	; 0x384
 684:	00000018 	andeq	r0, r0, r8, lsl r0
 688:	00000638 	andeq	r0, r0, r8, lsr r6
 68c:	30007440 	andcc	r7, r0, r0, asr #8
 690:	000000f8 	strdeq	r0, [r0], -r8
 694:	42100e48 	andsmi	r0, r0, #72, 28	; 0x480
 698:	0286018e 	addeq	r0, r6, #-2147483613	; 0x80000023
 69c:	04840385 	streq	r0, [r4], #901	; 0x385
 6a0:	0000000c 	andeq	r0, r0, ip
 6a4:	ffffffff 	undefined instruction 0xffffffff
 6a8:	7c010001 	stcvc	0, cr0, [r1], {1}
 6ac:	000d0c0e 	andeq	r0, sp, lr, lsl #24
 6b0:	0000000c 	andeq	r0, r0, ip
 6b4:	000006a0 	andeq	r0, r0, r0, lsr #13
 6b8:	30007538 	andcc	r7, r0, r8, lsr r5
 6bc:	000000f4 	strdeq	r0, [r0], -r4
 6c0:	0000000c 	andeq	r0, r0, ip
 6c4:	ffffffff 	undefined instruction 0xffffffff
 6c8:	7c020001 	stcvc	0, cr0, [r2], {1}
 6cc:	000d0c0e 	andeq	r0, sp, lr, lsl #24
 6d0:	00000020 	andeq	r0, r0, r0, lsr #32
 6d4:	000006c0 	andeq	r0, r0, r0, asr #13
 6d8:	30008138 	andcc	r8, r0, r8, lsr r1
 6dc:	00000044 	andeq	r0, r0, r4, asr #32
 6e0:	42200e42 	eormi	r0, r0, #1056	; 0x420
 6e4:	0289018e 	addeq	r0, r9, #-2147483613	; 0x80000023
 6e8:	04870388 	streq	r0, [r7], #904	; 0x388
 6ec:	06850586 	streq	r0, [r5], r6, lsl #11
 6f0:	08830784 	stmeq	r3, {r2, r7, r8, r9, sl}
 6f4:	00000020 	andeq	r0, r0, r0, lsr #32
 6f8:	000006c0 	andeq	r0, r0, r0, asr #13
 6fc:	3000817c 	andcc	r8, r0, ip, ror r1
 700:	00000044 	andeq	r0, r0, r4, asr #32
 704:	42200e42 	eormi	r0, r0, #1056	; 0x420
 708:	0289018e 	addeq	r0, r9, #-2147483613	; 0x80000023
 70c:	04870388 	streq	r0, [r7], #904	; 0x388
 710:	06850586 	streq	r0, [r5], r6, lsl #11
 714:	08830784 	stmeq	r3, {r2, r7, r8, r9, sl}
 718:	0000000c 	andeq	r0, r0, ip
 71c:	ffffffff 	undefined instruction 0xffffffff
 720:	7c020001 	stcvc	0, cr0, [r2], {1}
 724:	000d0c0e 	andeq	r0, sp, lr, lsl #24
 728:	00000028 	andeq	r0, r0, r8, lsr #32
 72c:	00000718 	andeq	r0, r0, r8, lsl r7
 730:	300081c0 	andcc	r8, r0, r0, asr #3
 734:	00000490 	muleq	r0, r0, r4
 738:	44240e42 	strtmi	r0, [r4], #-3650	; 0xe42
 73c:	8e42380e 	cdphi	8, 4, cr3, cr2, cr14, {0}
 740:	8a028b01 	bhi	a334c <IRQ_STACK_SIZE+0x9f34c>
 744:	88048903 	stmdahi	r4, {r0, r1, r8, fp, pc}
 748:	86068705 	strhi	r8, [r6], -r5, lsl #14
 74c:	84088507 	strhi	r8, [r8], #-1287	; 0x507
 750:	00000009 	andeq	r0, r0, r9
 754:	0000000c 	andeq	r0, r0, ip
 758:	ffffffff 	undefined instruction 0xffffffff
 75c:	7c020001 	stcvc	0, cr0, [r2], {1}
 760:	000d0c0e 	andeq	r0, sp, lr, lsl #24
 764:	00000028 	andeq	r0, r0, r8, lsr #32
 768:	00000754 	andeq	r0, r0, r4, asr r7
 76c:	30008650 	andcc	r8, r0, r0, asr r6
 770:	0000043c 	andeq	r0, r0, ip, lsr r4
 774:	44240e42 	strtmi	r0, [r4], #-3650	; 0xe42
 778:	8e42300e 	cdphi	0, 4, cr3, cr2, cr14, {0}
 77c:	8a028b01 	bhi	a3388 <IRQ_STACK_SIZE+0x9f388>
 780:	88048903 	stmdahi	r4, {r0, r1, r8, fp, pc}
 784:	86068705 	strhi	r8, [r6], -r5, lsl #14
 788:	84088507 	strhi	r8, [r8], #-1287	; 0x507
 78c:	00000009 	andeq	r0, r0, r9
